Archive member included to satisfy reference by file (symbol)

/usr/lib/gcc-cross/arm-linux-gnueabihf/7/libgcc.a(_udivsi3.o)
                              arch/arm/cpu/armv7/built-in.o (__aeabi_uidiv)
/usr/lib/gcc-cross/arm-linux-gnueabihf/7/libgcc.a(_divsi3.o)
                              arch/arm/cpu/armv7/built-in.o (__aeabi_idiv)
/usr/lib/gcc-cross/arm-linux-gnueabihf/7/libgcc.a(_dvmd_lnx.o)
                              /usr/lib/gcc-cross/arm-linux-gnueabihf/7/libgcc.a(_udivsi3.o) (__aeabi_idiv0)

Discarded input sections

 .data          0x0000000000000000        0x0 arch/arm/cpu/armv7/start.o
 .bss           0x0000000000000000        0x0 arch/arm/cpu/armv7/start.o
 .text.v7_arch_cp15_set_l2aux_ctrl
                0x0000000000000000        0x8 arch/arm/cpu/armv7/built-in.o
 .text.v7_arch_cp15_set_acr
                0x0000000000000000        0x8 arch/arm/cpu/armv7/built-in.o
 .text.sdelay   0x0000000000000000        0xc arch/arm/cpu/armv7/built-in.o
 .text.wait_on_value
                0x0000000000000000       0x34 arch/arm/cpu/armv7/built-in.o
 .text.get_nr_cpus
                0x0000000000000000       0x10 arch/arm/cpu/armv7/built-in.o
 .text.board_mmc_get_env_dev
                0x0000000000000000        0x8 arch/arm/cpu/armv7/built-in.o
 .text.get_boot_device
                0x0000000000000000       0x9c arch/arm/cpu/armv7/built-in.o
 .text.enable_uart_clk
                0x0000000000000000       0x54 arch/arm/cpu/armv7/built-in.o
 .text.enable_usdhc_clk
                0x0000000000000000       0x4c arch/arm/cpu/armv7/built-in.o
 .text.enable_spi_clk
                0x0000000000000000       0x44 arch/arm/cpu/armv7/built-in.o
 .text.enable_lvds_bridge
                0x0000000000000000      0x1d8 arch/arm/cpu/armv7/built-in.o
 .text.enable_ipu_clock
                0x0000000000000000       0x90 arch/arm/cpu/armv7/built-in.o
 .data          0x0000000000000000        0x0 arch/arm/cpu/armv7/built-in.o
 .bss           0x0000000000000000        0x0 arch/arm/cpu/armv7/built-in.o
 .text          0x0000000000000000        0x0 arch/arm/imx-common/built-in.o
 .text.imx_iomux_set_gpr_register
                0x0000000000000000       0x44 arch/arm/imx-common/built-in.o
 .text.get_imx_reset_cause
                0x0000000000000000       0x10 arch/arm/imx-common/built-in.o
 .text.set_chipselect_size
                0x0000000000000000       0x7c arch/arm/imx-common/built-in.o
 .text.usec2ticks
                0x0000000000000000       0x64 arch/arm/imx-common/built-in.o
 .rodata.set_chipselect_size.str1.1
                0x0000000000000000       0x1e arch/arm/imx-common/built-in.o
 .data          0x0000000000000000        0x0 arch/arm/imx-common/built-in.o
 .bss           0x0000000000000000        0x0 arch/arm/imx-common/built-in.o
 .text.reset_misc
                0x0000000000000000        0x4 arch/arm/lib/built-in.o
 .text.enable_caches
                0x0000000000000000        0xc arch/arm/lib/built-in.o
 .text.invalidate_dcache_range
                0x0000000000000000        0x4 arch/arm/lib/built-in.o
 .text.flush_dcache_range
                0x0000000000000000        0x4 arch/arm/lib/built-in.o
 .text.flush_dcache_all
                0x0000000000000000        0xc arch/arm/lib/built-in.o
 .text.arm_init_before_mmu
                0x0000000000000000        0x4 arch/arm/lib/built-in.o
 .text.mmu_page_table_flush
                0x0000000000000000        0x4 arch/arm/lib/built-in.o
 .rodata.enable_caches.str1.1
                0x0000000000000000       0x1d arch/arm/lib/built-in.o
 .data          0x0000000000000000        0x0 arch/arm/lib/built-in.o
 .__secure_end  0x0000000000000000        0x0 arch/arm/lib/built-in.o
 .__secure_start
                0x0000000000000000        0x0 arch/arm/lib/built-in.o
 .bss           0x0000000000000000        0x0 arch/arm/lib/built-in.o
 .text          0x0000000000000000        0x0 board/freescale/common/built-in.o
 .text.mmc_map_to_kernel_blk
                0x0000000000000000        0x4 board/freescale/common/built-in.o
 .data          0x0000000000000000        0x0 board/freescale/common/built-in.o
 .bss           0x0000000000000000        0x0 board/freescale/common/built-in.o
 .text          0x0000000000000000        0x0 board/freescale/mx6ullevk/built-in.o
 .text.iox74lv_set
                0x0000000000000000       0xf8 board/freescale/mx6ullevk/built-in.o
 .data          0x0000000000000000        0x0 board/freescale/mx6ullevk/built-in.o
 .bss           0x0000000000000000        0x0 board/freescale/mx6ullevk/built-in.o
 .text          0x0000000000000000        0x0 cmd/built-in.o
 .text.bootz_setup
                0x0000000000000000       0x18 cmd/built-in.o
 .text.gunzip_bmp
                0x0000000000000000        0x8 cmd/built-in.o
 .text.invalidate_icache_all
                0x0000000000000000        0xc cmd/built-in.o
 .text.flush_dcache_all
                0x0000000000000000        0xc cmd/built-in.o
 .rodata.bootz_setup.str1.1
                0x0000000000000000       0x34 cmd/built-in.o
 .rodata.flush_dcache_all.str1.1
                0x0000000000000000       0x2e cmd/built-in.o
 .rodata.invalidate_icache_all.str1.1
                0x0000000000000000       0x33 cmd/built-in.o
 .data          0x0000000000000000        0x0 cmd/built-in.o
 .bss           0x0000000000000000        0x0 cmd/built-in.o
 .text          0x0000000000000000        0x0 common/built-in.o
 .text.hash_finish_crc32
                0x0000000000000000       0x30 common/built-in.o
 .text.hash_update_crc32
                0x0000000000000000       0x24 common/built-in.o
 .text.hash_init_crc32
                0x0000000000000000       0x24 common/built-in.o
 .text.hash_lookup_algo
                0x0000000000000000       0x28 common/built-in.o
 .text.hash_progressive_lookup_algo
                0x0000000000000000       0x3c common/built-in.o
 .text.hash_parse_string
                0x0000000000000000       0x68 common/built-in.o
 .text.hash_block
                0x0000000000000000       0x6c common/built-in.o
 .text.unset_local_var
                0x0000000000000000       0x9c common/built-in.o
 .text.arch_cpu_init
                0x0000000000000000        0x8 common/built-in.o
 .text.red_led_off
                0x0000000000000000        0x4 common/built-in.o
 .text.green_led_on
                0x0000000000000000        0x4 common/built-in.o
 .text.green_led_off
                0x0000000000000000        0x4 common/built-in.o
 .text.yellow_led_on
                0x0000000000000000        0x4 common/built-in.o
 .text.yellow_led_off
                0x0000000000000000        0x4 common/built-in.o
 .text.blue_led_on
                0x0000000000000000        0x4 common/built-in.o
 .text.blue_led_off
                0x0000000000000000        0x4 common/built-in.o
 .text.arch_reserve_stacks
                0x0000000000000000        0x8 common/built-in.o
 .text.power_init_board
                0x0000000000000000        0x8 common/built-in.o
 .text.board_flash_wp_on
                0x0000000000000000        0x8 common/built-in.o
 .text.fixup_cpu
                0x0000000000000000        0x8 common/built-in.o
 .text.checkboard
                0x0000000000000000        0x8 common/built-in.o
 .text.arch_preboot_os
                0x0000000000000000        0x4 common/built-in.o
 .text.env_flags_parse_varaccess_from_binflags
                0x0000000000000000       0x58 common/built-in.o
 .text.mmc_get_env_dev
                0x0000000000000000        0x8 common/built-in.o
 .text.mmc_get_env_part
                0x0000000000000000        0x8 common/built-in.o
 .text.of_bus_default_map
                0x0000000000000000       0xb8 common/built-in.o
 .text.fdt_read_prop
                0x0000000000000000       0x64 common/built-in.o
 .text.of_bus_default_translate
                0x0000000000000000       0x9c common/built-in.o
 .text.of_bus_default_count_cells
                0x0000000000000000       0x58 common/built-in.o
 .text.fdt_getprop_u32_default_node
                0x0000000000000000       0x40 common/built-in.o
 .text.fdt_getprop_u32_default
                0x0000000000000000       0x40 common/built-in.o
 .text.do_fixup_by_path_u32
                0x0000000000000000       0x2c common/built-in.o
 .text.do_fixup_by_prop
                0x0000000000000000       0x9c common/built-in.o
 .text.do_fixup_by_prop_u32
                0x0000000000000000       0x38 common/built-in.o
 .text.do_fixup_by_compat
                0x0000000000000000       0x8c common/built-in.o
 .text.do_fixup_by_compat_u32
                0x0000000000000000       0x2c common/built-in.o
 .text.fdt_increase_size
                0x0000000000000000       0x14 common/built-in.o
 .text.fdt_del_node_and_alias
                0x0000000000000000       0x44 common/built-in.o
 .text.fdt_translate_address
                0x0000000000000000      0x264 common/built-in.o
 .text.fdt_node_offset_by_compat_reg
                0x0000000000000000       0x8c common/built-in.o
 .text.fdt_alloc_phandle
                0x0000000000000000       0x58 common/built-in.o
 .text.fdt_set_phandle
                0x0000000000000000       0x60 common/built-in.o
 .text.fdt_create_phandle
                0x0000000000000000       0x64 common/built-in.o
 .text.fdt_set_node_status
                0x0000000000000000       0xe8 common/built-in.o
 .text.fdt_set_status_by_alias
                0x0000000000000000       0x2c common/built-in.o
 .text.fdt_add_edid
                0x0000000000000000       0xac common/built-in.o
 .text.fdt_verify_alias_address
                0x0000000000000000       0xcc common/built-in.o
 .text.fdt_get_base_address
                0x0000000000000000       0x54 common/built-in.o
 .text.fdt_read_range
                0x0000000000000000      0x13c common/built-in.o
 .text.fdt_setup_simplefb_node
                0x0000000000000000      0x208 common/built-in.o
 .text.fdt_fixup_display
                0x0000000000000000       0xd4 common/built-in.o
 .text.legacy_miiphy_read
                0x0000000000000000       0x34 common/built-in.o
 .text.legacy_miiphy_write
                0x0000000000000000       0x28 common/built-in.o
 .text.miiphy_register
                0x0000000000000000      0x12c common/built-in.o
 .text.mdio_free
                0x0000000000000000        0x4 common/built-in.o
 .text.usb_detect_change
                0x0000000000000000       0x68 common/built-in.o
 .text.usb_submit_int_msg
                0x0000000000000000        0x4 common/built-in.o
 .text.usb_set_protocol
                0x0000000000000000       0x4c common/built-in.o
 .text.usb_set_idle
                0x0000000000000000       0x54 common/built-in.o
 .text.usb_get_report
                0x0000000000000000       0x5c common/built-in.o
 .text.usb_get_class_descriptor
                0x0000000000000000       0x5c common/built-in.o
 .text.board_usb_init
                0x0000000000000000        0x8 common/built-in.o
 .text.board_usb_cleanup
                0x0000000000000000        0x8 common/built-in.o
 .text.usb_stor_reset
                0x0000000000000000       0x14 common/built-in.o
 .text.splash_screen_prepare
                0x0000000000000000        0x8 common/built-in.o
 .text.bounce_buffer_start
                0x0000000000000000       0x88 common/built-in.o
 .text.bounce_buffer_stop
                0x0000000000000000       0x54 common/built-in.o
 .text.fprintf  0x0000000000000000       0x4c common/built-in.o
 .text.disable_ctrlc
                0x0000000000000000       0x18 common/built-in.o
 .text.valloc   0x0000000000000000        0xc common/built-in.o
 .text.pvalloc  0x0000000000000000       0x18 common/built-in.o
 .text.cfree    0x0000000000000000        0x4 common/built-in.o
 .text.malloc_usable_size
                0x0000000000000000       0x44 common/built-in.o
 .text.mallopt  0x0000000000000000       0x54 common/built-in.o
 .text.memalign_simple
                0x0000000000000000       0x44 common/built-in.o
 .text.genimg_get_type_short_name
                0x0000000000000000       0x28 common/built-in.o
 .text.get_table_entry_id
                0x0000000000000000       0x4c common/built-in.o
 .text.genimg_get_os_id
                0x0000000000000000       0x18 common/built-in.o
 .text.genimg_get_arch_id
                0x0000000000000000       0x18 common/built-in.o
 .text.genimg_get_type_id
                0x0000000000000000       0x18 common/built-in.o
 .text.genimg_get_comp_id
                0x0000000000000000       0x18 common/built-in.o
 .text.genimg_get_kernel_addr
                0x0000000000000000       0x24 common/built-in.o
 .text.arch_fixup_fdt
                0x0000000000000000        0x8 common/built-in.o
 .text.get_ram_size
                0x0000000000000000       0xe0 common/built-in.o
 .text.stdio_init
                0x0000000000000000       0x14 common/built-in.o
 .text.cli_simple_parse_line
                0x0000000000000000       0x8c common/built-in.o
 .text.cli_simple_process_macros
                0x0000000000000000      0x200 common/built-in.o
 .text.cli_simple_run_command
                0x0000000000000000      0x160 common/built-in.o
 .text.cli_simple_loop
                0x0000000000000000       0x80 common/built-in.o
 .text.cli_simple_run_command_list
                0x0000000000000000       0x70 common/built-in.o
 .text.run_command_repeatable
                0x0000000000000000       0x1c common/built-in.o
 .rodata.env_flags_parse_varaccess_from_binflags.str1.1
                0x0000000000000000       0x2c common/built-in.o
 .rodata.__FUNCTION__.9106
                0x0000000000000000       0x17 common/built-in.o
 .rodata.fdt_add_edid.str1.1
                0x0000000000000000       0x3b common/built-in.o
 .rodata.fdt_create_phandle.str1.1
                0x0000000000000000       0x1a common/built-in.o
 .rodata.fdt_fixup_display.str1.1
                0x0000000000000000       0x1c common/built-in.o
 .rodata.fdt_read_range.str1.1
                0x0000000000000000        0xf common/built-in.o
 .rodata.fdt_set_node_status.str1.1
                0x0000000000000000       0x3a common/built-in.o
 .rodata.fdt_set_phandle.str1.1
                0x0000000000000000       0x16 common/built-in.o
 .rodata.fdt_setup_simplefb_node.str1.1
                0x0000000000000000       0x2c common/built-in.o
 .rodata.fdt_translate_address.str1.1
                0x0000000000000000       0x22 common/built-in.o
 .rodata.fdt_verify_alias_address.str1.1
                0x0000000000000000       0xcd common/built-in.o
 .rodata.of_bus_default_count_cells.str1.1
                0x0000000000000000        0xc common/built-in.o
 .rodata.__FUNCTION__.9392
                0x0000000000000000       0x10 common/built-in.o
 .rodata.miiphy_register.str1.1
                0x0000000000000000       0x96 common/built-in.o
 .rodata.genimg_get_arch_id.str1.1
                0x0000000000000000        0x4 common/built-in.o
 .rodata.genimg_get_comp_id.str1.1
                0x0000000000000000        0xc common/built-in.o
 .rodata.genimg_get_os_id.str1.1
                0x0000000000000000        0x3 common/built-in.o
 .rodata.genimg_get_type_id.str1.1
                0x0000000000000000        0x6 common/built-in.o
 .rodata.genimg_get_type_short_name.str1.1
                0x0000000000000000        0x8 common/built-in.o
 .rodata.cli_simple_loop.str1.1
                0x0000000000000000       0x11 common/built-in.o
 .rodata.cli_simple_parse_line.str1.1
                0x0000000000000000       0x1f common/built-in.o
 .rodata.cli_simple_run_command.str1.1
                0x0000000000000000       0x16 common/built-in.o
 .data          0x0000000000000000        0x0 common/built-in.o
 .data.hash_algo
                0x0000000000000000       0x1c common/built-in.o
 .data.of_busses
                0x0000000000000000       0x14 common/built-in.o
 .bss           0x0000000000000000        0x0 common/built-in.o
 .bss.env_ptr   0x0000000000000000        0x4 common/built-in.o
 .bss.save_addr
                0x0000000000000000        0x4 common/built-in.o
 .bss.save_size
                0x0000000000000000        0x4 common/built-in.o
 .bss.lastcommand.7354
                0x0000000000000000      0x201 common/built-in.o
 .text          0x0000000000000000        0x0 disk/built-in.o
 .text.get_dev  0x0000000000000000       0x10 disk/built-in.o
 .data          0x0000000000000000        0x0 disk/built-in.o
 .bss           0x0000000000000000        0x0 disk/built-in.o
 .text          0x0000000000000000        0x0 drivers/built-in.o
 .text._device_find_global_by_of_offset
                0x0000000000000000       0x50 drivers/built-in.o
 .text.dev_get_parent_platdata
                0x0000000000000000       0x30 drivers/built-in.o
 .text.dev_get_uclass_platdata
                0x0000000000000000       0x30 drivers/built-in.o
 .text.dev_get_uclass_priv
                0x0000000000000000       0x30 drivers/built-in.o
 .text.dev_get_parent_priv
                0x0000000000000000       0x30 drivers/built-in.o
 .text.device_get_child
                0x0000000000000000       0x50 drivers/built-in.o
 .text.device_find_child_by_seq
                0x0000000000000000       0x68 drivers/built-in.o
 .text.device_get_child_by_seq
                0x0000000000000000       0x58 drivers/built-in.o
 .text.device_find_child_by_of_offset
                0x0000000000000000       0x4c drivers/built-in.o
 .text.device_get_child_by_of_offset
                0x0000000000000000       0x3c drivers/built-in.o
 .text.device_get_global_by_of_offset
                0x0000000000000000       0x38 drivers/built-in.o
 .text.device_find_first_child
                0x0000000000000000       0x1c drivers/built-in.o
 .text.device_find_next_child
                0x0000000000000000       0x28 drivers/built-in.o
 .text.dev_get_parent
                0x0000000000000000        0x8 drivers/built-in.o
 .text.dev_get_driver_data
                0x0000000000000000        0x8 drivers/built-in.o
 .text.dev_get_driver_ops
                0x0000000000000000       0x10 drivers/built-in.o
 .text.device_get_uclass_id
                0x0000000000000000       0x10 drivers/built-in.o
 .text.dev_get_uclass_name
                0x0000000000000000       0x14 drivers/built-in.o
 .text.dev_get_addr_index
                0x0000000000000000        0x8 drivers/built-in.o
 .text.dev_get_addr
                0x0000000000000000        0x8 drivers/built-in.o
 .text.device_has_children
                0x0000000000000000       0x14 drivers/built-in.o
 .text.device_has_active_children
                0x0000000000000000       0x40 drivers/built-in.o
 .text.device_is_last_sibling
                0x0000000000000000       0x24 drivers/built-in.o
 .text.device_set_name
                0x0000000000000000       0x24 drivers/built-in.o
 .text.device_bind_driver_to_node
                0x0000000000000000       0x48 drivers/built-in.o
 .text.device_bind_driver
                0x0000000000000000       0x18 drivers/built-in.o
 .text.dm_get_translation_offset
                0x0000000000000000       0x14 drivers/built-in.o
 .text.dm_set_translation_offset
                0x0000000000000000       0x18 drivers/built-in.o
 .text.dm_uninit
                0x0000000000000000       0x1c drivers/built-in.o
 .text.uclass_destroy
                0x0000000000000000       0x98 drivers/built-in.o
 .text.uclass_find_first_device
                0x0000000000000000       0x3c drivers/built-in.o
 .text.uclass_find_next_device
                0x0000000000000000       0x2c drivers/built-in.o
 .text.uclass_find_device_by_name
                0x0000000000000000       0x88 drivers/built-in.o
 .text.uclass_find_device_by_of_offset
                0x0000000000000000       0x68 drivers/built-in.o
 .text.uclass_get_device_by_name
                0x0000000000000000       0x30 drivers/built-in.o
 .text.uclass_get_device_by_seq
                0x0000000000000000       0x54 drivers/built-in.o
 .text.uclass_get_device_by_of_offset
                0x0000000000000000       0x30 drivers/built-in.o
 .text.uclass_first_device
                0x0000000000000000       0x38 drivers/built-in.o
 .text.uclass_next_device
                0x0000000000000000       0x40 drivers/built-in.o
 .text.dm_dbg   0x0000000000000000       0x28 drivers/built-in.o
 .text.list_count_items
                0x0000000000000000       0x28 drivers/built-in.o
 .text.device_unbind
                0x0000000000000000      0x130 drivers/built-in.o
 .text.board_video_skip
                0x0000000000000000        0x8 drivers/built-in.o
 .text.video_position_cursor
                0x0000000000000000       0x50 drivers/built-in.o
 .text.video_get_pixel_width
                0x0000000000000000       0x14 drivers/built-in.o
 .text.video_get_pixel_height
                0x0000000000000000       0x14 drivers/built-in.o
 .text.video_get_screen_rows
                0x0000000000000000       0x18 drivers/built-in.o
 .text.video_get_screen_columns
                0x0000000000000000       0x18 drivers/built-in.o
 .text.mxs_lcd_get_panel
                0x0000000000000000       0x3c drivers/built-in.o
 .text.video_get_video_mode
                0x0000000000000000      0x184 drivers/built-in.o
 .text.video_get_ctfb_res_modes
                0x0000000000000000       0xf0 drivers/built-in.o
 .text.video_get_option_string
                0x0000000000000000       0xac drivers/built-in.o
 .text.video_get_option_int
                0x0000000000000000       0x84 drivers/built-in.o
 .text.video_edid_dtd_to_ctfb_res_modes
                0x0000000000000000      0x198 drivers/built-in.o
 .text._input_send_keycodes
                0x0000000000000000      0x418 drivers/built-in.o
 .text.input_tstc
                0x0000000000000000       0x48 drivers/built-in.o
 .text.input_getc
                0x0000000000000000       0x5c drivers/built-in.o
 .text.input_send_keycodes
                0x0000000000000000        0x8 drivers/built-in.o
 .text.input_add_keycode
                0x0000000000000000       0x84 drivers/built-in.o
 .text.input_add_table
                0x0000000000000000       0x40 drivers/built-in.o
 .text.input_set_delays
                0x0000000000000000        0xc drivers/built-in.o
 .text.input_allow_repeats
                0x0000000000000000        0x8 drivers/built-in.o
 .text.input_leds_changed
                0x0000000000000000       0x14 drivers/built-in.o
 .text.input_add_tables
                0x0000000000000000       0x98 drivers/built-in.o
 .text.input_init
                0x0000000000000000       0x24 drivers/built-in.o
 .text.input_stdio_register
                0x0000000000000000       0x54 drivers/built-in.o
 .rodata.__func__.9348
                0x0000000000000000       0x18 drivers/built-in.o
 .rodata.__func__.9352
                0x0000000000000000       0x18 drivers/built-in.o
 .rodata.__func__.9360
                0x0000000000000000       0x14 drivers/built-in.o
 .rodata.__func__.9364
                0x0000000000000000       0x14 drivers/built-in.o
 .rodata.vesa_modes
                0x0000000000000000       0xe4 drivers/built-in.o
 .rodata.video_get_ctfb_res_modes.str1.1
                0x0000000000000000       0x43 drivers/built-in.o
 .rodata.video_get_video_mode.str1.1
                0x0000000000000000        0xb drivers/built-in.o
 .rodata.input_stdio_register.str1.1
                0x0000000000000000        0x6 drivers/built-in.o
 .rodata.kbd_plain_xlate
                0x0000000000000000       0x64 drivers/built-in.o
 .rodata.kbd_plain_xlate_german
                0x0000000000000000       0x84 drivers/built-in.o
 .rodata.kbd_to_ansi364
                0x0000000000000000       0x20 drivers/built-in.o
 .data          0x0000000000000000        0x0 drivers/built-in.o
 .data.kbd_ctrl_xlate
                0x0000000000000000       0x64 drivers/built-in.o
 .data.kbd_entry
                0x0000000000000000       0x8c drivers/built-in.o
 .data.kbd_right_alt_xlate_german
                0x0000000000000000       0x58 drivers/built-in.o
 .data.kbd_shift_xlate
                0x0000000000000000       0x64 drivers/built-in.o
 .data.kbd_shift_xlate_german
                0x0000000000000000       0x84 drivers/built-in.o
 .bss           0x0000000000000000        0x0 drivers/built-in.o
 .bss.desc      0x0000000000000000       0x80 drivers/built-in.o
 .text          0x0000000000000000        0x0 drivers/gpio/built-in.o
 .data          0x0000000000000000        0x0 drivers/gpio/built-in.o
 .bss           0x0000000000000000        0x0 drivers/gpio/built-in.o
 .text          0x0000000000000000        0x0 drivers/i2c/built-in.o
 .text.i2c_reloc_fixup
                0x0000000000000000        0x4 drivers/i2c/built-in.o
 .text.i2c_init_board
                0x0000000000000000        0x4 drivers/i2c/built-in.o
 .text.i2c_reg_read
                0x0000000000000000       0x20 drivers/i2c/built-in.o
 .text.i2c_reg_write
                0x0000000000000000       0x20 drivers/i2c/built-in.o
 .text.i2c_get_base
                0x0000000000000000       0x18 drivers/i2c/built-in.o
 .text.__enable_i2c_clk
                0x0000000000000000        0x8 drivers/i2c/built-in.o
 .data          0x0000000000000000        0x0 drivers/i2c/built-in.o
 .bss           0x0000000000000000        0x0 drivers/i2c/built-in.o
 .text          0x0000000000000000        0x0 drivers/mmc/built-in.o
 .text.fdt_fixup_esdhc
                0x0000000000000000       0x5c drivers/mmc/built-in.o
 .text.board_mmc_getcd
                0x0000000000000000        0x8 drivers/mmc/built-in.o
 .text.mmc_register
                0x0000000000000000       0x20 drivers/mmc/built-in.o
 .text.mmc_destroy
                0x0000000000000000        0x4 drivers/mmc/built-in.o
 .text.cpu_mmc_init
                0x0000000000000000        0x8 drivers/mmc/built-in.o
 .text.board_mmc_init
                0x0000000000000000        0x8 drivers/mmc/built-in.o
 .text.mmc_set_preinit
                0x0000000000000000        0x8 drivers/mmc/built-in.o
 .rodata.fdt_fixup_esdhc.str1.1
                0x0000000000000000       0x26 drivers/mmc/built-in.o
 .rodata.__func__.9463
                0x0000000000000000        0xd drivers/mmc/built-in.o
 .rodata.mmc_register.str1.1
                0x0000000000000000       0x2d drivers/mmc/built-in.o
 .data          0x0000000000000000        0x0 drivers/mmc/built-in.o
 .bss           0x0000000000000000        0x0 drivers/mmc/built-in.o
 .text          0x0000000000000000        0x0 drivers/mtd/built-in.o
 .text.idr_remove
                0x0000000000000000       0x14 drivers/mtd/built-in.o
 .text.idr_find
                0x0000000000000000       0x14 drivers/mtd/built-in.o
 .text.idr_get_next
                0x0000000000000000       0x44 drivers/mtd/built-in.o
 .text.idr_alloc
                0x0000000000000000       0x3c drivers/mtd/built-in.o
 .text.__mtd_next_device
                0x0000000000000000       0x20 drivers/mtd/built-in.o
 .text.del_mtd_device
                0x0000000000000000       0x70 drivers/mtd/built-in.o
 .text.__get_mtd_device
                0x0000000000000000       0x38 drivers/mtd/built-in.o
 .text.get_mtd_device
                0x0000000000000000       0x98 drivers/mtd/built-in.o
 .text.get_mtd_device_nm
                0x0000000000000000       0x5c drivers/mtd/built-in.o
 .text.__put_mtd_device
                0x0000000000000000       0x4c drivers/mtd/built-in.o
 .text.put_mtd_device
                0x0000000000000000        0x4 drivers/mtd/built-in.o
 .text.mtd_erase
                0x0000000000000000       0x94 drivers/mtd/built-in.o
 .text.mtd_get_unmapped_area
                0x0000000000000000       0x6c drivers/mtd/built-in.o
 .text.mtd_read
                0x0000000000000000       0xb0 drivers/mtd/built-in.o
 .text.mtd_write
                0x0000000000000000       0x98 drivers/mtd/built-in.o
 .text.mtd_panic_write
                0x0000000000000000       0xa0 drivers/mtd/built-in.o
 .text.mtd_read_oob
                0x0000000000000000       0x60 drivers/mtd/built-in.o
 .text.mtd_get_fact_prot_info
                0x0000000000000000       0x34 drivers/mtd/built-in.o
 .text.mtd_read_fact_prot_reg
                0x0000000000000000       0x40 drivers/mtd/built-in.o
 .text.mtd_get_user_prot_info
                0x0000000000000000       0x34 drivers/mtd/built-in.o
 .text.mtd_read_user_prot_reg
                0x0000000000000000       0x40 drivers/mtd/built-in.o
 .text.mtd_write_user_prot_reg
                0x0000000000000000       0x64 drivers/mtd/built-in.o
 .text.mtd_lock_user_prot_reg
                0x0000000000000000       0x38 drivers/mtd/built-in.o
 .text.mtd_lock
                0x0000000000000000       0x7c drivers/mtd/built-in.o
 .text.mtd_unlock
                0x0000000000000000       0x7c drivers/mtd/built-in.o
 .text.add_mtd_device
                0x0000000000000000      0x1d0 drivers/mtd/built-in.o
 .text.mtd_is_locked
                0x0000000000000000       0x7c drivers/mtd/built-in.o
 .text.mtd_block_isreserved
                0x0000000000000000       0x50 drivers/mtd/built-in.o
 .text.mtd_block_isbad
                0x0000000000000000       0x50 drivers/mtd/built-in.o
 .text.mtd_block_markbad
                0x0000000000000000       0x64 drivers/mtd/built-in.o
 .rodata.__put_mtd_device.str1.1
                0x0000000000000000       0x2c drivers/mtd/built-in.o
 .rodata.add_mtd_device.str1.1
                0x0000000000000000       0x28 drivers/mtd/built-in.o
 .rodata.del_mtd_device.str1.1
                0x0000000000000000       0x30 drivers/mtd/built-in.o
 .data          0x0000000000000000        0x0 drivers/mtd/built-in.o
 .bss           0x0000000000000000        0x0 drivers/mtd/built-in.o
 .bss.mtd_idr   0x0000000000000000      0x200 drivers/mtd/built-in.o
 .bss.mtd_table
                0x0000000000000000       0x80 drivers/mtd/built-in.o
 .text          0x0000000000000000        0x0 drivers/mtd/spi/built-in.o
 .data          0x0000000000000000        0x0 drivers/mtd/spi/built-in.o
 .bss           0x0000000000000000        0x0 drivers/mtd/spi/built-in.o
 .text          0x0000000000000000        0x0 drivers/net/built-in.o
 .data          0x0000000000000000        0x0 drivers/net/built-in.o
 .bss           0x0000000000000000        0x0 drivers/net/built-in.o
 .text          0x0000000000000000        0x0 drivers/net/phy/built-in.o
 .text.phy_set_supported
                0x0000000000000000       0x5c drivers/net/phy/built-in.o
 .text.miiphy_reset
                0x0000000000000000       0x24 drivers/net/phy/built-in.o
 .text.phy_connect
                0x0000000000000000       0x50 drivers/net/phy/built-in.o
 .text.board_phy_config
                0x0000000000000000       0x1c drivers/net/phy/built-in.o
 .text.phy_shutdown
                0x0000000000000000       0x28 drivers/net/phy/built-in.o
 .text.phy_get_interface_by_name
                0x0000000000000000       0x40 drivers/net/phy/built-in.o
 .rodata.phy_connect.str1.1
                0x0000000000000000       0x23 drivers/net/phy/built-in.o
 .rodata.phy_interface_strings
                0x0000000000000000       0x38 drivers/net/phy/built-in.o
 .data          0x0000000000000000        0x0 drivers/net/phy/built-in.o
 .bss           0x0000000000000000        0x0 drivers/net/phy/built-in.o
 .text          0x0000000000000000        0x0 drivers/power/built-in.o
 .text.pmic_set_output
                0x0000000000000000       0x60 drivers/power/built-in.o
 .text.pmic_alloc
                0x0000000000000000       0x58 drivers/power/built-in.o
 .text.pmic_probe
                0x0000000000000000       0x38 drivers/power/built-in.o
 .rodata.__func__.7634
                0x0000000000000000        0xb drivers/power/built-in.o
 .rodata.pmic_alloc.str1.1
                0x0000000000000000       0x29 drivers/power/built-in.o
 .rodata.pmic_probe.str1.1
                0x0000000000000000       0x14 drivers/power/built-in.o
 .data          0x0000000000000000        0x0 drivers/power/built-in.o
 .bss           0x0000000000000000        0x0 drivers/power/built-in.o
 .text          0x0000000000000000        0x0 drivers/power/pmic/built-in.o
 .text.power_pfuze3000_init
                0x0000000000000000       0x64 drivers/power/pmic/built-in.o
 .rodata.__func__.7606
                0x0000000000000000       0x15 drivers/power/pmic/built-in.o
 .rodata.name.7604
                0x0000000000000000        0xa drivers/power/pmic/built-in.o
 .rodata.power_pfuze3000_init.str1.1
                0x0000000000000000       0x1d drivers/power/pmic/built-in.o
 .data          0x0000000000000000        0x0 drivers/power/pmic/built-in.o
 .bss           0x0000000000000000        0x0 drivers/power/pmic/built-in.o
 .comment       0x0000000000000000       0x31 drivers/power/pmic/built-in.o
 .note.GNU-stack
                0x0000000000000000        0x0 drivers/power/pmic/built-in.o
 .ARM.attributes
                0x0000000000000000       0x2d drivers/power/pmic/built-in.o
 .debug_aranges
                0x0000000000000000       0x20 drivers/power/pmic/built-in.o
 .debug_info    0x0000000000000000      0xf04 drivers/power/pmic/built-in.o
 .debug_abbrev  0x0000000000000000      0x266 drivers/power/pmic/built-in.o
 .debug_line    0x0000000000000000      0x179 drivers/power/pmic/built-in.o
 .debug_frame   0x0000000000000000       0x28 drivers/power/pmic/built-in.o
 .debug_str     0x0000000000000000      0xdbe drivers/power/pmic/built-in.o
 .debug_loc     0x0000000000000000       0x55 drivers/power/pmic/built-in.o
 .debug_ranges  0x0000000000000000       0x10 drivers/power/pmic/built-in.o
 .text          0x0000000000000000        0x0 drivers/serial/built-in.o
 .text.serial_reinit_all
                0x0000000000000000       0x28 drivers/serial/built-in.o
 .data          0x0000000000000000        0x0 drivers/serial/built-in.o
 .bss           0x0000000000000000        0x0 drivers/serial/built-in.o
 .text          0x0000000000000000        0x0 drivers/spi/built-in.o
 .text.spi_set_wordlen
                0x0000000000000000       0x30 drivers/spi/built-in.o
 .text.spi_init
                0x0000000000000000        0x4 drivers/spi/built-in.o
 .rodata.spi_set_wordlen.str1.1
                0x0000000000000000       0x19 drivers/spi/built-in.o
 .data          0x0000000000000000        0x0 drivers/spi/built-in.o
 .bss           0x0000000000000000        0x0 drivers/spi/built-in.o
 .text          0x0000000000000000        0x0 drivers/usb/eth/built-in.o
 .text.is_eth_dev_on_usb_host
                0x0000000000000000       0x6c drivers/usb/eth/built-in.o
 .data          0x0000000000000000        0x0 drivers/usb/eth/built-in.o
 .bss           0x0000000000000000        0x0 drivers/usb/eth/built-in.o
 .text          0x0000000000000000        0x0 drivers/usb/host/built-in.o
 .text.ehci_set_controller_priv
                0x0000000000000000       0xa8 drivers/usb/host/built-in.o
 .text.ehci_get_controller_priv
                0x0000000000000000       0x18 drivers/usb/host/built-in.o
 .text.create_int_queue
                0x0000000000000000        0x4 drivers/usb/host/built-in.o
 .text.poll_int_queue
                0x0000000000000000        0x4 drivers/usb/host/built-in.o
 .text.destroy_int_queue
                0x0000000000000000        0x4 drivers/usb/host/built-in.o
 .text.board_usb_phy_mode
                0x0000000000000000        0x4 drivers/usb/host/built-in.o
 .text.board_ehci_hcd_init
                0x0000000000000000        0x8 drivers/usb/host/built-in.o
 .data          0x0000000000000000        0x0 drivers/usb/host/built-in.o
 .bss           0x0000000000000000        0x0 drivers/usb/host/built-in.o
 .text          0x0000000000000000        0x0 fs/built-in.o
 .text.fs_uuid  0x0000000000000000       0x28 fs/built-in.o
 .text.do_fs_uuid
                0x0000000000000000       0x8c fs/built-in.o
 .text.print_revoke_blks
                0x0000000000000000       0x50 fs/built-in.o
 .text.fat_register_device
                0x0000000000000000       0x88 fs/built-in.o
 .text.file_fat_read
                0x0000000000000000       0x38 fs/built-in.o
 .text.file_getfsname
                0x0000000000000000       0x14 fs/built-in.o
 .text.file_cd  0x0000000000000000      0x1c8 fs/built-in.o
 .text.file_detectfs
                0x0000000000000000       0x40 fs/built-in.o
 .text.file_ls  0x0000000000000000       0x94 fs/built-in.o
 .text.file_read
                0x0000000000000000       0xa4 fs/built-in.o
 .rodata.print_revoke_blks.str1.1
                0x0000000000000000       0x25 fs/built-in.o
 .rodata.fat_register_device.str1.1
                0x0000000000000000       0x2b fs/built-in.o
 .rodata.file_detectfs.str1.1
                0x0000000000000000        0x2 fs/built-in.o
 .rodata.file_ls.str1.1
                0x0000000000000000       0x2e fs/built-in.o
 .rodata.file_read.str1.1
                0x0000000000000000       0x27 fs/built-in.o
 .rodata.filesystems
                0x0000000000000000       0x18 fs/built-in.o
 .data          0x0000000000000000        0x0 fs/built-in.o
 .data.current_filesystem
                0x0000000000000000        0x4 fs/built-in.o
 .data.file_cwd
                0x0000000000000000      0x200 fs/built-in.o
 .bss           0x0000000000000000        0x0 fs/built-in.o
 .bss.ext4fs_symlinknest
                0x0000000000000000        0x4 fs/built-in.o
 .text          0x0000000000000000        0x0 lib/built-in.o
 .text.inflateInit_
                0x0000000000000000       0x10 lib/built-in.o
 .text.fdt_first_subnode
                0x0000000000000000       0x34 lib/built-in.o
 .text.fdt_next_subnode
                0x0000000000000000       0x50 lib/built-in.o
 .text.fdt_get_phandle
                0x0000000000000000       0x70 lib/built-in.o
 .text.fdt_get_alias
                0x0000000000000000       0x28 lib/built-in.o
 .text.fdt_get_path
                0x0000000000000000      0x138 lib/built-in.o
 .text.fdt_parent_offset
                0x0000000000000000       0x30 lib/built-in.o
 .text.fdt_node_offset_by_prop_value
                0x0000000000000000       0x98 lib/built-in.o
 .text.fdt_node_offset_by_phandle
                0x0000000000000000       0x6c lib/built-in.o
 .text.fdt_stringlist_contains
                0x0000000000000000       0x7c lib/built-in.o
 .text.fdt_count_strings
                0x0000000000000000       0x58 lib/built-in.o
 .text.fdt_find_string
                0x0000000000000000       0x88 lib/built-in.o
 .text.fdt_get_string_index
                0x0000000000000000       0x64 lib/built-in.o
 .text.fdt_get_string
                0x0000000000000000       0x18 lib/built-in.o
 .text.fdt_node_check_compatible
                0x0000000000000000       0x40 lib/built-in.o
 .text.fdt_node_offset_by_compatible
                0x0000000000000000       0x74 lib/built-in.o
 .text.fdt_set_name
                0x0000000000000000       0x88 lib/built-in.o
 .text.fdt_appendprop
                0x0000000000000000       0xdc lib/built-in.o
 .text.fdt_pack
                0x0000000000000000       0x5c lib/built-in.o
 .text.fdt_remove_unused_strings
                0x0000000000000000       0xb0 lib/built-in.o
 .text._fdt_sw_check_header
                0x0000000000000000       0x1c lib/built-in.o
 .text._fdt_grab_space
                0x0000000000000000       0x60 lib/built-in.o
 .text.fdt_create
                0x0000000000000000       0x64 lib/built-in.o
 .text.fdt_resize
                0x0000000000000000       0xbc lib/built-in.o
 .text.fdt_add_reservemap_entry
                0x0000000000000000       0x8c lib/built-in.o
 .text.fdt_finish_reservemap
                0x0000000000000000       0x1c lib/built-in.o
 .text.fdt_begin_node
                0x0000000000000000       0x64 lib/built-in.o
 .text.fdt_end_node
                0x0000000000000000       0x38 lib/built-in.o
 .text.fdt_property
                0x0000000000000000      0x114 lib/built-in.o
 .text.fdt_finish
                0x0000000000000000      0x100 lib/built-in.o
 .text.fdt_setprop_inplace
                0x0000000000000000       0x44 lib/built-in.o
 .text.fdt_nop_property
                0x0000000000000000       0x40 lib/built-in.o
 .text.fdt_nop_node
                0x0000000000000000       0x50 lib/built-in.o
 .text.fdt_find_regions
                0x0000000000000000      0x388 lib/built-in.o
 .text.fdt_create_empty_tree
                0x0000000000000000       0x74 lib/built-in.o
 .text.fdt_add_region
                0x0000000000000000       0x98 lib/built-in.o
 .text.fdt_add_alias_regions
                0x0000000000000000      0x18c lib/built-in.o
 .text.fdt_next_region
                0x0000000000000000      0x534 lib/built-in.o
 .text.fdt_first_region
                0x0000000000000000       0x48 lib/built-in.o
 .text.crc7     0x0000000000000000       0x24 lib/built-in.o
 .text.crc8     0x0000000000000000       0x40 lib/built-in.o
 .text.lmb_dump_all
                0x0000000000000000        0x4 lib/built-in.o
 .text.lmb_is_reserved
                0x0000000000000000       0x58 lib/built-in.o
 .text.arch_lmb_reserve
                0x0000000000000000        0x4 lib/built-in.o
 .text.ldiv     0x0000000000000000       0x3c lib/built-in.o
 .text.rc4_encode
                0x0000000000000000       0xe8 lib/built-in.o
 .text.strmhz   0x0000000000000000       0x64 lib/built-in.o
 .text.merge    0x0000000000000000       0x68 lib/built-in.o
 .text.list_sort
                0x0000000000000000      0x194 lib/built-in.o
 .text.print_freq
                0x0000000000000000      0x1a8 lib/built-in.o
 .text.crc32_wd_buf
                0x0000000000000000       0x38 lib/built-in.o
 .text.copy_from_user
                0x0000000000000000       0x10 lib/built-in.o
 .text.kmalloc  0x0000000000000000       0x38 lib/built-in.o
 .text.get_mem  0x0000000000000000       0x1c lib/built-in.o
 .text.kmem_cache_alloc
                0x0000000000000000        0xc lib/built-in.o
 .text.membuff_purge
                0x0000000000000000       0x10 lib/built-in.o
 .text.membuff_putraw
                0x0000000000000000       0xc0 lib/built-in.o
 .text.membuff_putbyte
                0x0000000000000000       0x30 lib/built-in.o
 .text.membuff_getraw
                0x0000000000000000       0x98 lib/built-in.o
 .text.membuff_getbyte
                0x0000000000000000       0x34 lib/built-in.o
 .text.membuff_peekbyte
                0x0000000000000000       0x30 lib/built-in.o
 .text.membuff_get
                0x0000000000000000       0x88 lib/built-in.o
 .text.membuff_put
                0x0000000000000000       0x6c lib/built-in.o
 .text.membuff_isempty
                0x0000000000000000       0x18 lib/built-in.o
 .text.membuff_avail
                0x0000000000000000       0x54 lib/built-in.o
 .text.membuff_size
                0x0000000000000000        0xc lib/built-in.o
 .text.membuff_makecontig
                0x0000000000000000       0x80 lib/built-in.o
 .text.membuff_free
                0x0000000000000000       0x30 lib/built-in.o
 .text.membuff_readline
                0x0000000000000000       0xb0 lib/built-in.o
 .text.membuff_extend_by
                0x0000000000000000       0xc4 lib/built-in.o
 .text.membuff_init
                0x0000000000000000       0x18 lib/built-in.o
 .text.membuff_new
                0x0000000000000000       0x38 lib/built-in.o
 .text.membuff_uninit
                0x0000000000000000       0x18 lib/built-in.o
 .text.membuff_dispose
                0x0000000000000000       0x24 lib/built-in.o
 .text.strncasecmp
                0x0000000000000000       0x80 lib/built-in.o
 .text.strcasecmp
                0x0000000000000000        0x8 lib/built-in.o
 .text.strsep   0x0000000000000000       0x38 lib/built-in.o
 .text.strswab  0x0000000000000000       0x48 lib/built-in.o
 .text.bcopy    0x0000000000000000       0x28 lib/built-in.o
 .text.memscan  0x0000000000000000       0x28 lib/built-in.o
 .text.memchr_inv
                0x0000000000000000      0x108 lib/built-in.o
 .text.tick_to_time
                0x0000000000000000       0x64 lib/built-in.o
 .text.get_ticks
                0x0000000000000000       0x2c lib/built-in.o
 .text.timer_init
                0x0000000000000000        0x8 lib/built-in.o
 .text.get_timer
                0x0000000000000000       0x18 lib/built-in.o
 .text.timer_get_us
                0x0000000000000000       0x24 lib/built-in.o
 .text.__udelay
                0x0000000000000000       0xb8 lib/built-in.o
 .text.vsnprintf
                0x0000000000000000        0x4 lib/built-in.o
 .text.scnprintf
                0x0000000000000000       0x28 lib/built-in.o
 .text.__assert_fail
                0x0000000000000000       0x14 lib/built-in.o
 .text.print_grouped_ull
                0x0000000000000000       0x8c lib/built-in.o
 .text.str2long
                0x0000000000000000       0x3c lib/built-in.o
 .text.panic_str
                0x0000000000000000        0xc lib/built-in.o
 .rodata.z_errmsg
                0x0000000000000000       0x28 lib/built-in.o
 .rodata.fdt_get_phandle.str1.1
                0x0000000000000000       0x16 lib/built-in.o
 .rodata.fdt_node_check_compatible.str1.1
                0x0000000000000000        0xb lib/built-in.o
 .rodata.fdt_create_empty_tree.str1.1
                0x0000000000000000        0x1 lib/built-in.o
 .rodata.fdt_add_alias_regions.str1.1
                0x0000000000000000        0x8 lib/built-in.o
 .rodata.crc7_syndrome_table
                0x0000000000000000      0x100 lib/built-in.o
 .rodata.strmhz.str1.1
                0x0000000000000000        0xb lib/built-in.o
 .rodata.list_sort.str1.1
                0x0000000000000000       0x34 lib/built-in.o
 .rodata.names.7403
                0x0000000000000000        0x3 lib/built-in.o
 .rodata.__assert_fail.str1.1
                0x0000000000000000       0x22 lib/built-in.o
 .rodata.print_grouped_ull.str1.1
                0x0000000000000000        0xb lib/built-in.o
 .data          0x0000000000000000        0x0 lib/built-in.o
 .data.cur      0x0000000000000000        0x4 lib/built-in.o
 .data.current  0x0000000000000000        0x4 lib/built-in.o
 .bss           0x0000000000000000        0x0 lib/built-in.o
 .text          0x0000000000000000        0x0 net/built-in.o
 .text.add_ip_checksums
                0x0000000000000000       0x3c net/built-in.o
 .text.eth_is_active
                0x0000000000000000       0x18 net/built-in.o
 .text.net_get_udp_handler
                0x0000000000000000       0x10 net/built-in.o
 .text.net_set_arp_handler
                0x0000000000000000       0x20 net/built-in.o
 .text.random_port
                0x0000000000000000       0x18 net/built-in.o
 .text.vlan_to_string
                0x0000000000000000       0x44 net/built-in.o
 .text.getenv_vlan
                0x0000000000000000       0x10 net/built-in.o
 .rodata.vlan_to_string.str1.1
                0x0000000000000000        0x8 net/built-in.o
 .data          0x0000000000000000        0x0 net/built-in.o
 .data.tftp_timeout_ms
                0x0000000000000000        0x4 net/built-in.o
 .bss           0x0000000000000000        0x0 net/built-in.o
 .bss.net_busy_flag
                0x0000000000000000        0x4 net/built-in.o
 .text          0x0000000000000000        0x0 test/dm/built-in.o
 .data          0x0000000000000000        0x0 test/dm/built-in.o
 .bss           0x0000000000000000        0x0 test/dm/built-in.o
 .text          0x0000000000000000        0x0 arch/arm/lib/eabi_compat.o
 .data          0x0000000000000000        0x0 arch/arm/lib/eabi_compat.o
 .bss           0x0000000000000000        0x0 arch/arm/lib/eabi_compat.o
 .text.__aeabi_unwind_cpp_pr0
                0x0000000000000000        0x4 arch/arm/lib/eabi_compat.o
 .text.__aeabi_unwind_cpp_pr1
                0x0000000000000000        0x4 arch/arm/lib/eabi_compat.o
 .text.__aeabi_memcpy
                0x0000000000000000        0x4 arch/arm/lib/eabi_compat.o
 .text.__aeabi_memset
                0x0000000000000000       0x10 arch/arm/lib/eabi_compat.o
 .data          0x0000000000000000        0x0 /usr/lib/gcc-cross/arm-linux-gnueabihf/7/libgcc.a(_udivsi3.o)
 .bss           0x0000000000000000        0x0 /usr/lib/gcc-cross/arm-linux-gnueabihf/7/libgcc.a(_udivsi3.o)
 .data          0x0000000000000000        0x0 /usr/lib/gcc-cross/arm-linux-gnueabihf/7/libgcc.a(_divsi3.o)
 .bss           0x0000000000000000        0x0 /usr/lib/gcc-cross/arm-linux-gnueabihf/7/libgcc.a(_divsi3.o)
 .data          0x0000000000000000        0x0 /usr/lib/gcc-cross/arm-linux-gnueabihf/7/libgcc.a(_dvmd_lnx.o)
 .bss           0x0000000000000000        0x0 /usr/lib/gcc-cross/arm-linux-gnueabihf/7/libgcc.a(_dvmd_lnx.o)

Memory Configuration

Name             Origin             Length             Attributes
*default*        0x0000000000000000 0xffffffffffffffff

Linker script and memory map

Address of section .text set to 0x87800000
                0x0000000000000000                . = 0x0
                0x0000000000000000                . = ALIGN (0x4)

.text           0x0000000087800000    0x3f03c
 *(.__image_copy_start)
 .__image_copy_start
                0x0000000087800000        0x0 arch/arm/lib/built-in.o
                0x0000000087800000                __image_copy_start
 *(.vectors)
 .vectors       0x0000000087800000      0x2e8 arch/arm/lib/built-in.o
                0x0000000087800000                _start
                0x0000000087800020                _undefined_instruction
                0x0000000087800024                _software_interrupt
                0x0000000087800028                _prefetch_abort
                0x000000008780002c                _data_abort
                0x0000000087800030                _not_used
                0x0000000087800034                _irq
                0x0000000087800038                _fiq
                0x0000000087800040                IRQ_STACK_START_IN
 arch/arm/cpu/armv7/start.o(.text*)
 .text          0x00000000878002e8       0xb0 arch/arm/cpu/armv7/start.o
                0x00000000878002e8                reset
                0x00000000878002ec                save_boot_params_ret
                0x0000000087800328                c_runtime_cpu_setup
                0x0000000087800338                save_boot_params
                0x000000008780033c                cpu_init_cp15
                0x0000000087800390                cpu_init_crit
 *(.text*)
 .text          0x0000000087800398       0x24 arch/arm/cpu/armv7/built-in.o
                0x0000000087800398                lowlevel_init
 .text.v7_maint_dcache_all
                0x00000000878003bc      0x11c arch/arm/cpu/armv7/built-in.o
 .text.invalidate_icache_all
                0x00000000878004d8       0x18 arch/arm/cpu/armv7/built-in.o
                0x00000000878004d8                invalidate_icache_all
 .text.v7_outer_cache_enable
                0x00000000878004f0        0x4 arch/arm/cpu/armv7/built-in.o
                0x00000000878004f0                v7_outer_cache_enable
 .text.v7_outer_cache_disable
                0x00000000878004f4        0x4 arch/arm/cpu/armv7/built-in.o
                0x00000000878004f4                v7_outer_cache_disable
 .text.v7_outer_cache_flush_all
                0x00000000878004f8        0x4 arch/arm/cpu/armv7/built-in.o
                0x00000000878004f8                v7_outer_cache_flush_all
 .text.flush_dcache_all
                0x00000000878004fc       0x14 arch/arm/cpu/armv7/built-in.o
                0x00000000878004fc                flush_dcache_all
 .text.v7_outer_cache_inval_all
                0x0000000087800510        0x4 arch/arm/cpu/armv7/built-in.o
                0x0000000087800510                v7_outer_cache_inval_all
 .text.invalidate_dcache_all
                0x0000000087800514       0x14 arch/arm/cpu/armv7/built-in.o
                0x0000000087800514                invalidate_dcache_all
 .text.arm_init_before_mmu
                0x0000000087800528       0x28 arch/arm/cpu/armv7/built-in.o
                0x0000000087800528                arm_init_before_mmu
 .text.v7_outer_cache_flush_range
                0x0000000087800550        0x4 arch/arm/cpu/armv7/built-in.o
                0x0000000087800550                v7_outer_cache_flush_range
 .text.flush_dcache_range
                0x0000000087800554       0x38 arch/arm/cpu/armv7/built-in.o
                0x0000000087800554                flush_dcache_range
 .text.mmu_page_table_flush
                0x000000008780058c       0x24 arch/arm/cpu/armv7/built-in.o
                0x000000008780058c                mmu_page_table_flush
 .text.v7_outer_cache_inval_range
                0x00000000878005b0        0x4 arch/arm/cpu/armv7/built-in.o
                0x00000000878005b0                v7_outer_cache_inval_range
 .text.invalidate_dcache_range
                0x00000000878005b4       0xa8 arch/arm/cpu/armv7/built-in.o
                0x00000000878005b4                invalidate_dcache_range
 .text.cpu_cache_initialization
                0x000000008780065c        0x4 arch/arm/cpu/armv7/built-in.o
                0x000000008780065c                cpu_cache_initialization
 .text.cleanup_before_linux_select
                0x0000000087800660       0x4c arch/arm/cpu/armv7/built-in.o
                0x0000000087800660                cleanup_before_linux_select
 .text.cleanup_before_linux
                0x00000000878006ac        0x8 arch/arm/cpu/armv7/built-in.o
                0x00000000878006ac                cleanup_before_linux
 .text.get_cpu_rev
                0x00000000878006b4       0x90 arch/arm/cpu/armv7/built-in.o
                0x00000000878006b4                get_cpu_rev
 .text.get_cpu_speed_grade_hz
                0x0000000087800744      0x120 arch/arm/cpu/armv7/built-in.o
                0x0000000087800744                get_cpu_speed_grade_hz
 .text.get_cpu_temp_grade
                0x0000000087800864       0x68 arch/arm/cpu/armv7/built-in.o
                0x0000000087800864                get_cpu_temp_grade
 .text.get_board_rev
                0x00000000878008cc       0x40 arch/arm/cpu/armv7/built-in.o
                0x00000000878008cc                get_board_rev
 .text.arch_cpu_init
                0x000000008780090c      0x364 arch/arm/cpu/armv7/built-in.o
                0x000000008780090c                arch_cpu_init
 .text.mmc_get_env_dev
                0x0000000087800c70       0x28 arch/arm/cpu/armv7/built-in.o
                0x0000000087800c70                mmc_get_env_dev
 .text.board_mmc_get_env_part
                0x0000000087800c98        0x8 arch/arm/cpu/armv7/built-in.o
                0x0000000087800c98                board_mmc_get_env_part
 .text.mmc_get_env_part
                0x0000000087800ca0       0x28 arch/arm/cpu/armv7/built-in.o
                0x0000000087800ca0                mmc_get_env_part
 .text.board_postclk_init
                0x0000000087800cc8       0x70 arch/arm/cpu/armv7/built-in.o
                0x0000000087800cc8                board_postclk_init
 .text.imx_get_mac_from_fuse
                0x0000000087800d38       0xb8 arch/arm/cpu/armv7/built-in.o
                0x0000000087800d38                imx_get_mac_from_fuse
 .text.set_wdog_reset
                0x0000000087800df0       0x18 arch/arm/cpu/armv7/built-in.o
                0x0000000087800df0                set_wdog_reset
 .text.reset_misc
                0x0000000087800e08        0x4 arch/arm/cpu/armv7/built-in.o
                0x0000000087800e08                reset_misc
 .text.s_init   0x0000000087800e0c       0xac arch/arm/cpu/armv7/built-in.o
                0x0000000087800e0c                s_init
 .text.disable_lcdif_clock
                0x0000000087800eb8      0x1fc arch/arm/cpu/armv7/built-in.o
 .text.get_ipg_clk
                0x00000000878010b4       0x28 arch/arm/cpu/armv7/built-in.o
 .text.enable_pll_video.constprop.0
                0x00000000878010dc       0xec arch/arm/cpu/armv7/built-in.o
 .text.get_uart_clk
                0x00000000878011c8       0xd8 arch/arm/cpu/armv7/built-in.o
 .text.mxc_get_pll_pfd
                0x00000000878012a0       0xa8 arch/arm/cpu/armv7/built-in.o
 .text.get_usdhc_clk
                0x0000000087801348       0xb8 arch/arm/cpu/armv7/built-in.o
 .text.enable_ocotp_clk
                0x0000000087801400       0x24 arch/arm/cpu/armv7/built-in.o
                0x0000000087801400                enable_ocotp_clk
 .text.enable_usboh3_clk
                0x0000000087801424       0x24 arch/arm/cpu/armv7/built-in.o
                0x0000000087801424                enable_usboh3_clk
 .text.enable_enet_clk
                0x0000000087801448       0x64 arch/arm/cpu/armv7/built-in.o
                0x0000000087801448                enable_enet_clk
 .text.enable_i2c_clk
                0x00000000878014ac       0xd8 arch/arm/cpu/armv7/built-in.o
                0x00000000878014ac                enable_i2c_clk
 .text.get_periph_clk
                0x0000000087801584       0xc8 arch/arm/cpu/armv7/built-in.o
                0x0000000087801584                get_periph_clk
 .text.get_axi_clk
                0x000000008780164c       0x4c arch/arm/cpu/armv7/built-in.o
 .text.enable_lcdif_clock
                0x0000000087801698      0x258 arch/arm/cpu/armv7/built-in.o
                0x0000000087801698                enable_lcdif_clock
 .text.mxs_set_lcdclk
                0x00000000878018f0      0x388 arch/arm/cpu/armv7/built-in.o
                0x00000000878018f0                mxs_set_lcdclk
 .text.enable_qspi_clk
                0x0000000087801c78       0x98 arch/arm/cpu/armv7/built-in.o
                0x0000000087801c78                enable_qspi_clk
 .text.enable_fec_anatop_clock
                0x0000000087801d10       0xe0 arch/arm/cpu/armv7/built-in.o
                0x0000000087801d10                enable_fec_anatop_clock
 .text.imx_get_uartclk
                0x0000000087801df0        0x4 arch/arm/cpu/armv7/built-in.o
                0x0000000087801df0                imx_get_uartclk
 .text.enable_thermal_clk
                0x0000000087801df4       0x44 arch/arm/cpu/armv7/built-in.o
                0x0000000087801df4                enable_thermal_clk
 .text.mxc_get_clock
                0x0000000087801e38      0x4b8 arch/arm/cpu/armv7/built-in.o
                0x0000000087801e38                mxc_get_clock
 .text.imx_get_fecclk
                0x00000000878022f0        0x8 arch/arm/cpu/armv7/built-in.o
                0x00000000878022f0                imx_get_fecclk
 .text.do_mx6_showclocks
                0x00000000878022f8      0x230 arch/arm/cpu/armv7/built-in.o
                0x00000000878022f8                do_mx6_showclocks
 .text.imx_iomux_v3_setup_pad
                0x0000000087802528      0x128 arch/arm/imx-common/built-in.o
                0x0000000087802528                imx_iomux_v3_setup_pad
 .text.imx_iomux_v3_setup_multiple_pads
                0x0000000087802650       0x28 arch/arm/imx-common/built-in.o
                0x0000000087802650                imx_iomux_v3_setup_multiple_pads
 .text.imx_ddr_size
                0x0000000087802678       0x64 arch/arm/imx-common/built-in.o
                0x0000000087802678                imx_ddr_size
 .text.get_imx_type
                0x00000000878026dc       0x20 arch/arm/imx-common/built-in.o
                0x00000000878026dc                get_imx_type
 .text.print_cpuinfo
                0x00000000878026fc      0x228 arch/arm/imx-common/built-in.o
                0x00000000878026fc                print_cpuinfo
 .text.cpu_eth_init
                0x0000000087802924        0x4 arch/arm/imx-common/built-in.o
                0x0000000087802924                cpu_eth_init
 .text.cpu_mmc_init
                0x0000000087802928        0x4 arch/arm/imx-common/built-in.o
                0x0000000087802928                cpu_mmc_init
 .text.get_ahb_clk
                0x000000008780292c       0x24 arch/arm/imx-common/built-in.o
                0x000000008780292c                get_ahb_clk
 .text.arch_preboot_os
                0x0000000087802950        0x4 arch/arm/imx-common/built-in.o
                0x0000000087802950                arch_preboot_os
 .text.get_clocks
                0x0000000087802954       0x1c arch/arm/imx-common/built-in.o
                0x0000000087802954                get_clocks
 .text.force_idle_bus
                0x0000000087802970      0x1c4 arch/arm/imx-common/built-in.o
                0x0000000087802970                force_idle_bus
 .text.setup_i2c
                0x0000000087802b34       0xdc arch/arm/imx-common/built-in.o
                0x0000000087802b34                setup_i2c
 .text.mxs_wait_mask_set
                0x0000000087802c10       0x3c arch/arm/imx-common/built-in.o
                0x0000000087802c10                mxs_wait_mask_set
 .text.mxs_wait_mask_clr
                0x0000000087802c4c       0x3c arch/arm/imx-common/built-in.o
                0x0000000087802c4c                mxs_wait_mask_clr
 .text.mxs_reset_block
                0x0000000087802c88       0x90 arch/arm/imx-common/built-in.o
                0x0000000087802c88                mxs_reset_block
 .text.enable_caches
                0x0000000087802d18       0x34 arch/arm/imx-common/built-in.o
                0x0000000087802d18                enable_caches
 .text.init_aips
                0x0000000087802d4c       0xc0 arch/arm/imx-common/built-in.o
                0x0000000087802d4c                init_aips
 .text.imx_set_wdog_powerdown
                0x0000000087802e0c       0xa0 arch/arm/imx-common/built-in.o
                0x0000000087802e0c                imx_set_wdog_powerdown
 .text.init_src
                0x0000000087802eac       0x18 arch/arm/imx-common/built-in.o
                0x0000000087802eac                init_src
 .text.boot_mode_apply
                0x0000000087802ec4       0x24 arch/arm/imx-common/built-in.o
                0x0000000087802ec4                boot_mode_apply
 .text.board_video_skip
                0x0000000087802ee8      0x1b4 arch/arm/imx-common/built-in.o
                0x0000000087802ee8                board_video_skip
 .text.timer_init
                0x000000008780309c       0x3c arch/arm/imx-common/built-in.o
                0x000000008780309c                timer_init
 .text.get_ticks
                0x00000000878030d8       0x18 arch/arm/imx-common/built-in.o
                0x00000000878030d8                get_ticks
 .text.get_timer_masked
                0x00000000878030f0       0x58 arch/arm/imx-common/built-in.o
                0x00000000878030f0                get_timer_masked
 .text.get_timer
                0x0000000087803148       0x14 arch/arm/imx-common/built-in.o
                0x0000000087803148                get_timer
 *fill*         0x000000008780315c        0x4 
 .text.__udelay
                0x0000000087803160       0x90 arch/arm/imx-common/built-in.o
                0x0000000087803160                __udelay
 .text.get_tbclk
                0x00000000878031f0        0x8 arch/arm/imx-common/built-in.o
                0x00000000878031f0                get_tbclk
 .text.create_usage
                0x00000000878031f8       0xa4 arch/arm/imx-common/built-in.o
 .text.do_boot_mode
                0x000000008780329c       0xf0 arch/arm/imx-common/built-in.o
 .text.add_board_boot_modes
                0x000000008780338c       0x60 arch/arm/imx-common/built-in.o
                0x000000008780338c                add_board_boot_modes
 .text          0x00000000878033ec       0x90 arch/arm/lib/built-in.o
                0x00000000878033ec                _main
 .text.relocate_vectors
                0x000000008780347c       0x70 arch/arm/lib/built-in.o
                0x000000008780347c                relocate_vectors
                0x0000000087803488                relocate_code
 .text.arch_fixup_fdt
                0x00000000878034ec       0x34 arch/arm/lib/built-in.o
                0x00000000878034ec                arch_fixup_fdt
 .text.boot_jump_linux
                0x0000000087803520       0xc4 arch/arm/lib/built-in.o
 .text.arch_lmb_reserve
                0x00000000878035e4       0x24 arch/arm/lib/built-in.o
                0x00000000878035e4                arch_lmb_reserve
 .text.setup_board_tags
                0x0000000087803608        0x4 arch/arm/lib/built-in.o
                0x0000000087803608                setup_board_tags
 .text.boot_prep_linux
                0x000000008780360c      0x1b8 arch/arm/lib/built-in.o
 .text.do_bootm_linux
                0x00000000878037c4       0x58 arch/arm/lib/built-in.o
                0x00000000878037c4                do_bootm_linux
 .text.bootz_setup
                0x000000008780381c       0x58 arch/arm/lib/built-in.o
                0x000000008780381c                bootz_setup
 .text.boot_prep_vxworks
                0x0000000087803874       0x50 arch/arm/lib/built-in.o
                0x0000000087803874                boot_prep_vxworks
 .text.boot_jump_vxworks
                0x00000000878038c4        0xc arch/arm/lib/built-in.o
                0x00000000878038c4                boot_jump_vxworks
 .text.arch_reserve_stacks
                0x00000000878038d0       0x1c arch/arm/lib/built-in.o
                0x00000000878038d0                arch_reserve_stacks
 .text.interrupt_init
                0x00000000878038ec       0x1c arch/arm/lib/built-in.o
                0x00000000878038ec                interrupt_init
 .text.enable_interrupts
                0x0000000087803908        0x4 arch/arm/lib/built-in.o
                0x0000000087803908                enable_interrupts
 .text.disable_interrupts
                0x000000008780390c        0x8 arch/arm/lib/built-in.o
                0x000000008780390c                disable_interrupts
 .text.bad_mode
                0x0000000087803914       0x10 arch/arm/lib/built-in.o
                0x0000000087803914                bad_mode
 .text.show_regs
                0x0000000087803924      0x174 arch/arm/lib/built-in.o
                0x0000000087803924                show_regs
 .text.do_undefined_instruction
                0x0000000087803a98       0x20 arch/arm/lib/built-in.o
                0x0000000087803a98                do_undefined_instruction
 .text.do_software_interrupt
                0x0000000087803ab8       0x20 arch/arm/lib/built-in.o
                0x0000000087803ab8                do_software_interrupt
 .text.do_prefetch_abort
                0x0000000087803ad8       0x20 arch/arm/lib/built-in.o
                0x0000000087803ad8                do_prefetch_abort
 .text.do_data_abort
                0x0000000087803af8       0x20 arch/arm/lib/built-in.o
                0x0000000087803af8                do_data_abort
 .text.do_not_used
                0x0000000087803b18       0x20 arch/arm/lib/built-in.o
                0x0000000087803b18                do_not_used
 .text.do_fiq   0x0000000087803b38       0x20 arch/arm/lib/built-in.o
                0x0000000087803b38                do_fiq
 .text.do_irq   0x0000000087803b58       0x20 arch/arm/lib/built-in.o
                0x0000000087803b58                do_irq
 .text.do_reset
                0x0000000087803b78       0x30 arch/arm/lib/built-in.o
                0x0000000087803b78                do_reset
 .text.flush_cache
                0x0000000087803ba8        0x8 arch/arm/lib/built-in.o
                0x0000000087803ba8                flush_cache
 .text.cp_delay
                0x0000000087803bb0       0x30 arch/arm/lib/built-in.o
 .text.cache_disable
                0x0000000087803be0       0x48 arch/arm/lib/built-in.o
 .text.arm_init_domains
                0x0000000087803c28        0x4 arch/arm/lib/built-in.o
                0x0000000087803c28                arm_init_domains
 .text.set_section_dcache
                0x0000000087803c2c       0x14 arch/arm/lib/built-in.o
                0x0000000087803c2c                set_section_dcache
 .text.mmu_set_region_dcache_behaviour
                0x0000000087803c40       0x4c arch/arm/lib/built-in.o
                0x0000000087803c40                mmu_set_region_dcache_behaviour
 .text.dram_bank_mmu_setup
                0x0000000087803c8c       0x40 arch/arm/lib/built-in.o
                0x0000000087803c8c                dram_bank_mmu_setup
 .text.icache_enable
                0x0000000087803ccc       0x18 arch/arm/lib/built-in.o
                0x0000000087803ccc                icache_enable
 .text.icache_disable
                0x0000000087803ce4        0x8 arch/arm/lib/built-in.o
                0x0000000087803ce4                icache_disable
 .text.icache_status
                0x0000000087803cec        0xc arch/arm/lib/built-in.o
                0x0000000087803cec                icache_status
 .text.dcache_enable
                0x0000000087803cf8       0x78 arch/arm/lib/built-in.o
                0x0000000087803cf8                dcache_enable
 .text.dcache_disable
                0x0000000087803d70        0x8 arch/arm/lib/built-in.o
                0x0000000087803d70                dcache_disable
 .text.dcache_status
                0x0000000087803d78        0xc arch/arm/lib/built-in.o
                0x0000000087803d78                dcache_status
 .text.board_late_mmc_env_init
                0x0000000087803d84       0x9c board/freescale/common/built-in.o
                0x0000000087803d84                board_late_mmc_env_init
 .text.do_enable_parallel_lcd
                0x0000000087803e20       0x2c board/freescale/mx6ullevk/built-in.o
                0x0000000087803e20                do_enable_parallel_lcd
 .text.power_init_board
                0x0000000087803e4c        0x8 board/freescale/mx6ullevk/built-in.o
                0x0000000087803e4c                power_init_board
 .text.dram_init
                0x0000000087803e54       0x18 board/freescale/mx6ullevk/built-in.o
                0x0000000087803e54                dram_init
 .text.board_mmc_get_env_dev
                0x0000000087803e6c        0x4 board/freescale/mx6ullevk/built-in.o
                0x0000000087803e6c                board_mmc_get_env_dev
 .text.mmc_map_to_kernel_blk
                0x0000000087803e70        0x4 board/freescale/mx6ullevk/built-in.o
                0x0000000087803e70                mmc_map_to_kernel_blk
 .text.board_mmc_getcd
                0x0000000087803e74       0x44 board/freescale/mx6ullevk/built-in.o
                0x0000000087803e74                board_mmc_getcd
 .text.board_mmc_init
                0x0000000087803eb8       0xb8 board/freescale/mx6ullevk/built-in.o
                0x0000000087803eb8                board_mmc_init
 .text.board_usb_phy_mode
                0x0000000087803f70       0x14 board/freescale/mx6ullevk/built-in.o
                0x0000000087803f70                board_usb_phy_mode
 .text.board_ehci_hcd_init
                0x0000000087803f84       0x28 board/freescale/mx6ullevk/built-in.o
                0x0000000087803f84                board_ehci_hcd_init
 .text.board_eth_init
                0x0000000087803fac       0x60 board/freescale/mx6ullevk/built-in.o
                0x0000000087803fac                board_eth_init
 .text.board_phy_config
                0x000000008780400c       0x4c board/freescale/mx6ullevk/built-in.o
                0x000000008780400c                board_phy_config
 .text.board_early_init_f
                0x0000000087804058       0x1c board/freescale/mx6ullevk/built-in.o
                0x0000000087804058                board_early_init_f
 .text.select_display_dev
                0x0000000087804074      0x170 board/freescale/mx6ullevk/built-in.o
                0x0000000087804074                select_display_dev
 .text.imx6_light_up_led1
                0x00000000878041e4       0x18 board/freescale/mx6ullevk/built-in.o
                0x00000000878041e4                imx6_light_up_led1
 .text.imx6_light_up_led2
                0x00000000878041fc       0x18 board/freescale/mx6ullevk/built-in.o
                0x00000000878041fc                imx6_light_up_led2
 .text.board_init
                0x0000000087804214      0x1a0 board/freescale/mx6ullevk/built-in.o
                0x0000000087804214                board_init
 .text.board_late_init
                0x00000000878043b4       0x50 board/freescale/mx6ullevk/built-in.o
                0x00000000878043b4                board_late_init
 .text.checkboard
                0x0000000087804404       0x18 board/freescale/mx6ullevk/built-in.o
                0x0000000087804404                checkboard
 .text.do_go_exec
                0x000000008780441c       0x10 cmd/built-in.o
                0x000000008780441c                do_go_exec
 .text.do_go    0x000000008780442c       0x6c cmd/built-in.o
 .text.do_bootm
                0x0000000087804498      0x108 cmd/built-in.o
                0x0000000087804498                do_bootm
 .text.do_bootd
                0x00000000878045a0       0x20 cmd/built-in.o
                0x00000000878045a0                do_bootd
 .text.image_info
                0x00000000878045c0       0xcc cmd/built-in.o
 .text.do_iminfo
                0x000000008780468c       0x54 cmd/built-in.o
 .text.bootm_maybe_autostart
                0x00000000878046e0       0x78 cmd/built-in.o
                0x00000000878046e0                bootm_maybe_autostart
 .text.do_bootz
                0x0000000087804758       0xfc cmd/built-in.o
                0x0000000087804758                do_bootz
 .text.do_help  0x0000000087804854       0x44 cmd/built-in.o
 .text.do_version
                0x0000000087804898       0x38 cmd/built-in.o
 .text.source   0x00000000878048d0       0xd8 cmd/built-in.o
                0x00000000878048d0                source
 .text.do_source
                0x00000000878049a8       0x48 cmd/built-in.o
 .text.print_num
                0x00000000878049f0       0x14 cmd/built-in.o
 .text.do_bdinfo
                0x0000000087804a04      0x198 cmd/built-in.o
 .text.do_bmp   0x0000000087804b9c       0x58 cmd/built-in.o
 .text.do_bmp_info
                0x0000000087804bf4      0x10c cmd/built-in.o
 .text.bmp_display
                0x0000000087804d00       0x50 cmd/built-in.o
                0x0000000087804d00                bmp_display
 .text.do_bmp_display
                0x0000000087804d50       0xb8 cmd/built-in.o
 .text.parse_argv
                0x0000000087804e08       0x64 cmd/built-in.o
 .text.do_icache
                0x0000000087804e6c       0x88 cmd/built-in.o
 .text.do_dcache
                0x0000000087804ef4       0x88 cmd/built-in.o
 .text.do_coninfo
                0x0000000087804f7c       0xb0 cmd/built-in.o
 .text.do_echo  0x000000008780502c       0xb4 cmd/built-in.o
 .text.load_elf_image_shdr
                0x00000000878050e0       0x8c cmd/built-in.o
 .text.valid_elf_image
                0x000000008780516c       0x4c cmd/built-in.o
                0x000000008780516c                valid_elf_image
 .text.do_bootelf
                0x00000000878051b8      0x1bc cmd/built-in.o
                0x00000000878051b8                do_bootelf
 .text.do_bootvx
                0x0000000087805374      0x334 cmd/built-in.o
                0x0000000087805374                do_bootvx
 .text.do_exit  0x00000000878056a8       0x48 cmd/built-in.o
 .text.do_ext4_size
                0x00000000878056f0       0x18 cmd/built-in.o
                0x00000000878056f0                do_ext4_size
 .text.do_ext4_load
                0x0000000087805708       0x18 cmd/built-in.o
                0x0000000087805708                do_ext4_load
 .text.do_ext4_ls
                0x0000000087805720       0x18 cmd/built-in.o
                0x0000000087805720                do_ext4_ls
 .text.do_ext4_write
                0x0000000087805738       0x18 cmd/built-in.o
                0x0000000087805738                do_ext4_write
 .text.do_ext2load
                0x0000000087805750       0x18 cmd/built-in.o
                0x0000000087805750                do_ext2load
 .text.do_ext2ls
                0x0000000087805768       0x18 cmd/built-in.o
 .text.do_fat_size
                0x0000000087805780       0x18 cmd/built-in.o
                0x0000000087805780                do_fat_size
 .text.do_fat_fsload
                0x0000000087805798       0x18 cmd/built-in.o
                0x0000000087805798                do_fat_fsload
 .text.do_fat_ls
                0x00000000878057b0       0x18 cmd/built-in.o
 .text.do_fat_fswrite
                0x00000000878057c8      0x108 cmd/built-in.o
 .text.do_fat_fsinfo
                0x00000000878058d0       0x8c cmd/built-in.o
 .text.fdt_valid
                0x000000008780595c       0xbc cmd/built-in.o
 .text.is_printable_string
                0x0000000087805a18       0x88 cmd/built-in.o
 .text.print_data
                0x0000000087805aa0      0x170 cmd/built-in.o
 .text.set_working_fdt_addr
                0x0000000087805c10       0x1c cmd/built-in.o
                0x0000000087805c10                set_working_fdt_addr
 .text.do_fdt   0x0000000087805c2c      0xe20 cmd/built-in.o
 .text.do_flinfo
                0x0000000087806a4c        0x8 cmd/built-in.o
 .text.do_protect
                0x0000000087806a54       0x10 cmd/built-in.o
 .text.do_flerase
                0x0000000087806a64        0x8 cmd/built-in.o
 .text.do_size_wrapper
                0x0000000087806a6c       0x18 cmd/built-in.o
 .text.do_load_wrapper
                0x0000000087806a84       0x18 cmd/built-in.o
 .text.do_save_wrapper
                0x0000000087806a9c       0x18 cmd/built-in.o
 .text.do_ls_wrapper
                0x0000000087806ab4       0x18 cmd/built-in.o
 .text.do_fstype_wrapper
                0x0000000087806acc        0x4 cmd/built-in.o
 .text.strtou32
                0x0000000087806ad0       0x44 cmd/built-in.o
 .text.do_fuse  0x0000000087806b14      0x364 cmd/built-in.o
 .text.name_to_gpio
                0x0000000087806e78        0xc cmd/built-in.o
                0x0000000087806e78                name_to_gpio
 .text.do_gpio  0x0000000087806e84      0x150 cmd/built-in.o
 .text.do_i2c   0x0000000087806fd4       0x68 cmd/built-in.o
 .text.do_i2c_bus_speed
                0x000000008780703c       0x78 cmd/built-in.o
 .text.do_i2c_reset
                0x00000000878070b4       0x2c cmd/built-in.o
 .text.do_i2c_probe
                0x00000000878070e0       0xa0 cmd/built-in.o
 .text.do_i2c_bus_num
                0x0000000087807180       0xb8 cmd/built-in.o
 .text.do_i2c_show_bus
                0x0000000087807238       0xdc cmd/built-in.o
 .text.get_alen.constprop.5
                0x0000000087807314       0x3c cmd/built-in.o
 .text.do_i2c_crc
                0x0000000087807350      0x120 cmd/built-in.o
 .text.mod_i2c_mem.isra.3
                0x0000000087807470      0x1ec cmd/built-in.o
 .text.do_i2c_nm
                0x000000008780765c        0x8 cmd/built-in.o
 .text.do_i2c_mm
                0x0000000087807664        0x8 cmd/built-in.o
 .text.do_i2c_md
                0x000000008780766c      0x1e8 cmd/built-in.o
 .text.do_i2c_read
                0x0000000087807854       0xbc cmd/built-in.o
 .text.do_i2c_mw
                0x0000000087807910       0xf8 cmd/built-in.o
 .text.do_i2c_write
                0x0000000087807a08      0x144 cmd/built-in.o
 .text.do_i2c_loop
                0x0000000087807b4c       0xec cmd/built-in.o
 .text.i2c_init_board
                0x0000000087807c38        0x4 cmd/built-in.o
                0x0000000087807c38                i2c_init_board
 .text.evalexp  0x0000000087807c3c       0x78 cmd/built-in.o
 .text.evalstr  0x0000000087807cb4       0x64 cmd/built-in.o
 .text.binary_test
                0x0000000087807d18      0x1c0 cmd/built-in.o
 .text.do_itest
                0x0000000087807ed8       0x88 cmd/built-in.o
 .text.bin_data_init
                0x0000000087807f60       0x2c cmd/built-in.o
 .text.k_data_save
                0x0000000087807f8c       0x4c cmd/built-in.o
 .text.k_data_restore
                0x0000000087807fd8       0x4c cmd/built-in.o
 .text.getcxmodem
                0x0000000087808024       0x20 cmd/built-in.o
 .text.load_serial_ymodem
                0x0000000087808044       0xc8 cmd/built-in.o
 .text.bin_data_char
                0x000000008780810c       0x2c cmd/built-in.o
 .text.chk1.constprop.2
                0x0000000087808138       0x30 cmd/built-in.o
 .text.s1_sendpacket.constprop.3
                0x0000000087808168       0x4c cmd/built-in.o
 .text.load_serial
                0x00000000878081b4      0x1d8 cmd/built-in.o
 .text.do_load_serial
                0x000000008780838c       0xdc cmd/built-in.o
 .text.do_load_serial_bin
                0x0000000087808468      0x794 cmd/built-in.o
 .text.do_mem_mw
                0x0000000087808bfc       0xc0 cmd/built-in.o
 .text.do_mem_loop
                0x0000000087808cbc       0xec cmd/built-in.o
 .text.do_mem_md
                0x0000000087808da8       0xe8 cmd/built-in.o
 .text.do_mem_cmp
                0x0000000087808e90      0x154 cmd/built-in.o
 .text.do_mem_base
                0x0000000087808fe4       0x40 cmd/built-in.o
 .text.do_mem_cp
                0x0000000087809024       0xd8 cmd/built-in.o
 .text.do_mem_crc
                0x00000000878090fc       0x48 cmd/built-in.o
 .text.do_mem_mtest
                0x0000000087809144      0x224 cmd/built-in.o
 .text.mod_mem.isra.0
                0x0000000087809368      0x170 cmd/built-in.o
 .text.do_mem_mm
                0x00000000878094d8        0x8 cmd/built-in.o
 .text.do_mem_nm
                0x00000000878094e0        0x8 cmd/built-in.o
 .text.extract_range
                0x00000000878094e8       0xe4 cmd/built-in.o
 .text.do_mii   0x00000000878095cc      0x8f8 cmd/built-in.o
 .text.do_mdio  0x0000000087809ec4      0x4e8 cmd/built-in.o
 .text.do_sleep
                0x000000008780a3ac       0x70 cmd/built-in.o
 .text.do_mmcops
                0x000000008780a41c       0xb8 cmd/built-in.o
 .text.init_mmc_device
                0x000000008780a4d4       0x50 cmd/built-in.o
 .text.do_mmc_rescan
                0x000000008780a524       0x24 cmd/built-in.o
 .text.do_mmc_rst_func
                0x000000008780a548       0x9c cmd/built-in.o
 .text.do_mmc_partconf
                0x000000008780a5e4       0xb0 cmd/built-in.o
 .text.do_mmc_boot_resize
                0x000000008780a694       0xc8 cmd/built-in.o
 .text.do_mmc_bootbus
                0x000000008780a75c       0xb0 cmd/built-in.o
 .text.do_mmc_hwpartition
                0x000000008780a80c      0x50c cmd/built-in.o
 .text.do_mmc_list
                0x000000008780ad18       0x14 cmd/built-in.o
 .text.do_mmc_dev
                0x000000008780ad2c      0x128 cmd/built-in.o
 .text.do_mmc_erase
                0x000000008780ae54       0xe8 cmd/built-in.o
 .text.do_mmc_write
                0x000000008780af3c      0x100 cmd/built-in.o
 .text.do_mmc_read
                0x000000008780b03c       0xec cmd/built-in.o
 .text.do_mmcinfo
                0x000000008780b128      0x36c cmd/built-in.o
 .text.do_mmc_setdsr
                0x000000008780b494       0xa8 cmd/built-in.o
 .text.do_mmc_part
                0x000000008780b53c       0x5c cmd/built-in.o
 .text.netboot_common
                0x000000008780b598      0x298 cmd/built-in.o
 .text.do_bootp
                0x000000008780b830        0xc cmd/built-in.o
 .text.do_dhcp  0x000000008780b83c        0xc cmd/built-in.o
 .text.do_nfs   0x000000008780b848        0xc cmd/built-in.o
 .text.do_tftpb
                0x000000008780b854       0x40 cmd/built-in.o
                0x000000008780b854                do_tftpb
 .text.do_ping  0x000000008780b894       0x78 cmd/built-in.o
 .text.bytes_per_second
                0x000000008780b90c       0x50 cmd/built-in.o
 .text.do_spi_flash
                0x000000008780b95c      0x844 cmd/built-in.o
 .text.substitute
                0x000000008780c1a0       0xf0 cmd/built-in.o
 .text.get_arg  0x000000008780c290       0x58 cmd/built-in.o
 .text.regex_sub.part.1
                0x000000008780c2e8      0x47c cmd/built-in.o
 .text.do_setexpr
                0x000000008780c764      0x194 cmd/built-in.o
 .text.do_false
                0x000000008780c8f8        0x8 cmd/built-in.o
 .text.do_true  0x000000008780c900        0x8 cmd/built-in.o
 .text.do_test  0x000000008780c908      0x328 cmd/built-in.o
 .text.usb_get_class_desc
                0x000000008780cc30       0xbc cmd/built-in.o
 .text.usb_find_device
                0x000000008780ccec       0x3c cmd/built-in.o
 .text.usb_show_tree_graph
                0x000000008780cd28      0x230 cmd/built-in.o
 .text.usb_display_class_sub
                0x000000008780cf58      0x170 cmd/built-in.o
 .text.usb_display_string
                0x000000008780d0c8       0x44 cmd/built-in.o
 .text.usb_display_config
                0x000000008780d10c      0x210 cmd/built-in.o
 .text.do_usbboot
                0x000000008780d31c        0xc cmd/built-in.o
 .text.usb_display_desc.part.1
                0x000000008780d328      0x12c cmd/built-in.o
 .text.do_usb_start
                0x000000008780d454       0x38 cmd/built-in.o
 .text.usb_show_tree
                0x000000008780d48c       0x54 cmd/built-in.o
                0x000000008780d48c                usb_show_tree
 .text.do_usb   0x000000008780d4e0      0x734 cmd/built-in.o
 .text.do_imgextract
                0x000000008780dc14      0x284 cmd/built-in.o
 .text.do_env_delete
                0x000000008780de98       0xa0 cmd/built-in.o
 .text.do_env_exists
                0x000000008780df38       0x64 cmd/built-in.o
 .text.do_env_save
                0x000000008780df9c       0x2c cmd/built-in.o
 .text.do_env   0x000000008780dfc8       0x68 cmd/built-in.o
 .text.env_print
                0x000000008780e030       0xc4 cmd/built-in.o
 .text.do_env_print
                0x000000008780e0f4       0xc0 cmd/built-in.o
 .text.do_env_import
                0x000000008780e1b4      0x280 cmd/built-in.o
 .text.do_env_default
                0x000000008780e434       0x9c cmd/built-in.o
 .text._do_env_set.isra.0
                0x000000008780e4d0      0x1b4 cmd/built-in.o
 .text.do_env_set
                0x000000008780e684       0x20 cmd/built-in.o
 .text.get_env_id
                0x000000008780e6a4       0x10 cmd/built-in.o
                0x000000008780e6a4                get_env_id
 .text.setenv   0x000000008780e6b4       0x60 cmd/built-in.o
                0x000000008780e6b4                setenv
 .text.setenv_ulong
                0x000000008780e714       0x20 cmd/built-in.o
                0x000000008780e714                setenv_ulong
 .text.setenv_hex
                0x000000008780e734       0x34 cmd/built-in.o
                0x000000008780e734                setenv_hex
 .text.do_env_export
                0x000000008780e768      0x248 cmd/built-in.o
 .text.envmatch
                0x000000008780e9b0       0x68 cmd/built-in.o
                0x000000008780e9b0                envmatch
 .text.getenv_f
                0x000000008780ea18       0xc4 cmd/built-in.o
                0x000000008780ea18                getenv_f
 .text.getenv   0x000000008780eadc       0x78 cmd/built-in.o
                0x000000008780eadc                getenv
 .text.getenv_hex
                0x000000008780eb54       0x3c cmd/built-in.o
                0x000000008780eb54                getenv_hex
 .text.getenv_ulong
                0x000000008780eb90       0x30 cmd/built-in.o
                0x000000008780eb90                getenv_ulong
 .text.do_env_edit.part.3
                0x000000008780ebc0       0xa4 cmd/built-in.o
 .text.do_env_edit
                0x000000008780ec64       0x2c cmd/built-in.o
 .text.common_diskboot
                0x000000008780ec90      0x238 cmd/built-in.o
                0x000000008780ec90                common_diskboot
 .text.board_init_f_alloc_reserve
                0x000000008780eec8       0x10 common/built-in.o
                0x000000008780eec8                board_init_f_alloc_reserve
 .text.board_init_f_init_reserve
                0x000000008780eed8       0x20 common/built-in.o
                0x000000008780eed8                board_init_f_init_reserve
 .text.show_boot_progress
                0x000000008780eef8        0x4 common/built-in.o
                0x000000008780eef8                show_boot_progress
 .text.main_loop
                0x000000008780eefc       0x20 common/built-in.o
                0x000000008780eefc                main_loop
 .text.dummy    0x000000008780ef1c        0x4 common/built-in.o
 .text.get_version
                0x000000008780ef20        0x8 common/built-in.o
                0x000000008780ef20                get_version
 .text.jumptable_init
                0x000000008780ef28      0x1e0 common/built-in.o
                0x000000008780ef28                jumptable_init
 .text.hash_command
                0x000000008780f108       0xb0 common/built-in.o
                0x000000008780f108                hash_command
 .text.b_reset  0x000000008780f1b8       0x1c common/built-in.o
 .text.static_get
                0x000000008780f1d4       0x1c common/built-in.o
 .text.static_peek
                0x000000008780f1f0        0xc common/built-in.o
 .text.mapset   0x000000008780f1fc       0x20 common/built-in.o
 .text.syntax_err
                0x000000008780f21c        0xc common/built-in.o
 .text.free_pipe_list
                0x000000008780f228       0xe4 common/built-in.o
 .text.xmalloc  0x000000008780f30c       0x20 common/built-in.o
 .text.new_pipe
                0x000000008780f32c       0x28 common/built-in.o
 .text.xrealloc
                0x000000008780f354       0x20 common/built-in.o
 .text.done_command
                0x000000008780f374       0x88 common/built-in.o
 .text.done_pipe
                0x000000008780f3fc       0x48 common/built-in.o
 .text.done_word
                0x000000008780f444      0x2cc common/built-in.o
 .text.is_assignment
                0x000000008780f710       0x5c common/built-in.o
 .text.file_get
                0x000000008780f76c      0x1ec common/built-in.o
 .text.do_showvar
                0x000000008780f958      0x100 common/built-in.o
 .text.b_addchr
                0x000000008780fa58       0x80 common/built-in.o
 .text.b_addqchr
                0x000000008780fad8       0x50 common/built-in.o
 .text.file_peek
                0x000000008780fb28        0xc common/built-in.o
 .text.get_local_var
                0x000000008780fb34       0x94 common/built-in.o
                0x000000008780fb34                get_local_var
 .text.set_local_var
                0x000000008780fbc8      0x1a8 common/built-in.o
                0x000000008780fbc8                set_local_var
 .text.insert_var_value_sub
                0x000000008780fd70      0x2b8 common/built-in.o
 .text.parse_string_outer
                0x0000000087810028       0xe8 common/built-in.o
                0x0000000087810028                parse_string_outer
 .text.run_list_real
                0x0000000087810110      0x7b0 common/built-in.o
 .text.parse_stream_outer
                0x00000000878108c0      0x6c0 common/built-in.o
 .text.parse_file_outer
                0x0000000087810f80       0x44 common/built-in.o
                0x0000000087810f80                parse_file_outer
 .text.u_boot_hush_start
                0x0000000087810fc4       0x54 common/built-in.o
                0x0000000087810fc4                u_boot_hush_start
 .text.bootdelay_process
                0x0000000087811018       0xd0 common/built-in.o
                0x0000000087811018                bootdelay_process
 .text.autoboot_command
                0x00000000878110e8       0xd4 common/built-in.o
                0x00000000878110e8                autoboot_command
 .text.display_text_info
                0x00000000878111bc        0x8 common/built-in.o
 .text.setup_mon_len
                0x00000000878111c4       0x20 common/built-in.o
 .text.reserve_round_4k
                0x00000000878111e4       0x18 common/built-in.o
 .text.reserve_mmu
                0x00000000878111fc       0x38 common/built-in.o
 .text.reserve_uboot
                0x0000000087811234       0x30 common/built-in.o
 .text.reserve_malloc
                0x0000000087811264       0x18 common/built-in.o
 .text.reserve_global_data
                0x000000008781127c       0x1c common/built-in.o
 .text.reserve_fdt
                0x0000000087811298       0x4c common/built-in.o
 .text.arch_cpu_init_dm
                0x00000000878112e4        0x8 common/built-in.o
                0x00000000878112e4                arch_cpu_init_dm
 .text.announce_dram_init
                0x00000000878112ec       0x18 common/built-in.o
 .text.init_func_i2c
                0x0000000087811304       0x28 common/built-in.o
 .text.init_baud_rate
                0x000000008781132c       0x2c common/built-in.o
 .text.mark_bootstage
                0x0000000087811358       0x14 common/built-in.o
 .text.initf_dm
                0x000000008781136c        0x8 common/built-in.o
 .text.setup_reloc
                0x0000000087811374       0x40 common/built-in.o
 .text.reloc_fdt
                0x00000000878113b4       0x44 common/built-in.o
 .text.reserve_board
                0x00000000878113f8       0x40 common/built-in.o
 .text.reserve_arch
                0x0000000087811438        0x8 common/built-in.o
                0x0000000087811438                reserve_arch
 .text.reserve_trace
                0x0000000087811440        0x8 common/built-in.o
 .text.setup_machine
                0x0000000087811448        0x8 common/built-in.o
 .text.display_new_sp
                0x0000000087811450        0x8 common/built-in.o
 .text.initf_console_record
                0x0000000087811458        0x8 common/built-in.o
 .text.coloured_LED_init
                0x0000000087811460        0x4 common/built-in.o
                0x0000000087811460                coloured_LED_init
 .text.red_led_on
                0x0000000087811464        0x4 common/built-in.o
                0x0000000087811464                red_led_on
 .text.board_add_ram_info
                0x0000000087811468        0x4 common/built-in.o
                0x0000000087811468                board_add_ram_info
 .text.show_dram_config
                0x000000008781146c       0x38 common/built-in.o
 .text.dram_init_banksize
                0x00000000878114a4       0x20 common/built-in.o
                0x00000000878114a4                dram_init_banksize
 .text.setup_dram_config
                0x00000000878114c4       0x10 common/built-in.o
 .text.board_get_usable_ram_top
                0x00000000878114d4       0x14 common/built-in.o
                0x00000000878114d4                board_get_usable_ram_top
 .text.board_reserve_ram_top
                0x00000000878114e8        0x4 common/built-in.o
                0x00000000878114e8                board_reserve_ram_top
 .text.setup_dest_addr
                0x00000000878114ec       0x4c common/built-in.o
 .text.reserve_stacks
                0x0000000087811538       0x1c common/built-in.o
 .text.board_init_f
                0x0000000087811554       0x30 common/built-in.o
                0x0000000087811554                board_init_f
 .text.bootstage_relocate
                0x0000000087811584        0x8 common/built-in.o
 .text.initr_trace
                0x000000008781158c        0x8 common/built-in.o
 .text.initr_reloc
                0x0000000087811594       0x18 common/built-in.o
 .text.initr_reloc_global_data
                0x00000000878115ac       0x28 common/built-in.o
 .text.run_main_loop
                0x00000000878115d4        0xc common/built-in.o
 .text.initr_net
                0x00000000878115e0       0x1c common/built-in.o
 .text.initr_ethaddr
                0x00000000878115fc       0x20 common/built-in.o
 .text.initr_enable_interrupts
                0x000000008781161c       0x10 common/built-in.o
 .text.initr_jumptable
                0x000000008781162c       0x10 common/built-in.o
 .text.initr_env
                0x000000008781163c       0x30 common/built-in.o
 .text.initr_mmc
                0x000000008781166c       0x20 common/built-in.o
 .text.initr_serial
                0x000000008781168c       0x10 common/built-in.o
 .text.initr_bootstage
                0x000000008781169c       0x14 common/built-in.o
 .text.initr_dm
                0x00000000878116b0       0x14 common/built-in.o
 .text.initr_malloc
                0x00000000878116c4       0x24 common/built-in.o
 .text.initr_caches
                0x00000000878116e8       0x10 common/built-in.o
 .text.initr_announce
                0x00000000878116f8        0x8 common/built-in.o
 .text.initr_barrier
                0x0000000087811700        0x8 common/built-in.o
 .text.initr_console_record
                0x0000000087811708        0x8 common/built-in.o
 .text.cpu_secondary_init_r
                0x0000000087811710        0x4 common/built-in.o
                0x0000000087811710                cpu_secondary_init_r
 .text.initr_secondary_cpu
                0x0000000087811714       0x10 common/built-in.o
 .text.board_init_r
                0x0000000087811724       0x14 common/built-in.o
                0x0000000087811724                board_init_r
 .text.show_board_info
                0x0000000087811738        0x4 common/built-in.o
                0x0000000087811738                show_board_info
 .text.bootm_find_images
                0x000000008781173c       0xa8 common/built-in.o
                0x000000008781173c                bootm_find_images
 .text.bootm_decomp_image
                0x00000000878117e4      0x140 common/built-in.o
                0x00000000878117e4                bootm_decomp_image
 .text.bootm_disable_interrupts
                0x0000000087811924       0x18 common/built-in.o
                0x0000000087811924                bootm_disable_interrupts
 .text.do_bootm_states
                0x000000008781193c      0x720 common/built-in.o
                0x000000008781193c                do_bootm_states
 .text.copy_args
                0x000000008781205c       0x4c common/built-in.o
 .text.do_bootm_rtems
                0x00000000878120a8       0x40 common/built-in.o
 .text.do_bootm_plan9
                0x00000000878120e8       0xa4 common/built-in.o
 .text.do_bootm_standalone
                0x000000008781218c       0x64 common/built-in.o
 .text.do_bootm_qnxelf
                0x00000000878121f0       0x5c common/built-in.o
 .text.do_bootm_netbsd
                0x000000008781224c       0xf8 common/built-in.o
 .text.do_bootvx_fdt
                0x0000000087812344      0x114 common/built-in.o
                0x0000000087812344                do_bootvx_fdt
 .text.do_bootm_vxworks
                0x0000000087812458       0x24 common/built-in.o
 .text.boot_selected_os
                0x000000008781247c       0x58 common/built-in.o
                0x000000008781247c                boot_selected_os
 .text.bootm_os_get_boot_func
                0x00000000878124d4       0x10 common/built-in.o
                0x00000000878124d4                bootm_os_get_boot_func
 .text.regex_callback
                0x00000000878124e4      0x130 common/built-in.o
 .text.env_attr_walk
                0x0000000087812614      0x120 common/built-in.o
                0x0000000087812614                env_attr_walk
 .text.env_attr_lookup
                0x0000000087812734       0x84 common/built-in.o
                0x0000000087812734                env_attr_lookup
 .text.clear_callback
                0x00000000878127b8       0x10 common/built-in.o
 .text.find_env_callback
                0x00000000878127c8       0x5c common/built-in.o
 .text.on_callbacks
                0x0000000087812824       0x50 common/built-in.o
 .text.set_callback
                0x0000000087812874       0x9c common/built-in.o
 .text.env_callback_init
                0x0000000087812910       0xc4 common/built-in.o
                0x0000000087812910                env_callback_init
 .text.skip_num
                0x00000000878129d4       0x6c common/built-in.o
 .text.clear_flags
                0x0000000087812a40       0x10 common/built-in.o
 .text.on_flags
                0x0000000087812a50       0x50 common/built-in.o
 .text.env_flags_parse_vartype
                0x0000000087812aa0       0x50 common/built-in.o
                0x0000000087812aa0                env_flags_parse_vartype
 .text.env_flags_parse_varaccess
                0x0000000087812af0       0x50 common/built-in.o
                0x0000000087812af0                env_flags_parse_varaccess
 .text.set_flags
                0x0000000087812b40       0xb0 common/built-in.o
 .text.eth_validate_ethaddr_str
                0x0000000087812bf0       0x94 common/built-in.o
                0x0000000087812bf0                eth_validate_ethaddr_str
 .text.env_flags_init
                0x0000000087812c84       0xd8 common/built-in.o
                0x0000000087812c84                env_flags_init
 .text.env_flags_validate
                0x0000000087812d5c      0x288 common/built-in.o
                0x0000000087812d5c                env_flags_validate
 .text.mmc_get_env_addr
                0x0000000087812fe4       0x10 common/built-in.o
                0x0000000087812fe4                mmc_get_env_addr
 .text.fini_mmc_for_env.isra.0
                0x0000000087812ff4       0x1c common/built-in.o
 .text.env_init
                0x0000000087813010       0x1c common/built-in.o
                0x0000000087813010                env_init
 .text.init_mmc_for_env
                0x000000008781302c       0x78 common/built-in.o
 .text.saveenv  0x00000000878130a4      0x110 common/built-in.o
                0x00000000878130a4                saveenv
 .text.env_relocate_spec
                0x00000000878131b4       0xd8 common/built-in.o
                0x00000000878131b4                env_relocate_spec
 .text.fdt_find_and_setprop
                0x000000008781328c       0x70 common/built-in.o
                0x000000008781328c                fdt_find_and_setprop
 .text.fdt_find_or_add_subnode
                0x00000000878132fc       0x60 common/built-in.o
                0x00000000878132fc                fdt_find_or_add_subnode
 .text.fdt_root
                0x000000008781335c       0x90 common/built-in.o
                0x000000008781335c                fdt_root
 .text.fdt_initrd
                0x00000000878133ec      0x1d0 common/built-in.o
                0x00000000878133ec                fdt_initrd
 .text.fdt_chosen
                0x00000000878135bc       0xa8 common/built-in.o
                0x00000000878135bc                fdt_chosen
 .text.do_fixup_by_path
                0x0000000087813664       0x54 common/built-in.o
                0x0000000087813664                do_fixup_by_path
 .text.fdt_fixup_memory_banks
                0x00000000878136b8      0x1d8 common/built-in.o
                0x00000000878136b8                fdt_fixup_memory_banks
 .text.fdt_fixup_memory
                0x0000000087813890       0x20 common/built-in.o
                0x0000000087813890                fdt_fixup_memory
 .text.fdt_fixup_ethernet
                0x00000000878138b0      0x18c common/built-in.o
                0x00000000878138b0                fdt_fixup_ethernet
 .text.fdt_shrink_to_minimum
                0x0000000087813a3c       0xcc common/built-in.o
                0x0000000087813a3c                fdt_shrink_to_minimum
 .text.miiphy_get_dev_by_name
                0x0000000087813b08       0x58 common/built-in.o
                0x0000000087813b08                miiphy_get_dev_by_name
 .text.miiphy_init
                0x0000000087813b60       0x24 common/built-in.o
                0x0000000087813b60                miiphy_init
 .text.mdio_alloc
                0x0000000087813b84       0x30 common/built-in.o
                0x0000000087813b84                mdio_alloc
 .text.mdio_register
                0x0000000087813bb4       0x88 common/built-in.o
                0x0000000087813bb4                mdio_register
 .text.mdio_unregister
                0x0000000087813c3c       0x3c common/built-in.o
                0x0000000087813c3c                mdio_unregister
 .text.mdio_list_devices
                0x0000000087813c78       0xac common/built-in.o
                0x0000000087813c78                mdio_list_devices
 .text.miiphy_set_current_dev
                0x0000000087813d24       0x40 common/built-in.o
                0x0000000087813d24                miiphy_set_current_dev
 .text.miiphy_get_active_dev
                0x0000000087813d64       0x54 common/built-in.o
 .text.mdio_get_current_dev
                0x0000000087813db8       0x10 common/built-in.o
                0x0000000087813db8                mdio_get_current_dev
 .text.mdio_phydev_for_ethname
                0x0000000087813dc8       0x88 common/built-in.o
                0x0000000087813dc8                mdio_phydev_for_ethname
 .text.miiphy_get_current_dev
                0x0000000087813e50       0x18 common/built-in.o
                0x0000000087813e50                miiphy_get_current_dev
 .text.miiphy_read
                0x0000000087813e68       0x4c common/built-in.o
                0x0000000087813e68                miiphy_read
 .text.miiphy_write
                0x0000000087813eb4       0x40 common/built-in.o
                0x0000000087813eb4                miiphy_write
 .text.miiphy_listdev
                0x0000000087813ef4       0x78 common/built-in.o
                0x0000000087813ef4                miiphy_listdev
 .text.miiphy_info
                0x0000000087813f6c       0x88 common/built-in.o
                0x0000000087813f6c                miiphy_info
 .text.miiphy_speed
                0x0000000087813ff4       0x90 common/built-in.o
                0x0000000087813ff4                miiphy_speed
 .text.miiphy_duplex
                0x0000000087814084       0x90 common/built-in.o
                0x0000000087814084                miiphy_duplex
 .text.miiphy_is_1000base_x
                0x0000000087814114        0x8 common/built-in.o
                0x0000000087814114                miiphy_is_1000base_x
 .text.usb_set_maxpacket_ep
                0x000000008781411c       0x78 common/built-in.o
 .text.usb_stop
                0x0000000087814194       0x80 common/built-in.o
                0x0000000087814194                usb_stop
 .text.usb_disable_asynch
                0x0000000087814214       0x20 common/built-in.o
                0x0000000087814214                usb_disable_asynch
 .text.usb_control_msg
                0x0000000087814234       0xbc common/built-in.o
                0x0000000087814234                usb_control_msg
 .text.usb_get_descriptor
                0x00000000878142f0       0x58 common/built-in.o
 .text.get_descriptor_len
                0x0000000087814348       0x90 common/built-in.o
 .text.usb_get_string
                0x00000000878143d8       0x78 common/built-in.o
 .text.usb_string_sub
                0x0000000087814450      0x104 common/built-in.o
 .text.usb_bulk_msg
                0x0000000087814554       0x70 common/built-in.o
                0x0000000087814554                usb_bulk_msg
 .text.usb_maxpacket
                0x00000000878145c4       0x18 common/built-in.o
                0x00000000878145c4                usb_maxpacket
 .text.usb_clear_halt
                0x00000000878145dc       0x90 common/built-in.o
                0x00000000878145dc                usb_clear_halt
 .text.usb_get_configuration_len
                0x000000008781466c       0x74 common/built-in.o
                0x000000008781466c                usb_get_configuration_len
 .text.usb_get_configuration_no
                0x00000000878146e0       0x34 common/built-in.o
                0x00000000878146e0                usb_get_configuration_no
 .text.usb_set_interface
                0x0000000087814714       0xb4 common/built-in.o
                0x0000000087814714                usb_set_interface
 .text.usb_string
                0x00000000878147c8      0x104 common/built-in.o
                0x00000000878147c8                usb_string
 .text.usb_get_dev_index
                0x00000000878148cc       0x24 common/built-in.o
                0x00000000878148cc                usb_get_dev_index
 .text.usb_alloc_new_device
                0x00000000878148f0       0x8c common/built-in.o
                0x00000000878148f0                usb_alloc_new_device
 .text.usb_free_device
                0x000000008781497c       0x48 common/built-in.o
                0x000000008781497c                usb_free_device
 .text.usb_alloc_device
                0x00000000878149c4        0x8 common/built-in.o
                0x00000000878149c4                usb_alloc_device
 .text.usb_select_config
                0x00000000878149cc      0x450 common/built-in.o
                0x00000000878149cc                usb_select_config
 .text.usb_setup_device
                0x0000000087814e1c      0x198 common/built-in.o
                0x0000000087814e1c                usb_setup_device
 .text.usb_new_device
                0x0000000087814fb4       0x30 common/built-in.o
                0x0000000087814fb4                usb_new_device
 .text.usb_init
                0x0000000087814fe4      0x174 common/built-in.o
                0x0000000087814fe4                usb_init
 .text.usb_device_has_child_on_port
                0x0000000087815158       0x14 common/built-in.o
                0x0000000087815158                usb_device_has_child_on_port
 .text.usb_find_usb2_hub_address_port
                0x000000008781516c       0x5c common/built-in.o
                0x000000008781516c                usb_find_usb2_hub_address_port
 .text.usb_set_port_feature
                0x00000000878151c8       0x4c common/built-in.o
 .text.usb_clear_port_feature
                0x0000000087815214       0x4c common/built-in.o
 .text.usb_get_hub_descriptor
                0x0000000087815260       0x4c common/built-in.o
 .text.usb_hub_power_on
                0x00000000878152ac       0x6c common/built-in.o
 .text.usb_hub_reset_devices
                0x0000000087815318        0x4 common/built-in.o
                0x0000000087815318                usb_hub_reset_devices
 .text.usb_get_port_status
                0x000000008781531c       0x4c common/built-in.o
                0x000000008781531c                usb_get_port_status
 .text.usb_hub_reset
                0x0000000087815368       0x14 common/built-in.o
                0x0000000087815368                usb_hub_reset
 .text.legacy_hub_port_reset
                0x000000008781537c       0xa0 common/built-in.o
                0x000000008781537c                legacy_hub_port_reset
 .text.usb_hub_port_connect_change
                0x000000008781541c      0x160 common/built-in.o
                0x000000008781541c                usb_hub_port_connect_change
 .text.usb_hub_configure
                0x000000008781557c      0x2cc common/built-in.o
 .text.usb_hub_probe
                0x0000000087815848       0x54 common/built-in.o
                0x0000000087815848                usb_hub_probe
 .text.usb_stor_irq
                0x000000008781589c       0x1c common/built-in.o
 .text.usb_stor_BBB_reset
                0x00000000878158b8       0xd8 common/built-in.o
 .text.usb_stor_CB_reset
                0x0000000087815990       0xd0 common/built-in.o
 .text.usb_stor_BBB_clear_endpt_stall.isra.0
                0x0000000087815a60       0x40 common/built-in.o
 .text.usb_stor_BBB_transport
                0x0000000087815aa0      0x264 common/built-in.o
 .text.usb_stor_CB_comdat
                0x0000000087815d04      0x210 common/built-in.o
 .text.usb_stor_CBI_get_status.isra.2
                0x0000000087815f14       0xcc common/built-in.o
 .text.usb_stor_CB_transport
                0x0000000087815fe0      0x1fc common/built-in.o
 .text.usb_request_sense.constprop.8
                0x00000000878161dc       0x70 common/built-in.o
 .text.usb_stor_read
                0x000000008781624c      0x168 common/built-in.o
 .text.usb_stor_write
                0x00000000878163b4      0x168 common/built-in.o
 .text.usb_stor_get_dev
                0x000000008781651c       0x28 common/built-in.o
                0x000000008781651c                usb_stor_get_dev
 .text.usb_stor_info
                0x0000000087816544       0x78 common/built-in.o
                0x0000000087816544                usb_stor_info
 .text.usb_storage_probe
                0x00000000878165bc      0x204 common/built-in.o
                0x00000000878165bc                usb_storage_probe
 .text.usb_stor_get_info
                0x00000000878167c0      0x320 common/built-in.o
                0x00000000878167c0                usb_stor_get_info
 .text.usb_stor_scan
                0x0000000087816ae0      0x1e0 common/built-in.o
                0x0000000087816ae0                usb_stor_scan
 .text.splash_get_pos
                0x0000000087816cc0       0x88 common/built-in.o
                0x0000000087816cc0                splash_get_pos
 .text.env_get_char_spec
                0x0000000087816d48        0xc common/built-in.o
                0x0000000087816d48                env_get_char_spec
 .text.env_get_addr
                0x0000000087816d54       0x20 common/built-in.o
                0x0000000087816d54                env_get_addr
 .text.env_get_char_memory
                0x0000000087816d74       0x10 common/built-in.o
                0x0000000087816d74                env_get_char_memory
 .text.env_get_char
                0x0000000087816d84       0x30 common/built-in.o
                0x0000000087816d84                env_get_char
 .text.getenv_yesno
                0x0000000087816db4       0x3c common/built-in.o
                0x0000000087816db4                getenv_yesno
 .text.getenv_default
                0x0000000087816df0       0x30 common/built-in.o
                0x0000000087816df0                getenv_default
 .text.set_default_env
                0x0000000087816e20       0xc0 common/built-in.o
                0x0000000087816e20                set_default_env
 .text.set_default_vars
                0x0000000087816ee0       0x3c common/built-in.o
                0x0000000087816ee0                set_default_vars
 .text.env_import
                0x0000000087816f1c       0xdc common/built-in.o
                0x0000000087816f1c                env_import
 .text.env_export
                0x0000000087816ff8       0xa0 common/built-in.o
                0x0000000087816ff8                env_export
 .text.env_relocate
                0x0000000087817098       0x2c common/built-in.o
                0x0000000087817098                env_relocate
 .text.env_complete
                0x00000000878170c4       0xdc common/built-in.o
                0x00000000878170c4                env_complete
 .text.console_setfile
                0x00000000878171a0       0xb8 common/built-in.o
 .text.serial_printf
                0x0000000087817258       0x44 common/built-in.o
                0x0000000087817258                serial_printf
 .text.fgetc    0x000000008781729c       0x24 common/built-in.o
                0x000000008781729c                fgetc
 .text.getc     0x00000000878172c0       0x24 common/built-in.o
                0x00000000878172c0                getc
 .text.ftstc    0x00000000878172e4       0x24 common/built-in.o
                0x00000000878172e4                ftstc
 .text.tstc     0x0000000087817308       0x24 common/built-in.o
                0x0000000087817308                tstc
 .text.fputc    0x000000008781732c       0x1c common/built-in.o
                0x000000008781732c                fputc
 .text.putc     0x0000000087817348       0x28 common/built-in.o
                0x0000000087817348                putc
 .text.fputs    0x0000000087817370       0x1c common/built-in.o
                0x0000000087817370                fputs
 .text.puts     0x000000008781738c       0x28 common/built-in.o
                0x000000008781738c                puts
 .text.ctrlc    0x00000000878173b4       0x58 common/built-in.o
                0x00000000878173b4                ctrlc
 .text.confirm_yesno
                0x000000008781740c       0xcc common/built-in.o
                0x000000008781740c                confirm_yesno
 .text.had_ctrlc
                0x00000000878174d8       0x10 common/built-in.o
                0x00000000878174d8                had_ctrlc
 .text.clear_ctrlc
                0x00000000878174e8       0x14 common/built-in.o
                0x00000000878174e8                clear_ctrlc
 .text.search_device
                0x00000000878174fc       0x28 common/built-in.o
                0x00000000878174fc                search_device
 .text.console_assign
                0x0000000087817524       0x40 common/built-in.o
                0x0000000087817524                console_assign
 .text.on_console
                0x0000000087817564       0xb8 common/built-in.o
 .text.console_init_f
                0x000000008781761c       0x10 common/built-in.o
                0x000000008781761c                console_init_f
 .text.stdio_print_current_devices
                0x000000008781762c       0xb0 common/built-in.o
                0x000000008781762c                stdio_print_current_devices
 .text.console_init_r
                0x00000000878176dc      0x17c common/built-in.o
                0x00000000878176dc                console_init_r
 .text.sbrk     0x0000000087817858       0x6c common/built-in.o
                0x0000000087817858                sbrk
 .text.mem_malloc_init
                0x00000000878178c4       0x34 common/built-in.o
                0x00000000878178c4                mem_malloc_init
 .text.malloc_trim
                0x00000000878178f8       0xd0 common/built-in.o
                0x00000000878178f8                malloc_trim
 .text.free     0x00000000878179c8      0x240 common/built-in.o
                0x00000000878179c8                free
 .text.malloc   0x0000000087817c08      0x614 common/built-in.o
                0x0000000087817c08                malloc
 .text.calloc   0x000000008781821c      0x140 common/built-in.o
                0x000000008781821c                calloc
 .text.realloc  0x000000008781835c      0x41c common/built-in.o
                0x000000008781835c                realloc
 .text.memalign
                0x0000000087818778      0x138 common/built-in.o
                0x0000000087818778                memalign
 .text.initf_malloc
                0x00000000878188b0       0x18 common/built-in.o
                0x00000000878188b0                initf_malloc
 .text.malloc_simple
                0x00000000878188c8       0x30 common/built-in.o
                0x00000000878188c8                malloc_simple
 .text.on_loadaddr
                0x00000000878188f8       0x40 common/built-in.o
 .text.image_check_hcrc
                0x0000000087818938       0x4c common/built-in.o
                0x0000000087818938                image_check_hcrc
 .text.image_check_dcrc
                0x0000000087818984       0x38 common/built-in.o
                0x0000000087818984                image_check_dcrc
 .text.image_multi_count
                0x00000000878189bc       0x1c common/built-in.o
                0x00000000878189bc                image_multi_count
 .text.image_multi_getimg
                0x00000000878189d8       0x80 common/built-in.o
                0x00000000878189d8                image_multi_getimg
 .text.getenv_bootm_low
                0x0000000087818a58       0x30 common/built-in.o
                0x0000000087818a58                getenv_bootm_low
 .text.getenv_bootm_size
                0x0000000087818a88       0x68 common/built-in.o
                0x0000000087818a88                getenv_bootm_size
 .text.getenv_bootm_mapsize
                0x0000000087818af0       0x30 common/built-in.o
                0x0000000087818af0                getenv_bootm_mapsize
 .text.memmove_wd
                0x0000000087818b20        0xc common/built-in.o
                0x0000000087818b20                memmove_wd
 .text.genimg_print_size
                0x0000000087818b2c       0x30 common/built-in.o
                0x0000000087818b2c                genimg_print_size
 .text.get_table_entry
                0x0000000087818b5c       0x24 common/built-in.o
                0x0000000087818b5c                get_table_entry
 .text.get_table_entry_name
                0x0000000087818b80       0x20 common/built-in.o
                0x0000000087818b80                get_table_entry_name
 .text.genimg_get_os_name
                0x0000000087818ba0       0x18 common/built-in.o
                0x0000000087818ba0                genimg_get_os_name
 .text.genimg_get_arch_name
                0x0000000087818bb8       0x18 common/built-in.o
                0x0000000087818bb8                genimg_get_arch_name
 .text.genimg_get_type_name
                0x0000000087818bd0       0x18 common/built-in.o
                0x0000000087818bd0                genimg_get_type_name
 .text.genimg_get_comp_name
                0x0000000087818be8       0x18 common/built-in.o
                0x0000000087818be8                genimg_get_comp_name
 .text.image_print_contents
                0x0000000087818c00      0x17c common/built-in.o
                0x0000000087818c00                image_print_contents
 .text.genimg_get_kernel_addr_fit
                0x0000000087818d7c       0x24 common/built-in.o
                0x0000000087818d7c                genimg_get_kernel_addr_fit
 .text.genimg_get_format
                0x0000000087818da0       0x34 common/built-in.o
                0x0000000087818da0                genimg_get_format
 .text.genimg_get_image
                0x0000000087818dd4        0x4 common/built-in.o
                0x0000000087818dd4                genimg_get_image
 .text.genimg_has_config
                0x0000000087818dd8        0x8 common/built-in.o
                0x0000000087818dd8                genimg_has_config
 .text.boot_get_ramdisk
                0x0000000087818de0      0x270 common/built-in.o
                0x0000000087818de0                boot_get_ramdisk
 .text.boot_ramdisk_high
                0x0000000087819050      0x130 common/built-in.o
                0x0000000087819050                boot_ramdisk_high
 .text.boot_get_setup
                0x0000000087819180        0x8 common/built-in.o
                0x0000000087819180                boot_get_setup
 .text.image_setup_linux
                0x0000000087819188       0x88 common/built-in.o
                0x0000000087819188                image_setup_linux
 .text.fdt_error
                0x0000000087819210       0x2c common/built-in.o
 .text.boot_fdt_add_mem_rsv_regions
                0x000000008781923c       0x8c common/built-in.o
                0x000000008781923c                boot_fdt_add_mem_rsv_regions
 .text.boot_relocate_fdt
                0x00000000878192c8      0x194 common/built-in.o
                0x00000000878192c8                boot_relocate_fdt
 .text.boot_get_fdt
                0x000000008781945c      0x28c common/built-in.o
                0x000000008781945c                boot_get_fdt
 .text.ft_verify_fdt
                0x00000000878196e8        0x8 common/built-in.o
                0x00000000878196e8                ft_verify_fdt
 .text.image_setup_libfdt
                0x00000000878196f0       0xfc common/built-in.o
                0x00000000878196f0                image_setup_libfdt
 .text.get_effective_memsize
                0x00000000878197ec        0x8 common/built-in.o
                0x00000000878197ec                get_effective_memsize
 .text.nulldev_putc
                0x00000000878197f4        0x4 common/built-in.o
 .text.nulldev_puts
                0x00000000878197f8        0x4 common/built-in.o
 .text.nulldev_input
                0x00000000878197fc        0x8 common/built-in.o
 .text.stdio_serial_tstc
                0x0000000087819804        0x4 common/built-in.o
 .text.stdio_serial_getc
                0x0000000087819808        0x4 common/built-in.o
 .text.stdio_serial_puts
                0x000000008781980c        0x8 common/built-in.o
 .text.stdio_serial_putc
                0x0000000087819814        0x8 common/built-in.o
 .text.stdio_get_list
                0x000000008781981c        0xc common/built-in.o
                0x000000008781981c                stdio_get_list
 .text.stdio_get_by_name
                0x0000000087819828       0x4c common/built-in.o
                0x0000000087819828                stdio_get_by_name
 .text.stdio_clone
                0x0000000087819874       0x38 common/built-in.o
                0x0000000087819874                stdio_clone
 .text.stdio_register_dev
                0x00000000878198ac       0x50 common/built-in.o
                0x00000000878198ac                stdio_register_dev
 .text.stdio_register
                0x00000000878198fc        0x8 common/built-in.o
                0x00000000878198fc                stdio_register
 .text.stdio_init_tables
                0x0000000087819904       0x1c common/built-in.o
                0x0000000087819904                stdio_init_tables
 .text.stdio_add_devices
                0x0000000087819920       0xd4 common/built-in.o
                0x0000000087819920                stdio_add_devices
 .text.run_command
                0x00000000878199f4       0x10 common/built-in.o
                0x00000000878199f4                run_command
 .text.run_command_list
                0x0000000087819a04       0x7c common/built-in.o
                0x0000000087819a04                run_command_list
 .text.do_run   0x0000000087819a80       0x74 common/built-in.o
                0x0000000087819a80                do_run
 .text.cli_loop
                0x0000000087819af4        0xc common/built-in.o
                0x0000000087819af4                cli_loop
 .text.cli_init
                0x0000000087819b00        0x4 common/built-in.o
                0x0000000087819b00                cli_init
 .text.delete_char.part.0
                0x0000000087819b04       0xd0 common/built-in.o
 .text.cread_add_char
                0x0000000087819bd4       0xe4 common/built-in.o
 .text.cli_readline_into_buffer
                0x0000000087819cb8      0x98c common/built-in.o
                0x0000000087819cb8                cli_readline_into_buffer
 .text.cli_readline
                0x000000008781a644       0x14 common/built-in.o
                0x000000008781a644                cli_readline
 .text.find_cmd_tbl
                0x000000008781a658       0xa4 common/built-in.o
                0x000000008781a658                find_cmd_tbl
 .text.find_cmd
                0x000000008781a6fc       0x28 common/built-in.o
                0x000000008781a6fc                find_cmd
 .text.cmd_usage
                0x000000008781a724       0x5c common/built-in.o
                0x000000008781a724                cmd_usage
 .text._do_help
                0x000000008781a780      0x184 common/built-in.o
                0x000000008781a780                _do_help
 .text.var_complete
                0x000000008781a904       0x88 common/built-in.o
                0x000000008781a904                var_complete
 .text.cmd_auto_complete
                0x000000008781a98c      0x4c4 common/built-in.o
                0x000000008781a98c                cmd_auto_complete
 .text.cmd_get_data_size
                0x000000008781ae50       0x50 common/built-in.o
                0x000000008781ae50                cmd_get_data_size
 .text.cmd_process
                0x000000008781aea0       0xec common/built-in.o
                0x000000008781aea0                cmd_process
 .text.cmd_process_error
                0x000000008781af8c       0x30 common/built-in.o
                0x000000008781af8c                cmd_process_error
 .text.hex1_bin
                0x000000008781afbc       0x40 common/built-in.o
 .text.hex2_bin
                0x000000008781affc       0x38 common/built-in.o
 .text.srec_decode
                0x000000008781b034      0x244 common/built-in.o
                0x000000008781b034                srec_decode
 .text.CYGACC_COMM_IF_GETC_TIMEOUT.isra.0
                0x000000008781b278       0x5c common/built-in.o
 .text.xyzModem_flush
                0x000000008781b2d4       0x1c common/built-in.o
 .text.xyzModem_get_hdr
                0x000000008781b2f0      0x218 common/built-in.o
 .text.xyzModem_stream_open
                0x000000008781b508      0x214 common/built-in.o
                0x000000008781b508                xyzModem_stream_open
 .text.xyzModem_stream_read
                0x000000008781b71c      0x25c common/built-in.o
                0x000000008781b71c                xyzModem_stream_read
 .text.xyzModem_stream_close
                0x000000008781b978       0x54 common/built-in.o
                0x000000008781b978                xyzModem_stream_close
 .text.xyzModem_stream_terminate
                0x000000008781b9cc       0x94 common/built-in.o
                0x000000008781b9cc                xyzModem_stream_terminate
 .text.xyzModem_error
                0x000000008781ba60       0x1c common/built-in.o
                0x000000008781ba60                xyzModem_error
 .text.get_dev_hwpart.part.0
                0x000000008781ba7c       0x98 disk/built-in.o
 .text.dev_print
                0x000000008781bb14      0x214 disk/built-in.o
                0x000000008781bb14                dev_print
 .text.init_part
                0x000000008781bd28       0x20 disk/built-in.o
                0x000000008781bd28                init_part
 .text.print_part
                0x000000008781bd48       0xf4 disk/built-in.o
                0x000000008781bd48                print_part
 .text.get_partition_info
                0x000000008781be3c       0x2c disk/built-in.o
                0x000000008781be3c                get_partition_info
 .text.get_device
                0x000000008781be68      0x138 disk/built-in.o
                0x000000008781be68                get_device
 .text.get_device_and_partition
                0x000000008781bfa0      0x3ec disk/built-in.o
                0x000000008781bfa0                get_device_and_partition
 .text.test_block_type
                0x000000008781c38c       0x84 disk/built-in.o
 .text.print_partition_extended
                0x000000008781c410      0x274 disk/built-in.o
 .text.get_partition_info_extended.constprop.1
                0x000000008781c684      0x2e4 disk/built-in.o
 .text.test_part_dos
                0x000000008781c968       0x60 disk/built-in.o
                0x000000008781c968                test_part_dos
 .text.print_part_dos
                0x000000008781c9c8       0x34 disk/built-in.o
                0x000000008781c9c8                print_part_dos
 .text.get_partition_info_dos
                0x000000008781c9fc       0x20 disk/built-in.o
                0x000000008781c9fc                get_partition_info_dos
 .text.alloc_priv
                0x000000008781ca1c       0x44 drivers/built-in.o
 .text.device_bind
                0x000000008781ca60      0x304 drivers/built-in.o
                0x000000008781ca60                device_bind
 .text.device_bind_by_name
                0x000000008781cd64       0x60 drivers/built-in.o
                0x000000008781cd64                device_bind_by_name
 .text.device_probe
                0x000000008781cdc4      0x21c drivers/built-in.o
                0x000000008781cdc4                device_probe
 .text.dev_get_platdata
                0x000000008781cfe0       0x30 drivers/built-in.o
                0x000000008781cfe0                dev_get_platdata
 .text.dev_get_priv
                0x000000008781d010       0x30 drivers/built-in.o
                0x000000008781d010                dev_get_priv
 .text.lists_driver_lookup_name
                0x000000008781d040       0x48 drivers/built-in.o
                0x000000008781d040                lists_driver_lookup_name
 .text.lists_uclass_lookup
                0x000000008781d088       0x38 drivers/built-in.o
                0x000000008781d088                lists_uclass_lookup
 .text.lists_bind_drivers
                0x000000008781d0c0       0x8c drivers/built-in.o
                0x000000008781d0c0                lists_bind_drivers
 .text.dm_root  0x000000008781d14c       0x2c drivers/built-in.o
                0x000000008781d14c                dm_root
 .text.dm_init  0x000000008781d178       0x58 drivers/built-in.o
                0x000000008781d178                dm_init
 .text.dm_scan_platdata
                0x000000008781d1d0       0x2c drivers/built-in.o
                0x000000008781d1d0                dm_scan_platdata
 .text.dm_scan_other
                0x000000008781d1fc        0x8 drivers/built-in.o
                0x000000008781d1fc                dm_scan_other
 .text.dm_init_and_scan
                0x000000008781d204       0x30 drivers/built-in.o
                0x000000008781d204                dm_init_and_scan
 .text.uclass_find
                0x000000008781d234       0x4c drivers/built-in.o
                0x000000008781d234                uclass_find
 .text.uclass_get
                0x000000008781d280      0x118 drivers/built-in.o
                0x000000008781d280                uclass_get
 .text.uclass_find_device
                0x000000008781d398       0x74 drivers/built-in.o
                0x000000008781d398                uclass_find_device
 .text.uclass_find_device_by_seq
                0x000000008781d40c       0x7c drivers/built-in.o
                0x000000008781d40c                uclass_find_device_by_seq
 .text.uclass_get_device_tail
                0x000000008781d488       0x30 drivers/built-in.o
                0x000000008781d488                uclass_get_device_tail
 .text.uclass_get_device
                0x000000008781d4b8       0x30 drivers/built-in.o
                0x000000008781d4b8                uclass_get_device
 .text.uclass_bind_device
                0x000000008781d4e8       0x7c drivers/built-in.o
                0x000000008781d4e8                uclass_bind_device
 .text.uclass_unbind_device
                0x000000008781d564       0x4c drivers/built-in.o
                0x000000008781d564                uclass_unbind_device
 .text.uclass_resolve_seq
                0x000000008781d5b0       0xb4 drivers/built-in.o
                0x000000008781d5b0                uclass_resolve_seq
 .text.uclass_pre_probe_device
                0x000000008781d664       0x60 drivers/built-in.o
                0x000000008781d664                uclass_pre_probe_device
 .text.uclass_post_probe_device
                0x000000008781d6c4       0x20 drivers/built-in.o
                0x000000008781d6c4                uclass_post_probe_device
 .text.uclass_pre_remove_device
                0x000000008781d6e4       0x20 drivers/built-in.o
                0x000000008781d6e4                uclass_pre_remove_device
 .text.dm_warn  0x000000008781d704       0x28 drivers/built-in.o
                0x000000008781d704                dm_warn
 .text.device_free
                0x000000008781d72c       0x90 drivers/built-in.o
                0x000000008781d72c                device_free
 .text.device_remove
                0x000000008781d7bc      0x128 drivers/built-in.o
                0x000000008781d7bc                device_remove
 .text.show_devices
                0x000000008781d8e4      0x100 drivers/built-in.o
 .text.dm_dump_all
                0x000000008781d9e4       0x3c drivers/built-in.o
                0x000000008781d9e4                dm_dump_all
 .text.dm_dump_uclass
                0x000000008781da20       0xec drivers/built-in.o
                0x000000008781da20                dm_dump_uclass
 .text.finish_access
                0x000000008781db0c       0x2c drivers/built-in.o
 .text.setup_direct_access
                0x000000008781db38      0x11c drivers/built-in.o
 .text.prepare_access
                0x000000008781dc54       0xcc drivers/built-in.o
 .text.fuse_bank_physical
                0x000000008781dd20       0xcc drivers/built-in.o
                0x000000008781dd20                fuse_bank_physical
 .text.fuse_word_physical
                0x000000008781ddec       0x40 drivers/built-in.o
                0x000000008781ddec                fuse_word_physical
 .text.fuse_read
                0x000000008781de2c       0x80 drivers/built-in.o
                0x000000008781de2c                fuse_read
 .text.fuse_sense
                0x000000008781deac       0x94 drivers/built-in.o
                0x000000008781deac                fuse_sense
 .text.fuse_prog
                0x000000008781df40       0x88 drivers/built-in.o
                0x000000008781df40                fuse_prog
 .text.fuse_override
                0x000000008781dfc8       0x78 drivers/built-in.o
                0x000000008781dfc8                fuse_override
 .text.video_invertchar
                0x000000008781e040       0x78 drivers/built-in.o
 .text.draw_bitmap
                0x000000008781e0b8       0xdc drivers/built-in.o
 .text.console_cursor.part.0
                0x000000008781e194       0x28 drivers/built-in.o
 .text.console_newline.constprop.3
                0x000000008781e1bc       0xd0 drivers/built-in.o
 .text.board_cfb_skip
                0x000000008781e28c        0x8 drivers/built-in.o
                0x000000008781e28c                board_cfb_skip
 .text.console_cursor
                0x000000008781e294       0x98 drivers/built-in.o
                0x000000008781e294                console_cursor
 .text.video_putc
                0x000000008781e32c      0x504 drivers/built-in.o
 .text.video_puts
                0x000000008781e830       0x7c drivers/built-in.o
 .text.video_set_lut
                0x000000008781e8ac        0x4 drivers/built-in.o
                0x000000008781e8ac                video_set_lut
 .text.display_rle8_bitmap
                0x000000008781e8b0      0x384 drivers/built-in.o
 .text.video_display_bitmap
                0x000000008781ec34      0x968 drivers/built-in.o
                0x000000008781ec34                video_display_bitmap
 .text.video_clear
                0x000000008781f59c       0x54 drivers/built-in.o
                0x000000008781f59c                video_clear
 .text.drv_video_init
                0x000000008781f5f0      0x20c drivers/built-in.o
                0x000000008781f5f0                drv_video_init
 .text.mxsfb_system_setup
                0x000000008781f7fc        0x4 drivers/built-in.o
                0x000000008781f7fc                mxsfb_system_setup
 .text.mxs_lcd_panel_setup
                0x000000008781f800       0x78 drivers/built-in.o
                0x000000008781f800                mxs_lcd_panel_setup
 .text.lcdif_power_down
                0x000000008781f878       0x5c drivers/built-in.o
                0x000000008781f878                lcdif_power_down
 .text.video_hw_init
                0x000000008781f8d4      0x374 drivers/built-in.o
                0x000000008781f8d4                video_hw_init
 .text.video_get_param_len.constprop.1
                0x000000008781fc48       0x20 drivers/built-in.o
 .text.video_get_params
                0x000000008781fc68      0x4e8 drivers/built-in.o
                0x000000008781fc68                video_get_params
 .text.reset_cpu
                0x0000000087820150       0x48 drivers/built-in.o
                0x0000000087820150                reset_cpu
 .text.thermal_get_temp
                0x0000000087820198       0x20 drivers/built-in.o
                0x0000000087820198                thermal_get_temp
 .text.read_cpu_temperature
                0x00000000878201b8      0x148 drivers/built-in.o
 .text.imx_thermal_get_temp
                0x0000000087820300       0x74 drivers/built-in.o
                0x0000000087820300                imx_thermal_get_temp
 .text.imx_thermal_probe
                0x0000000087820374       0xc0 drivers/built-in.o
 .text.gpio_set_value
                0x0000000087820434       0x48 drivers/gpio/built-in.o
                0x0000000087820434                gpio_set_value
 .text.gpio_get_value
                0x000000008782047c       0x34 drivers/gpio/built-in.o
                0x000000008782047c                gpio_get_value
 .text.gpio_request
                0x00000000878204b0       0x10 drivers/gpio/built-in.o
                0x00000000878204b0                gpio_request
 .text.gpio_free
                0x00000000878204c0        0x8 drivers/gpio/built-in.o
                0x00000000878204c0                gpio_free
 .text.gpio_direction_input
                0x00000000878204c8       0x3c drivers/gpio/built-in.o
                0x00000000878204c8                gpio_direction_input
 .text.gpio_direction_output
                0x0000000087820504       0x50 drivers/gpio/built-in.o
                0x0000000087820504                gpio_direction_output
 .text.i2c_get_adapter
                0x0000000087820554       0x60 drivers/i2c/built-in.o
                0x0000000087820554                i2c_get_adapter
 .text.i2c_init_bus
                0x00000000878205b4       0x90 drivers/i2c/built-in.o
 .text.i2c_get_bus_num
                0x0000000087820644        0x8 drivers/i2c/built-in.o
                0x0000000087820644                i2c_get_bus_num
 .text.i2c_set_bus_num
                0x000000008782064c       0xb8 drivers/i2c/built-in.o
                0x000000008782064c                i2c_set_bus_num
 .text.i2c_init_all
                0x0000000087820704       0x14 drivers/i2c/built-in.o
                0x0000000087820704                i2c_init_all
 .text.i2c_probe
                0x0000000087820718       0x2c drivers/i2c/built-in.o
                0x0000000087820718                i2c_probe
 .text.i2c_read
                0x0000000087820744       0x4c drivers/i2c/built-in.o
                0x0000000087820744                i2c_read
 .text.i2c_write
                0x0000000087820790       0x4c drivers/i2c/built-in.o
                0x0000000087820790                i2c_write
 .text.i2c_set_bus_speed
                0x00000000878207dc       0x64 drivers/i2c/built-in.o
                0x00000000878207dc                i2c_set_bus_speed
 .text.i2c_get_bus_speed
                0x0000000087820840       0x14 drivers/i2c/built-in.o
                0x0000000087820840                i2c_get_bus_speed
 .text.i2c_init
                0x0000000087820854       0x14 drivers/i2c/built-in.o
                0x0000000087820854                i2c_init
 .text.wait_for_sr_state
                0x0000000087820868      0x100 drivers/i2c/built-in.o
 .text.tx_byte  0x0000000087820968       0x50 drivers/i2c/built-in.o
 .text.bus_i2c_set_bus_speed
                0x00000000878209b8       0xb4 drivers/i2c/built-in.o
 .text.mxc_i2c_set_bus_speed
                0x0000000087820a6c       0x18 drivers/i2c/built-in.o
 .text.i2c_imx_stop
                0x0000000087820a84       0x50 drivers/i2c/built-in.o
 .text.__i2c_force_reset_slave
                0x0000000087820ad4        0x4 drivers/i2c/built-in.o
                0x0000000087820ad4                __i2c_force_reset_slave
                0x0000000087820ad4                i2c_force_reset_slave
 .text.i2c_idle_bus
                0x0000000087820ad8       0x24 drivers/i2c/built-in.o
                0x0000000087820ad8                i2c_idle_bus
 .text.i2c_init_transfer
                0x0000000087820afc      0x210 drivers/i2c/built-in.o
 .text.mxc_i2c_probe
                0x0000000087820d0c       0x40 drivers/i2c/built-in.o
 .text.mxc_i2c_read
                0x0000000087820d4c      0x180 drivers/i2c/built-in.o
 .text.mxc_i2c_write
                0x0000000087820ecc       0x6c drivers/i2c/built-in.o
 .text.bus_i2c_init
                0x0000000087820f38       0x70 drivers/i2c/built-in.o
                0x0000000087820f38                bus_i2c_init
 .text.mxc_i2c_init
                0x0000000087820fa8       0x1c drivers/i2c/built-in.o
 .text.esdhc_getcd
                0x0000000087820fc4       0x40 drivers/mmc/built-in.o
 .text.esdhc_set_ios
                0x0000000087821004      0x120 drivers/mmc/built-in.o
 .text.esdhc_init
                0x0000000087821124       0xb8 drivers/mmc/built-in.o
 .text.check_and_invalidate_dcache_range.isra.0
                0x00000000878211dc       0x30 drivers/mmc/built-in.o
 .text.esdhc_send_cmd
                0x000000008782120c      0x3f4 drivers/mmc/built-in.o
 .text.fsl_esdhc_initialize
                0x0000000087821600      0x16c drivers/mmc/built-in.o
                0x0000000087821600                fsl_esdhc_initialize
 .text.fsl_esdhc_mmc_init
                0x000000008782176c       0x38 drivers/mmc/built-in.o
                0x000000008782176c                fsl_esdhc_mmc_init
 .text.mmc_set_ios
                0x00000000878217a4       0x18 drivers/mmc/built-in.o
 .text.mmc_set_capacity
                0x00000000878217bc       0xa8 drivers/mmc/built-in.o
 .text.board_mmc_getwp
                0x0000000087821864        0x8 drivers/mmc/built-in.o
                0x0000000087821864                board_mmc_getwp
 .text.mmc_getwp
                0x000000008782186c       0x3c drivers/mmc/built-in.o
                0x000000008782186c                mmc_getwp
 .text.mmc_send_cmd
                0x00000000878218a8       0x10 drivers/mmc/built-in.o
                0x00000000878218a8                mmc_send_cmd
 .text.mmc_send_ext_csd
                0x00000000878218b8       0x4c drivers/mmc/built-in.o
 .text.mmc_go_idle
                0x0000000087821904       0x4c drivers/mmc/built-in.o
 .text.mmc_send_op_cond_iter
                0x0000000087821950       0x78 drivers/mmc/built-in.o
 .text.mmc_send_status
                0x00000000878219c8       0xdc drivers/mmc/built-in.o
                0x00000000878219c8                mmc_send_status
 .text.mmc_switch.isra.0
                0x0000000087821aa4       0x54 drivers/mmc/built-in.o
 .text.mmc_set_blocklen
                0x0000000087821af8       0x40 drivers/mmc/built-in.o
                0x0000000087821af8                mmc_set_blocklen
 .text.find_mmc_device
                0x0000000087821b38       0x50 drivers/mmc/built-in.o
                0x0000000087821b38                find_mmc_device
 .text.mmc_switch_part
                0x0000000087821b88       0x60 drivers/mmc/built-in.o
                0x0000000087821b88                mmc_switch_part
 .text.mmc_select_hwpart
                0x0000000087821be8       0x64 drivers/mmc/built-in.o
                0x0000000087821be8                mmc_select_hwpart
 .text.mmc_bread
                0x0000000087821c4c      0x168 drivers/mmc/built-in.o
 .text.mmc_hwpart_config
                0x0000000087821db4      0x404 drivers/mmc/built-in.o
                0x0000000087821db4                mmc_hwpart_config
 .text.mmc_getcd
                0x00000000878221b8       0x3c drivers/mmc/built-in.o
                0x00000000878221b8                mmc_getcd
 .text.mmc_set_clock
                0x00000000878221f4       0x24 drivers/mmc/built-in.o
                0x00000000878221f4                mmc_set_clock
 .text.mmc_startup
                0x0000000087822218      0xd88 drivers/mmc/built-in.o
 .text.mmc_create
                0x0000000087822fa0       0xf8 drivers/mmc/built-in.o
                0x0000000087822fa0                mmc_create
 .text.board_mmc_power_init
                0x0000000087823098        0x4 drivers/mmc/built-in.o
                0x0000000087823098                board_mmc_power_init
 .text.mmc_start_init
                0x000000008782309c      0x250 drivers/mmc/built-in.o
                0x000000008782309c                mmc_start_init
 .text.mmc_init
                0x00000000878232ec       0xf4 drivers/mmc/built-in.o
                0x00000000878232ec                mmc_init
 .text.mmc_get_dev
                0x00000000878233e0       0x2c drivers/mmc/built-in.o
                0x00000000878233e0                mmc_get_dev
 .text.mmc_set_dsr
                0x000000008782340c        0xc drivers/mmc/built-in.o
                0x000000008782340c                mmc_set_dsr
 .text.print_mmc_devices
                0x0000000087823418       0xc0 drivers/mmc/built-in.o
                0x0000000087823418                print_mmc_devices
 .text.get_mmc_num
                0x00000000878234d8       0x10 drivers/mmc/built-in.o
                0x00000000878234d8                get_mmc_num
 .text.mmc_initialize
                0x00000000878234e8       0x94 drivers/mmc/built-in.o
                0x00000000878234e8                mmc_initialize
 .text.mmc_boot_partition_size_change
                0x000000008782357c       0xc4 drivers/mmc/built-in.o
                0x000000008782357c                mmc_boot_partition_size_change
 .text.mmc_set_boot_bus_width
                0x0000000087823640       0x14 drivers/mmc/built-in.o
                0x0000000087823640                mmc_set_boot_bus_width
 .text.mmc_set_part_conf
                0x0000000087823654       0x14 drivers/mmc/built-in.o
                0x0000000087823654                mmc_set_part_conf
 .text.mmc_set_rst_n_function
                0x0000000087823668        0xc drivers/mmc/built-in.o
                0x0000000087823668                mmc_set_rst_n_function
 .text.mmc_berase
                0x0000000087823674      0x1b4 drivers/mmc/built-in.o
                0x0000000087823674                mmc_berase
 .text.mmc_bwrite
                0x0000000087823828      0x170 drivers/mmc/built-in.o
                0x0000000087823828                mmc_bwrite
 .text.mtd_arg_off
                0x0000000087823998       0x68 drivers/mtd/built-in.o
                0x0000000087823998                mtd_arg_off
 .text.mtd_arg_off_size
                0x0000000087823a00      0x118 drivers/mtd/built-in.o
                0x0000000087823a00                mtd_arg_off_size
 .text.spi_flash_probe
                0x0000000087823b18       0x78 drivers/mtd/spi/built-in.o
                0x0000000087823b18                spi_flash_probe
 .text.spi_flash_free
                0x0000000087823b90       0x1c drivers/mtd/spi/built-in.o
                0x0000000087823b90                spi_flash_free
 .text.stm_is_locked_sr
                0x0000000087823bac       0x7c drivers/mtd/spi/built-in.o
 .text.spi_flash_read_common
                0x0000000087823c28       0x5c drivers/mtd/spi/built-in.o
                0x0000000087823c28                spi_flash_read_common
 .text.read_sr  0x0000000087823c84       0x30 drivers/mtd/spi/built-in.o
 .text.stm_is_locked
                0x0000000087823cb4       0x4c drivers/mtd/spi/built-in.o
                0x0000000087823cb4                stm_is_locked
 .text.spi_flash_write_common
                0x0000000087823d00      0x138 drivers/mtd/spi/built-in.o
                0x0000000087823d00                spi_flash_write_common
 .text.spi_flash_write_bar
                0x0000000087823e38       0x60 drivers/mtd/spi/built-in.o
 .text.spi_flash_cmd_erase_ops
                0x0000000087823e98       0xf8 drivers/mtd/spi/built-in.o
                0x0000000087823e98                spi_flash_cmd_erase_ops
 .text.spi_flash_cmd_write_ops
                0x0000000087823f90      0x104 drivers/mtd/spi/built-in.o
                0x0000000087823f90                spi_flash_cmd_write_ops
 .text.write_sr
                0x0000000087824094       0x2c drivers/mtd/spi/built-in.o
 .text.stm_lock
                0x00000000878240c0      0x174 drivers/mtd/spi/built-in.o
                0x00000000878240c0                stm_lock
 .text.stm_unlock
                0x0000000087824234      0x1b0 drivers/mtd/spi/built-in.o
                0x0000000087824234                stm_unlock
 .text.spi_flash_copy_mmap
                0x00000000878243e4        0x4 drivers/mtd/spi/built-in.o
                0x00000000878243e4                spi_flash_copy_mmap
 .text.spi_flash_cmd_read_ops
                0x00000000878243e8      0x154 drivers/mtd/spi/built-in.o
                0x00000000878243e8                spi_flash_cmd_read_ops
 .text.spi_flash_scan
                0x000000008782453c      0x464 drivers/mtd/spi/built-in.o
                0x000000008782453c                spi_flash_scan
 .text.spi_flash_read_write
                0x00000000878249a0       0x74 drivers/mtd/spi/built-in.o
 .text.spi_flash_cmd_read
                0x0000000087824a14       0x1c drivers/mtd/spi/built-in.o
                0x0000000087824a14                spi_flash_cmd_read
 .text.spi_flash_cmd
                0x0000000087824a30       0x28 drivers/mtd/spi/built-in.o
                0x0000000087824a30                spi_flash_cmd
 .text.spi_flash_cmd_write
                0x0000000087824a58       0x20 drivers/mtd/spi/built-in.o
                0x0000000087824a58                spi_flash_cmd_write
 .text.fec_set_hwaddr
                0x0000000087824a78       0x78 drivers/net/built-in.o
 .text.fec_reg_setup
                0x0000000087824af0       0x60 drivers/net/built-in.o
 .text.fec_phy_write
                0x0000000087824b50       0x80 drivers/net/built-in.o
 .text.fec_phy_read
                0x0000000087824bd0       0x80 drivers/net/built-in.o
 .text.fec_halt
                0x0000000087824c50       0x68 drivers/net/built-in.o
 .text.fec_send
                0x0000000087824cb8      0x12c drivers/net/built-in.o
 .text.fec_mii_setspeed
                0x0000000087824de4       0x5c drivers/net/built-in.o
 .text.fec_init
                0x0000000087824e40      0x27c drivers/net/built-in.o
 .text.fec_recv
                0x00000000878250bc      0x1fc drivers/net/built-in.o
 .text.fec_probe
                0x00000000878252b8      0x360 drivers/net/built-in.o
                0x00000000878252b8                fec_probe
 .text.fec_get_miibus
                0x0000000087825618       0xa4 drivers/net/built-in.o
                0x0000000087825618                fec_get_miibus
 .text.fecmxc_initialize_multi
                0x00000000878256bc       0x98 drivers/net/built-in.o
                0x00000000878256bc                fecmxc_initialize_multi
 .text.fecmxc_initialize
                0x0000000087825754       0x14 drivers/net/built-in.o
                0x0000000087825754                fecmxc_initialize
 .text.genphy_shutdown
                0x0000000087825768        0x8 drivers/net/phy/built-in.o
                0x0000000087825768                genphy_shutdown
 .text.genphy_restart_aneg
                0x0000000087825770       0x5c drivers/net/phy/built-in.o
                0x0000000087825770                genphy_restart_aneg
 .text.genphy_config_aneg
                0x00000000878257cc      0x1fc drivers/net/phy/built-in.o
                0x00000000878257cc                genphy_config_aneg
 .text.genphy_config
                0x00000000878259c8       0xc4 drivers/net/phy/built-in.o
                0x00000000878259c8                genphy_config
 .text.genphy_update_link
                0x0000000087825a8c      0x1c4 drivers/net/phy/built-in.o
                0x0000000087825a8c                genphy_update_link
 .text.genphy_parse_link
                0x0000000087825c50      0x198 drivers/net/phy/built-in.o
                0x0000000087825c50                genphy_parse_link
 .text.genphy_startup
                0x0000000087825de8       0x1c drivers/net/phy/built-in.o
                0x0000000087825de8                genphy_startup
 .text.phy_init
                0x0000000087825e04       0x10 drivers/net/phy/built-in.o
                0x0000000087825e04                phy_init
 .text.phy_register
                0x0000000087825e14       0x28 drivers/net/phy/built-in.o
                0x0000000087825e14                phy_register
 .text.get_phy_id
                0x0000000087825e3c       0x70 drivers/net/phy/built-in.o
                0x0000000087825e3c                get_phy_id
 .text.get_phy_device_by_mask
                0x0000000087825eac      0x298 drivers/net/phy/built-in.o
 .text.phy_reset
                0x0000000087826144       0xbc drivers/net/phy/built-in.o
                0x0000000087826144                phy_reset
 .text.phy_find_by_mask
                0x0000000087826200       0x3c drivers/net/phy/built-in.o
                0x0000000087826200                phy_find_by_mask
 .text.phy_connect_dev
                0x000000008782623c       0x48 drivers/net/phy/built-in.o
                0x000000008782623c                phy_connect_dev
 .text.phy_startup
                0x0000000087826284       0x1c drivers/net/phy/built-in.o
                0x0000000087826284                phy_startup
 .text.phy_config
                0x00000000878262a0       0x10 drivers/net/phy/built-in.o
                0x00000000878262a0                phy_config
 .text.smsc_startup
                0x00000000878262b0       0x4c drivers/net/phy/built-in.o
 .text.phy_smsc_init
                0x00000000878262fc       0x3c drivers/net/phy/built-in.o
                0x00000000878262fc                phy_smsc_init
 .text.check_reg
                0x0000000087826338       0x2c drivers/power/built-in.o
                0x0000000087826338                check_reg
 .text.pmic_get
                0x0000000087826364       0x54 drivers/power/built-in.o
                0x0000000087826364                pmic_get
 .text.power_get_interface
                0x00000000878263b8       0x2c drivers/power/built-in.o
                0x00000000878263b8                power_get_interface
 .text.do_pmic  0x00000000878263e4      0x2f4 drivers/power/built-in.o
                0x00000000878263e4                do_pmic
 .text.pmic_reg_write
                0x00000000878266d8       0xe4 drivers/power/built-in.o
                0x00000000878266d8                pmic_reg_write
 .text.pmic_reg_read
                0x00000000878267bc       0xf8 drivers/power/built-in.o
                0x00000000878267bc                pmic_reg_read
 .text.serial_stub_start
                0x00000000878268b4        0xc drivers/serial/built-in.o
 .text.serial_stub_stop
                0x00000000878268c0        0xc drivers/serial/built-in.o
 .text.serial_stub_putc
                0x00000000878268cc       0x10 drivers/serial/built-in.o
 .text.serial_stub_puts
                0x00000000878268dc       0x10 drivers/serial/built-in.o
 .text.serial_stub_getc
                0x00000000878268ec        0xc drivers/serial/built-in.o
                0x00000000878268ec                serial_stub_getc
 .text.serial_stub_tstc
                0x00000000878268f8        0xc drivers/serial/built-in.o
                0x00000000878268f8                serial_stub_tstc
 .text.get_current
                0x0000000087826904       0x40 drivers/serial/built-in.o
 .text.serial_null
                0x0000000087826944        0x4 drivers/serial/built-in.o
                0x0000000087826944                jz_serial_initialize
                0x0000000087826944                bfin_serial_initialize
                0x0000000087826944                p3mx_serial_initialize
                0x0000000087826944                leon2_serial_initialize
                0x0000000087826944                leon3_serial_initialize
                0x0000000087826944                stm32_serial_initialize
                0x0000000087826944                amirix_serial_initialize
                0x0000000087826944                marvell_serial_initialize
                0x0000000087826944                cpci750_serial_initialize
                0x0000000087826944                ns16550_serial_initialize
                0x0000000087826944                asc_serial_initialize
                0x0000000087826944                sh_serial_initialize
                0x0000000087826944                oc_serial_initialize
                0x0000000087826944                mxs_auart_initialize
                0x0000000087826944                arm_dcc_initialize
                0x0000000087826944                bmw_serial_initialize
                0x0000000087826944                arc_serial_initialize
                0x0000000087826944                mcf_serial_initialize
                0x0000000087826944                lh7a40x_serial_initialize
                0x0000000087826944                evb64260_serial_initialize
                0x0000000087826944                lpc32xx_serial_initialize
                0x0000000087826944                max3100_serial_initialize
                0x0000000087826944                mpc85xx_serial_initialize
                0x0000000087826944                imx_serial_initialize
                0x0000000087826944                bfin_jtag_initialize
                0x0000000087826944                cogent_serial_initialize
                0x0000000087826944                clps7111_serial_initialize
                0x0000000087826944                ml2_serial_initialize
                0x0000000087826944                sandbox_serial_initialize
                0x0000000087826944                s3c24xx_serial_initialize
                0x0000000087826944                sconsole_serial_initialize
                0x0000000087826944                uartlite_serial_initialize
                0x0000000087826944                au1x00_serial_initialize
                0x0000000087826944                pxa_serial_initialize
                0x0000000087826944                atmel_serial_initialize
                0x0000000087826944                pl01x_serial_initialize
                0x0000000087826944                mpc512x_serial_initialize
                0x0000000087826944                s5p_serial_initialize
                0x0000000087826944                zynq_serial_initialize
                0x0000000087826944                sa1100_serial_initialize
                0x0000000087826944                mpc8260_scc_serial_initialize
                0x0000000087826944                iop480_serial_initialize
                0x0000000087826944                mpc8xx_serial_initialize
                0x0000000087826944                mpc8260_smc_serial_initialize
                0x0000000087826944                mpc5xx_serial_initialize
 .text.serial_register
                0x0000000087826948       0x18 drivers/serial/built-in.o
                0x0000000087826948                serial_register
 .text.serial_stdio_init
                0x0000000087826960       0xa4 drivers/serial/built-in.o
                0x0000000087826960                serial_stdio_init
 .text.serial_assign
                0x0000000087826a04       0x4c drivers/serial/built-in.o
                0x0000000087826a04                serial_assign
 .text.serial_initialize
                0x0000000087826a50       0xc8 drivers/serial/built-in.o
                0x0000000087826a50                serial_initialize
 .text.serial_init
                0x0000000087826b18       0x20 drivers/serial/built-in.o
                0x0000000087826b18                serial_init
 .text.serial_setbrg
                0x0000000087826b38       0x14 drivers/serial/built-in.o
                0x0000000087826b38                serial_setbrg
 .text.on_baudrate
                0x0000000087826b4c       0xf4 drivers/serial/built-in.o
 .text.serial_getc
                0x0000000087826c40       0x14 drivers/serial/built-in.o
                0x0000000087826c40                serial_getc
 .text.serial_tstc
                0x0000000087826c54       0x14 drivers/serial/built-in.o
                0x0000000087826c54                serial_tstc
 .text.serial_putc
                0x0000000087826c68       0x1c drivers/serial/built-in.o
                0x0000000087826c68                serial_putc
 .text.serial_puts
                0x0000000087826c84       0x1c drivers/serial/built-in.o
                0x0000000087826c84                serial_puts
 .text.default_serial_puts
                0x0000000087826ca0       0x2c drivers/serial/built-in.o
                0x0000000087826ca0                default_serial_puts
 .text.mxc_serial_getc
                0x0000000087826ccc       0x20 drivers/serial/built-in.o
 .text.mxc_serial_tstc
                0x0000000087826cec       0x18 drivers/serial/built-in.o
 .text.mxc_serial_putc
                0x0000000087826d04       0x28 drivers/serial/built-in.o
 .text.mxc_serial_setbrg
                0x0000000087826d2c       0x48 drivers/serial/built-in.o
 .text.mxc_serial_init
                0x0000000087826d74       0x64 drivers/serial/built-in.o
 .text.mxc_serial_initialize
                0x0000000087826dd8        0xc drivers/serial/built-in.o
                0x0000000087826dd8                mxc_serial_initialize
 .text.default_serial_console
                0x0000000087826de4        0xc drivers/serial/built-in.o
                0x0000000087826de4                default_serial_console
 .text.spi_do_alloc_slave
                0x0000000087826df0       0x4c drivers/spi/built-in.o
                0x0000000087826df0                spi_do_alloc_slave
 .text.fsl_qspi_runcmd
                0x0000000087826e3c      0x204 drivers/spi/built-in.o
 .text.spi_setup_slave
                0x0000000087827040      0x2d0 drivers/spi/built-in.o
                0x0000000087827040                spi_setup_slave
 .text.spi_free_slave
                0x0000000087827310       0x1c drivers/spi/built-in.o
                0x0000000087827310                spi_free_slave
 .text.spi_claim_bus
                0x000000008782732c        0x8 drivers/spi/built-in.o
                0x000000008782732c                spi_claim_bus
 .text.spi_release_bus
                0x0000000087827334        0x4 drivers/spi/built-in.o
                0x0000000087827334                spi_release_bus
 .text.spi_xfer
                0x0000000087827338      0x224 drivers/spi/built-in.o
                0x0000000087827338                spi_xfer
 .text.usb_host_eth_scan
                0x000000008782755c      0x1d4 drivers/usb/eth/built-in.o
                0x000000008782755c                usb_host_eth_scan
 .text.asix_halt
                0x0000000087827730        0x4 drivers/usb/eth/built-in.o
 .text.asix_send_common
                0x0000000087827734       0xa0 drivers/usb/eth/built-in.o
 .text.asix_send
                0x00000000878277d4        0x8 drivers/usb/eth/built-in.o
 .text.asix_recv
                0x00000000878277dc      0x120 drivers/usb/eth/built-in.o
 .text.asix_write_cmd.isra.0
                0x00000000878278fc       0x4c drivers/usb/eth/built-in.o
 .text.asix_write_hwaddr_common
                0x0000000087827948       0x48 drivers/usb/eth/built-in.o
 .text.asix_write_hwaddr
                0x0000000087827990        0xc drivers/usb/eth/built-in.o
 .text.asix_mdio_write
                0x000000008782799c       0x84 drivers/usb/eth/built-in.o
 .text.asix_sw_reset
                0x0000000087827a20       0x40 drivers/usb/eth/built-in.o
 .text.asix_read_cmd.isra.1
                0x0000000087827a60       0x50 drivers/usb/eth/built-in.o
 .text.asix_mdio_read
                0x0000000087827ab0       0x84 drivers/usb/eth/built-in.o
 .text.asix_read_rx_ctl
                0x0000000087827b34       0x44 drivers/usb/eth/built-in.o
 .text.asix_init
                0x0000000087827b78       0xf0 drivers/usb/eth/built-in.o
 .text.asix_eth_before_probe
                0x0000000087827c68       0x14 drivers/usb/eth/built-in.o
                0x0000000087827c68                asix_eth_before_probe
 .text.asix_eth_probe
                0x0000000087827c7c      0x188 drivers/usb/eth/built-in.o
                0x0000000087827c7c                asix_eth_probe
 .text.asix_eth_get_info
                0x0000000087827e04      0x328 drivers/usb/eth/built-in.o
                0x0000000087827e04                asix_eth_get_info
 .text.ehci_get_port_speed
                0x000000008782812c        0x8 drivers/usb/host/built-in.o
 .text.ehci_set_usbmode
                0x0000000087828134       0x18 drivers/usb/host/built-in.o
 .text.ehci_get_portsc_register
                0x000000008782814c       0x18 drivers/usb/host/built-in.o
 .text.ehci_powerup_fixup
                0x0000000087828164        0x8 drivers/usb/host/built-in.o
 .text.handshake
                0x000000008782816c       0x4c drivers/usb/host/built-in.o
 .text.ehci_shutdown
                0x00000000878281b8       0xa8 drivers/usb/host/built-in.o
 .text.ehci_td_buffer
                0x0000000087828260       0x84 drivers/usb/host/built-in.o
 .text._ehci_poll_int_queue
                0x00000000878282e4       0xbc drivers/usb/host/built-in.o
 .text.disable_periodic.isra.2
                0x00000000878283a0       0x48 drivers/usb/host/built-in.o
 .text.enable_periodic.isra.3
                0x00000000878283e8       0x50 drivers/usb/host/built-in.o
 .text._ehci_destroy_int_queue
                0x0000000087828438       0xd0 drivers/usb/host/built-in.o
 .text.ehci_update_endpt2_dev_n_port.isra.4
                0x0000000087828508       0x60 drivers/usb/host/built-in.o
 .text.ehci_submit_async
                0x0000000087828568      0x5b0 drivers/usb/host/built-in.o
 .text._ehci_create_int_queue.isra.6
                0x0000000087828b18      0x388 drivers/usb/host/built-in.o
 .text.usb_lowlevel_stop
                0x0000000087828ea0       0x28 drivers/usb/host/built-in.o
                0x0000000087828ea0                usb_lowlevel_stop
 .text.usb_lowlevel_init
                0x0000000087828ec8      0x2b8 drivers/usb/host/built-in.o
                0x0000000087828ec8                usb_lowlevel_init
 .text.submit_bulk_msg
                0x0000000087829180       0x28 drivers/usb/host/built-in.o
                0x0000000087829180                submit_bulk_msg
 .text.submit_control_msg
                0x00000000878291a8      0x50c drivers/usb/host/built-in.o
                0x00000000878291a8                submit_control_msg
 .text.submit_int_msg
                0x00000000878296b4       0xa0 drivers/usb/host/built-in.o
                0x00000000878296b4                submit_int_msg
 .text.usb_phy_mode
                0x0000000087829754       0x18 drivers/usb/host/built-in.o
                0x0000000087829754                usb_phy_mode
 .text.board_ehci_power
                0x000000008782976c        0x8 drivers/usb/host/built-in.o
                0x000000008782976c                board_ehci_power
 .text.ehci_hcd_init
                0x0000000087829774      0x234 drivers/usb/host/built-in.o
                0x0000000087829774                ehci_hcd_init
 .text.ehci_hcd_stop
                0x00000000878299a8        0x8 drivers/usb/host/built-in.o
                0x00000000878299a8                ehci_hcd_stop
 .text.fs_probe_unsupported
                0x00000000878299b0       0x18 fs/built-in.o
 .text.fs_ls_unsupported
                0x00000000878299c8        0x8 fs/built-in.o
 .text.fs_exists_unsupported
                0x00000000878299d0        0x8 fs/built-in.o
 .text.fs_size_unsupported
                0x00000000878299d8        0x8 fs/built-in.o
 .text.fs_read_unsupported
                0x00000000878299e0        0x8 fs/built-in.o
 .text.fs_close_unsupported
                0x00000000878299e8        0x4 fs/built-in.o
 .text.fs_get_info
                0x00000000878299ec       0x34 fs/built-in.o
 .text.fs_close
                0x0000000087829a20       0x28 fs/built-in.o
 .text.fs_write_unsupported
                0x0000000087829a48        0x8 fs/built-in.o
 .text.fs_uuid_unsupported
                0x0000000087829a50        0x8 fs/built-in.o
 .text.fs_set_blk_dev
                0x0000000087829a58       0xc0 fs/built-in.o
                0x0000000087829a58                fs_set_blk_dev
 .text.fs_ls    0x0000000087829b18       0x3c fs/built-in.o
                0x0000000087829b18                fs_ls
 .text.fs_exists
                0x0000000087829b54       0x34 fs/built-in.o
                0x0000000087829b54                fs_exists
 .text.fs_size  0x0000000087829b88       0x3c fs/built-in.o
                0x0000000087829b88                fs_size
 .text.fs_read  0x0000000087829bc4       0xa0 fs/built-in.o
                0x0000000087829bc4                fs_read
 .text.fs_write
                0x0000000087829c64       0x90 fs/built-in.o
                0x0000000087829c64                fs_write
 .text.do_size  0x0000000087829cf4       0x60 fs/built-in.o
                0x0000000087829cf4                do_size
 .text.do_load  0x0000000087829d54      0x244 fs/built-in.o
                0x0000000087829d54                do_load
 .text.do_ls    0x0000000087829f98       0x68 fs/built-in.o
                0x0000000087829f98                do_ls
 .text.file_exists
                0x000000008782a000       0x2c fs/built-in.o
                0x000000008782a000                file_exists
 .text.do_save  0x000000008782a02c      0x178 fs/built-in.o
                0x000000008782a02c                do_save
 .text.do_fs_type
                0x000000008782a1a4       0x70 fs/built-in.o
                0x000000008782a1a4                do_fs_type
 .text.get_fs   0x000000008782a214        0xc fs/built-in.o
                0x000000008782a214                get_fs
 .text.ext4fs_free_node
                0x000000008782a220       0x20 fs/built-in.o
                0x000000008782a220                ext4fs_free_node
 .text.ext4fs_read_file
                0x000000008782a240      0x36c fs/built-in.o
                0x000000008782a240                ext4fs_read_file
 .text.ext4fs_ls
                0x000000008782a5ac       0x78 fs/built-in.o
                0x000000008782a5ac                ext4fs_ls
 .text.ext4fs_exists
                0x000000008782a624       0x1c fs/built-in.o
                0x000000008782a624                ext4fs_exists
 .text.ext4fs_size
                0x000000008782a640        0x4 fs/built-in.o
                0x000000008782a640                ext4fs_size
 .text.ext4fs_read
                0x000000008782a644       0x54 fs/built-in.o
                0x000000008782a644                ext4fs_read
 .text.ext4fs_probe
                0x000000008782a698       0x30 fs/built-in.o
                0x000000008782a698                ext4fs_probe
 .text.ext4_read_file
                0x000000008782a6c8       0x7c fs/built-in.o
                0x000000008782a6c8                ext4_read_file
 .text.ext4fs_uuid
                0x000000008782a744       0x1c fs/built-in.o
                0x000000008782a744                ext4fs_uuid
 .text.ext4fs_div_roundup
                0x000000008782a760       0x20 fs/built-in.o
                0x000000008782a760                ext4fs_div_roundup
 .text.put_ext4
                0x000000008782a780      0x1b4 fs/built-in.o
                0x000000008782a780                put_ext4
 .text.ext4fs_set_block_bmap
                0x000000008782a934       0xa8 fs/built-in.o
                0x000000008782a934                ext4fs_set_block_bmap
 .text.ext4fs_reset_block_bmap
                0x000000008782a9dc       0x94 fs/built-in.o
                0x000000008782a9dc                ext4fs_reset_block_bmap
 .text.ext4fs_set_inode_bmap
                0x000000008782aa70       0x70 fs/built-in.o
                0x000000008782aa70                ext4fs_set_inode_bmap
 .text.ext4fs_reset_inode_bmap
                0x000000008782aae0       0x6c fs/built-in.o
                0x000000008782aae0                ext4fs_reset_inode_bmap
 .text.ext4fs_checksum_update
                0x000000008782ab4c       0x68 fs/built-in.o
                0x000000008782ab4c                ext4fs_checksum_update
 .text.ext4fs_get_new_blk_no
                0x000000008782abb4      0x38c fs/built-in.o
                0x000000008782abb4                ext4fs_get_new_blk_no
 .text.ext4fs_get_new_inode_no
                0x000000008782af40      0x380 fs/built-in.o
                0x000000008782af40                ext4fs_get_new_inode_no
 .text.ext4fs_allocate_blocks
                0x000000008782b2c0      0x678 fs/built-in.o
                0x000000008782b2c0                ext4fs_allocate_blocks
 .text.ext4fs_read_inode
                0x000000008782b938      0x118 fs/built-in.o
                0x000000008782b938                ext4fs_read_inode
 .text.ext4fs_iget
                0x000000008782ba50       0x2c fs/built-in.o
                0x000000008782ba50                ext4fs_iget
 .text.read_allocated_block
                0x000000008782ba7c      0x8fc fs/built-in.o
                0x000000008782ba7c                read_allocated_block
 .text.ext4fs_update_parent_dentry
                0x000000008782c378      0x370 fs/built-in.o
                0x000000008782c378                ext4fs_update_parent_dentry
 .text.search_dir
                0x000000008782c6e8      0x120 fs/built-in.o
 .text.ext4fs_get_parent_inode_num
                0x000000008782c808      0x420 fs/built-in.o
                0x000000008782c808                ext4fs_get_parent_inode_num
 .text.ext4fs_filename_check
                0x000000008782cc28      0x160 fs/built-in.o
                0x000000008782cc28                ext4fs_filename_check
 .text.ext4fs_reinit_global
                0x000000008782cd88       0xbc fs/built-in.o
                0x000000008782cd88                ext4fs_reinit_global
 .text.ext4fs_close
                0x000000008782ce44       0x5c fs/built-in.o
                0x000000008782ce44                ext4fs_close
 .text.ext4fs_iterate_dir
                0x000000008782cea0      0x2bc fs/built-in.o
                0x000000008782cea0                ext4fs_iterate_dir
 .text.ext4fs_find_file1
                0x000000008782d15c      0x2bc fs/built-in.o
 .text.ext4fs_find_file
                0x000000008782d418       0x78 fs/built-in.o
                0x000000008782d418                ext4fs_find_file
 .text.ext4fs_open
                0x000000008782d490       0xac fs/built-in.o
                0x000000008782d490                ext4fs_open
 .text.ext4fs_mount
                0x000000008782d53c       0xc0 fs/built-in.o
                0x000000008782d53c                ext4fs_mount
 .text.ext4fs_set_blk_dev
                0x000000008782d5fc       0x78 fs/built-in.o
                0x000000008782d5fc                ext4fs_set_blk_dev
 .text.ext4fs_devread
                0x000000008782d674      0x268 fs/built-in.o
                0x000000008782d674                ext4fs_devread
 .text.ext4_read_superblock
                0x000000008782d8dc       0x38 fs/built-in.o
                0x000000008782d8dc                ext4_read_superblock
 .text.ext4fs_update
                0x000000008782d914       0xe8 fs/built-in.o
 .text.ext4fs_get_bgdtable
                0x000000008782d9fc       0xc0 fs/built-in.o
                0x000000008782d9fc                ext4fs_get_bgdtable
 .text.ext4fs_deinit
                0x000000008782dabc      0x194 fs/built-in.o
                0x000000008782dabc                ext4fs_deinit
 .text.ext4fs_init
                0x000000008782dc50      0x2b8 fs/built-in.o
                0x000000008782dc50                ext4fs_init
 .text.ext4fs_write
                0x000000008782df08     0x1218 fs/built-in.o
                0x000000008782df08                ext4fs_write
 .text.ext4_write_file
                0x000000008782f120       0x60 fs/built-in.o
                0x000000008782f120                ext4_write_file
 .text.ext4fs_dump_metadata
                0x000000008782f180       0x54 fs/built-in.o
                0x000000008782f180                ext4fs_dump_metadata
 .text.ext4fs_free_journal
                0x000000008782f1d4       0xe8 fs/built-in.o
                0x000000008782f1d4                ext4fs_free_journal
 .text.ext4fs_log_gdt
                0x000000008782f2bc       0xc8 fs/built-in.o
                0x000000008782f2bc                ext4fs_log_gdt
 .text.ext4fs_log_journal
                0x000000008782f384       0xe8 fs/built-in.o
                0x000000008782f384                ext4fs_log_journal
 .text.ext4fs_put_metadata
                0x000000008782f46c       0xbc fs/built-in.o
                0x000000008782f46c                ext4fs_put_metadata
 .text.ext4fs_push_revoke_blk
                0x000000008782f528       0xd8 fs/built-in.o
                0x000000008782f528                ext4fs_push_revoke_blk
 .text.ext4fs_free_revoke_blks
                0x000000008782f600       0x70 fs/built-in.o
                0x000000008782f600                ext4fs_free_revoke_blks
 .text.check_blknr_for_revoke
                0x000000008782f670       0x7c fs/built-in.o
                0x000000008782f670                check_blknr_for_revoke
 .text.recover_transaction
                0x000000008782f6ec      0x16c fs/built-in.o
                0x000000008782f6ec                recover_transaction
 .text.print_jrnl_status
                0x000000008782f858       0x18 fs/built-in.o
                0x000000008782f858                print_jrnl_status
 .text.ext4fs_check_journal_state
                0x000000008782f870      0x2ec fs/built-in.o
                0x000000008782f870                ext4fs_check_journal_state
 .text.ext4fs_init_journal
                0x000000008782fb5c      0x240 fs/built-in.o
                0x000000008782fb5c                ext4fs_init_journal
 .text.ext4fs_update_journal
                0x000000008782fd9c      0x328 fs/built-in.o
                0x000000008782fd9c                ext4fs_update_journal
 .text.ext2fs_crc16
                0x00000000878300c4       0x34 fs/built-in.o
                0x00000000878300c4                ext2fs_crc16
 .text.downcase
                0x00000000878300f8       0x30 fs/built-in.o
 .text.disk_read
                0x0000000087830128       0x70 fs/built-in.o
 .text.dirdelim
                0x0000000087830198       0x38 fs/built-in.o
 .text.get_fatent
                0x00000000878301d0      0x158 fs/built-in.o
 .text.mkcksum  0x0000000087830328       0x50 fs/built-in.o
 .text.disk_write
                0x0000000087830378       0xa0 fs/built-in.o
 .text.flush_fat_buffer
                0x0000000087830418       0x80 fs/built-in.o
 .text.set_fatent_value
                0x0000000087830498      0x108 fs/built-in.o
 .text.get_fatent_value
                0x00000000878305a0      0x1c4 fs/built-in.o
 .text.find_empty_cluster
                0x0000000087830764       0x2c fs/built-in.o
 .text.get_cluster
                0x0000000087830790      0x17c fs/built-in.o
 .text.get_name
                0x000000008783090c       0xac fs/built-in.o
 .text.set_cluster
                0x00000000878309b8      0x17c fs/built-in.o
 .text.read_bootsectandvi
                0x0000000087830b34      0x11c fs/built-in.o
 .text.set_name
                0x0000000087830c50      0x140 fs/built-in.o
 .text.check_overflow
                0x0000000087830d90       0x8c fs/built-in.o
 .text.slot2str
                0x0000000087830e1c       0xc4 fs/built-in.o
 .text.get_vfatname
                0x0000000087830ee0      0x1bc fs/built-in.o
 .text.flush_dir_table.constprop.8
                0x000000008783109c       0xc8 fs/built-in.o
 .text.do_fat_write
                0x0000000087831164      0xbdc fs/built-in.o
 .text.fat_set_blk_dev
                0x0000000087831d40       0xcc fs/built-in.o
                0x0000000087831d40                fat_set_blk_dev
 .text.do_fat_read_at
                0x0000000087831e0c      0xcbc fs/built-in.o
                0x0000000087831e0c                do_fat_read_at
 .text.do_fat_read
                0x0000000087832ac8       0x3c fs/built-in.o
                0x0000000087832ac8                do_fat_read
 .text.file_fat_detectfs
                0x0000000087832b04      0x148 fs/built-in.o
                0x0000000087832b04                file_fat_detectfs
 .text.file_fat_ls
                0x0000000087832c4c       0x2c fs/built-in.o
                0x0000000087832c4c                file_fat_ls
 .text.fat_exists
                0x0000000087832c78       0x44 fs/built-in.o
                0x0000000087832c78                fat_exists
 .text.fat_size
                0x0000000087832cbc       0x38 fs/built-in.o
                0x0000000087832cbc                fat_size
 .text.file_fat_read_at
                0x0000000087832cf4       0x60 fs/built-in.o
                0x0000000087832cf4                file_fat_read_at
 .text.fat_read_file
                0x0000000087832d54       0x48 fs/built-in.o
                0x0000000087832d54                fat_read_file
 .text.fat_close
                0x0000000087832d9c        0x4 fs/built-in.o
                0x0000000087832d9c                fat_close
 .text.file_fat_write
                0x0000000087832da0       0x5c fs/built-in.o
                0x0000000087832da0                file_fat_write
 .text.zcalloc  0x0000000087832dfc        0x8 lib/built-in.o
                0x0000000087832dfc                zcalloc
 .text.zcfree   0x0000000087832e04        0x8 lib/built-in.o
                0x0000000087832e04                zcfree
 .text.inflate_fast
                0x0000000087832e0c      0x574 lib/built-in.o
                0x0000000087832e0c                inflate_fast
 .text.inflate_table
                0x0000000087833380      0x51c lib/built-in.o
                0x0000000087833380                inflate_table
 .text.inflateReset
                0x000000008783389c       0x78 lib/built-in.o
                0x000000008783389c                inflateReset
 .text.inflateInit2_
                0x0000000087833914      0x100 lib/built-in.o
                0x0000000087833914                inflateInit2_
 .text.inflateEnd
                0x0000000087833a14       0x64 lib/built-in.o
                0x0000000087833a14                inflateEnd
 .text.adler32  0x0000000087833a78      0x340 lib/built-in.o
                0x0000000087833a78                adler32
 .text.inflate  0x0000000087833db8     0x14c4 lib/built-in.o
                0x0000000087833db8                inflate
 .text.fdt_check_header
                0x000000008783527c       0x74 lib/built-in.o
                0x000000008783527c                fdt_check_header
 .text.fdt_offset_ptr
                0x00000000878352f0       0x4c lib/built-in.o
                0x00000000878352f0                fdt_offset_ptr
 .text.fdt_next_tag
                0x000000008783533c       0xfc lib/built-in.o
                0x000000008783533c                fdt_next_tag
 .text._fdt_check_node_offset
                0x0000000087835438       0x3c lib/built-in.o
                0x0000000087835438                _fdt_check_node_offset
 .text._fdt_check_prop_offset
                0x0000000087835474       0x3c lib/built-in.o
                0x0000000087835474                _fdt_check_prop_offset
 .text.fdt_next_node
                0x00000000878354b0       0xbc lib/built-in.o
                0x00000000878354b0                fdt_next_node
 .text._fdt_find_string
                0x000000008783556c       0x58 lib/built-in.o
                0x000000008783556c                _fdt_find_string
 .text.fdt_move
                0x00000000878355c4       0x44 lib/built-in.o
                0x00000000878355c4                fdt_move
 .text.fdt_path_next_seperator
                0x0000000087835608       0x44 lib/built-in.o
 .text._nextprop
                0x000000008783564c       0x54 lib/built-in.o
 .text.fdt_string
                0x00000000878356a0       0x14 lib/built-in.o
                0x00000000878356a0                fdt_string
 .text.fdt_get_mem_rsv
                0x00000000878356b4       0x60 lib/built-in.o
                0x00000000878356b4                fdt_get_mem_rsv
 .text.fdt_num_mem_rsv
                0x0000000087835714       0x40 lib/built-in.o
                0x0000000087835714                fdt_num_mem_rsv
 .text.fdt_subnode_offset_namelen
                0x0000000087835754       0xd0 lib/built-in.o
                0x0000000087835754                fdt_subnode_offset_namelen
 .text.fdt_subnode_offset
                0x0000000087835824       0x30 lib/built-in.o
                0x0000000087835824                fdt_subnode_offset
 .text.fdt_get_name
                0x0000000087835854       0x74 lib/built-in.o
                0x0000000087835854                fdt_get_name
 .text.fdt_first_property_offset
                0x00000000878358c8       0x20 lib/built-in.o
                0x00000000878358c8                fdt_first_property_offset
 .text.fdt_next_property_offset
                0x00000000878358e8       0x20 lib/built-in.o
                0x00000000878358e8                fdt_next_property_offset
 .text.fdt_get_property_by_offset
                0x0000000087835908       0x50 lib/built-in.o
                0x0000000087835908                fdt_get_property_by_offset
 .text.fdt_get_property_namelen
                0x0000000087835958       0xbc lib/built-in.o
                0x0000000087835958                fdt_get_property_namelen
 .text.fdt_get_property
                0x0000000087835a14       0x3c lib/built-in.o
                0x0000000087835a14                fdt_get_property
 .text.fdt_getprop_namelen
                0x0000000087835a50       0x20 lib/built-in.o
                0x0000000087835a50                fdt_getprop_namelen
 .text.fdt_getprop_by_offset
                0x0000000087835a70       0x48 lib/built-in.o
                0x0000000087835a70                fdt_getprop_by_offset
 .text.fdt_getprop
                0x0000000087835ab8       0x3c lib/built-in.o
                0x0000000087835ab8                fdt_getprop
 .text.fdt_get_alias_namelen
                0x0000000087835af4       0x44 lib/built-in.o
                0x0000000087835af4                fdt_get_alias_namelen
 .text.fdt_path_offset
                0x0000000087835b38       0xe4 lib/built-in.o
                0x0000000087835b38                fdt_path_offset
 .text.fdt_supernode_atdepth_offset
                0x0000000087835c1c       0xa4 lib/built-in.o
                0x0000000087835c1c                fdt_supernode_atdepth_offset
 .text.fdt_node_depth
                0x0000000087835cc0       0x28 lib/built-in.o
                0x0000000087835cc0                fdt_node_depth
 .text._fdt_blocks_misordered
                0x0000000087835ce8       0x64 lib/built-in.o
 .text._fdt_splice
                0x0000000087835d4c       0x7c lib/built-in.o
 .text._fdt_splice_mem_rsv
                0x0000000087835dc8       0x58 lib/built-in.o
 .text._fdt_splice_struct
                0x0000000087835e20       0x4c lib/built-in.o
 .text._fdt_packblocks
                0x0000000087835e6c       0x8c lib/built-in.o
 .text._fdt_find_add_string
                0x0000000087835ef8       0xa4 lib/built-in.o
 .text._fdt_add_property
                0x0000000087835f9c       0x90 lib/built-in.o
 .text._fdt_rw_check_header
                0x000000008783602c       0x60 lib/built-in.o
 .text.fdt_add_mem_rsv
                0x000000008783608c       0x88 lib/built-in.o
                0x000000008783608c                fdt_add_mem_rsv
 .text.fdt_del_mem_rsv
                0x0000000087836114       0x58 lib/built-in.o
                0x0000000087836114                fdt_del_mem_rsv
 .text.fdt_setprop
                0x000000008783616c       0xdc lib/built-in.o
                0x000000008783616c                fdt_setprop
 .text.fdt_delprop
                0x0000000087836248       0x68 lib/built-in.o
                0x0000000087836248                fdt_delprop
 .text.fdt_add_subnode_namelen
                0x00000000878362b0       0xf0 lib/built-in.o
                0x00000000878362b0                fdt_add_subnode_namelen
 .text.fdt_add_subnode
                0x00000000878363a0       0x30 lib/built-in.o
                0x00000000878363a0                fdt_add_subnode
 .text.fdt_del_node
                0x00000000878363d0       0x50 lib/built-in.o
                0x00000000878363d0                fdt_del_node
 .text.fdt_open_into
                0x0000000087836420      0x190 lib/built-in.o
                0x0000000087836420                fdt_open_into
 .text.fdt_strerror
                0x00000000878365b0       0x58 lib/built-in.o
                0x00000000878365b0                fdt_strerror
 .text._fdt_node_end_offset
                0x0000000087836608       0x44 lib/built-in.o
                0x0000000087836608                _fdt_node_end_offset
 .text.fdt_address_cells
                0x000000008783664c       0x4c lib/built-in.o
                0x000000008783664c                fdt_address_cells
 .text.fdt_size_cells
                0x0000000087836698       0x48 lib/built-in.o
                0x0000000087836698                fdt_size_cells
 .text.cyg_crc16
                0x00000000878366e0       0x44 lib/built-in.o
                0x00000000878366e0                cyg_crc16
 .text.gzalloc  0x0000000087836724       0x10 lib/built-in.o
                0x0000000087836724                gzalloc
 .text.gzfree   0x0000000087836734        0x8 lib/built-in.o
                0x0000000087836734                gzfree
 .text.zunzip   0x000000008783673c      0x11c lib/built-in.o
                0x000000008783673c                zunzip
 .text.gunzip   0x0000000087836858       0xb4 lib/built-in.o
                0x0000000087836858                gunzip
 .text.initcall_run_list
                0x000000008783690c       0x5c lib/built-in.o
                0x000000008783690c                initcall_run_list
 .text.lmb_add_region
                0x0000000087836968      0x190 lib/built-in.o
 .text.lmb_init
                0x0000000087836af8       0x28 lib/built-in.o
                0x0000000087836af8                lmb_init
 .text.lmb_add  0x0000000087836b20        0x4 lib/built-in.o
                0x0000000087836b20                lmb_add
 .text.lmb_free
                0x0000000087836b24       0xe8 lib/built-in.o
                0x0000000087836b24                lmb_free
 .text.lmb_reserve
                0x0000000087836c0c        0x8 lib/built-in.o
                0x0000000087836c0c                lmb_reserve
 .text.__lmb_alloc_base
                0x0000000087836c14      0x124 lib/built-in.o
                0x0000000087836c14                __lmb_alloc_base
 .text.lmb_alloc_base
                0x0000000087836d38       0x34 lib/built-in.o
                0x0000000087836d38                lmb_alloc_base
 .text.lmb_alloc
                0x0000000087836d6c        0x8 lib/built-in.o
                0x0000000087836d6c                lmb_alloc
 .text.board_lmb_reserve
                0x0000000087836d74        0x4 lib/built-in.o
                0x0000000087836d74                board_lmb_reserve
 .text.string_to_ip
                0x0000000087836d78       0x68 lib/built-in.o
                0x0000000087836d78                string_to_ip
 .text.qsort    0x0000000087836de0       0xec lib/built-in.o
                0x0000000087836de0                qsort
 .text.strcmp_compar
                0x0000000087836ecc        0xc lib/built-in.o
                0x0000000087836ecc                strcmp_compar
 .text.cmpkey   0x0000000087836ed8       0x14 lib/built-in.o
 .text._hdelete.isra.0
                0x0000000087836eec       0x50 lib/built-in.o
 .text.drop_var_from_set.part.1
                0x0000000087836f3c       0x50 lib/built-in.o
 .text.match_string
                0x0000000087836f8c       0xb8 lib/built-in.o
 .text.match_entry
                0x0000000087837044       0xb4 lib/built-in.o
 .text.hcreate_r
                0x00000000878370f8       0x98 lib/built-in.o
                0x00000000878370f8                hcreate_r
 .text.hdestroy_r
                0x0000000087837190       0x6c lib/built-in.o
                0x0000000087837190                hdestroy_r
 .text.hmatch_r
                0x00000000878371fc       0x9c lib/built-in.o
                0x00000000878371fc                hmatch_r
 .text.hsearch_r
                0x0000000087837298      0x484 lib/built-in.o
                0x0000000087837298                hsearch_r
 .text.hdelete_r
                0x000000008783771c       0xf0 lib/built-in.o
                0x000000008783771c                hdelete_r
 .text.hexport_r
                0x000000008783780c      0x29c lib/built-in.o
                0x000000008783780c                hexport_r
 .text.himport_r
                0x0000000087837aa8      0x3f4 lib/built-in.o
                0x0000000087837aa8                himport_r
 .text.hwalk_r  0x0000000087837e9c       0x5c lib/built-in.o
                0x0000000087837e9c                hwalk_r
 .text.display_options
                0x0000000087837ef8       0x20 lib/built-in.o
                0x0000000087837ef8                display_options
 .text.print_size
                0x0000000087837f18      0x148 lib/built-in.o
                0x0000000087837f18                print_size
 .text.print_buffer
                0x0000000087838060      0x1ac lib/built-in.o
                0x0000000087838060                print_buffer
 .text.crc32_no_comp
                0x000000008783820c       0xd4 lib/built-in.o
                0x000000008783820c                crc32_no_comp
 .text.crc32    0x00000000878382e0       0x14 lib/built-in.o
                0x00000000878382e0                crc32
 .text.crc32_wd
                0x00000000878382f4        0x4 lib/built-in.o
                0x00000000878382f4                crc32_wd
 .text.__div64_32
                0x00000000878382f8       0xc8 lib/built-in.o
                0x00000000878382f8                __div64_32
 .text.hang     0x00000000878383c0       0x1c lib/built-in.o
                0x00000000878383c0                hang
 .text.skip_spaces
                0x00000000878383dc       0x28 lib/built-in.o
                0x00000000878383dc                skip_spaces
 .text.strim    0x0000000087838404       0x5c lib/built-in.o
                0x0000000087838404                strim
 .text.emit     0x0000000087838460       0x24 lib/built-in.o
 .text.store_char_in_data
                0x0000000087838484       0x28 lib/built-in.o
 .text.get_escape_char
                0x00000000878384ac       0x84 lib/built-in.o
 .text.relocate
                0x0000000087838530       0x40 lib/built-in.o
 .text.match    0x0000000087838570      0x3f4 lib/built-in.o
 .text.loop_greedy
                0x0000000087838964       0x94 lib/built-in.o
 .text.loop_non_greedy
                0x00000000878389f8       0x80 lib/built-in.o
 .text.quantifier
                0x0000000087838a78       0x94 lib/built-in.o
 .text.fixup_branch
                0x0000000087838b0c       0x3c lib/built-in.o
 .text.compile  0x0000000087838b48      0x330 lib/built-in.o
 .text.slre_compile
                0x0000000087838e78       0xc8 lib/built-in.o
                0x0000000087838e78                slre_compile
 .text.slre_match
                0x0000000087838f40       0xa0 lib/built-in.o
                0x0000000087838f40                slre_match
 .text.strcpy   0x0000000087838fe0       0x18 lib/built-in.o
                0x0000000087838fe0                strcpy
 .text.strncpy  0x0000000087838ff8       0x24 lib/built-in.o
                0x0000000087838ff8                strncpy
 .text.strcat   0x000000008783901c       0x34 lib/built-in.o
                0x000000008783901c                strcat
 .text.strncat  0x0000000087839050       0x54 lib/built-in.o
                0x0000000087839050                strncat
 .text.strcmp   0x00000000878390a4       0x28 lib/built-in.o
                0x00000000878390a4                strcmp
 .text.strncmp  0x00000000878390cc       0x3c lib/built-in.o
                0x00000000878390cc                strncmp
 .text.strchr   0x0000000087839108       0x30 lib/built-in.o
                0x0000000087839108                strchr
 .text.strlen   0x0000000087839138       0x24 lib/built-in.o
                0x0000000087839138                strlen
 .text.strrchr  0x000000008783915c       0x3c lib/built-in.o
                0x000000008783915c                strrchr
 .text.strnlen  0x0000000087839198       0x30 lib/built-in.o
                0x0000000087839198                strnlen
 .text.strdup   0x00000000878391c8       0x34 lib/built-in.o
                0x00000000878391c8                strdup
 .text.strspn   0x00000000878391fc       0x3c lib/built-in.o
                0x00000000878391fc                strspn
 .text.strpbrk  0x0000000087839238       0x54 lib/built-in.o
                0x0000000087839238                strpbrk
 .text.strtok   0x000000008783928c       0x74 lib/built-in.o
                0x000000008783928c                strtok
 .text.memset   0x0000000087839300       0x7c lib/built-in.o
                0x0000000087839300                memset
 .text.memcpy   0x000000008783937c       0x8c lib/built-in.o
                0x000000008783937c                memcpy
 .text.strlcpy  0x0000000087839408       0x50 lib/built-in.o
                0x0000000087839408                strlcpy
 .text.memmove  0x0000000087839458       0x44 lib/built-in.o
                0x0000000087839458                memmove
 .text.memcmp   0x000000008783949c       0x44 lib/built-in.o
                0x000000008783949c                memcmp
 .text.strstr   0x00000000878394e0       0x60 lib/built-in.o
                0x00000000878394e0                strstr
 .text.memchr   0x0000000087839540       0x30 lib/built-in.o
                0x0000000087839540                memchr
 .text.udelay   0x0000000087839570       0x30 lib/built-in.o
                0x0000000087839570                udelay
 .text.mdelay   0x00000000878395a0       0x1c lib/built-in.o
                0x00000000878395a0                mdelay
 .text.put_dec_trunc
                0x00000000878395bc       0xd4 lib/built-in.o
 .text.string   0x0000000087839690       0xb8 lib/built-in.o
 .text.put_dec  0x0000000087839748      0x130 lib/built-in.o
 .text.number   0x0000000087839878      0x2c4 lib/built-in.o
 .text.vsnprintf_internal
                0x0000000087839b3c      0x680 lib/built-in.o
 .text.vscnprintf
                0x000000008783a1bc       0x24 lib/built-in.o
                0x000000008783a1bc                vscnprintf
 .text.snprintf
                0x000000008783a1e0       0x28 lib/built-in.o
                0x000000008783a1e0                snprintf
 .text.vsprintf
                0x000000008783a208       0x10 lib/built-in.o
                0x000000008783a208                vsprintf
 .text.sprintf  0x000000008783a218       0x28 lib/built-in.o
                0x000000008783a218                sprintf
 .text.printf   0x000000008783a240       0x44 lib/built-in.o
                0x000000008783a240                printf
 .text.vprintf  0x000000008783a284       0x34 lib/built-in.o
                0x000000008783a284                vprintf
 .text.simple_itoa
                0x000000008783a2b8       0x58 lib/built-in.o
                0x000000008783a2b8                simple_itoa
 .text.str2off  0x000000008783a310       0x3c lib/built-in.o
                0x000000008783a310                str2off
 .text.panic_finish
                0x000000008783a34c       0x30 lib/built-in.o
 .text.panic    0x000000008783a37c       0x1c lib/built-in.o
                0x000000008783a37c                panic
 .text.simple_strtoul
                0x000000008783a398       0xb0 lib/built-in.o
                0x000000008783a398                simple_strtoul
 .text.strict_strtoul
                0x000000008783a448       0x78 lib/built-in.o
                0x000000008783a448                strict_strtoul
 .text.simple_strtol
                0x000000008783a4c0       0x24 lib/built-in.o
                0x000000008783a4c0                simple_strtol
 .text.ustrtoul
                0x000000008783a4e4       0x6c lib/built-in.o
                0x000000008783a4e4                ustrtoul
 .text.simple_strtoull
                0x000000008783a550       0xd4 lib/built-in.o
                0x000000008783a550                simple_strtoull
 .text.ustrtoull
                0x000000008783a624       0x84 lib/built-in.o
                0x000000008783a624                ustrtoull
 .text.trailing_strtoln
                0x000000008783a6a8       0x5c lib/built-in.o
                0x000000008783a6a8                trailing_strtoln
 .text.trailing_strtol
                0x000000008783a704        0x8 lib/built-in.o
                0x000000008783a704                trailing_strtol
 .text.compute_ip_checksum
                0x000000008783a70c       0x6c net/built-in.o
                0x000000008783a70c                compute_ip_checksum
 .text.ip_checksum_ok
                0x000000008783a778       0x1c net/built-in.o
                0x000000008783a778                ip_checksum_ok
 .text.arp_init
                0x000000008783a794       0x50 net/built-in.o
                0x000000008783a794                arp_init
 .text.arp_raw_request
                0x000000008783a7e4       0xb4 net/built-in.o
                0x000000008783a7e4                arp_raw_request
 .text.arp_request
                0x000000008783a898       0x84 net/built-in.o
                0x000000008783a898                arp_request
 .text.arp_timeout_check
                0x000000008783a91c       0x90 net/built-in.o
                0x000000008783a91c                arp_timeout_check
 .text.arp_receive
                0x000000008783a9ac      0x214 net/built-in.o
                0x000000008783a9ac                arp_receive
 .text.dhcp_process_options
                0x000000008783abc0      0x1f4 net/built-in.o
 .text.dhcp_packet_process_options
                0x000000008783adb4       0x84 net/built-in.o
 .text.dhcp_handler
                0x000000008783ae38      0x49c net/built-in.o
 .text.bootp_reset
                0x000000008783b2d4       0x44 net/built-in.o
                0x000000008783b2d4                bootp_reset
 .text.bootp_request
                0x000000008783b318      0x2dc net/built-in.o
                0x000000008783b318                bootp_request
 .text.bootp_timeout_handler
                0x000000008783b5f4       0x70 net/built-in.o
 .text.dhcp_request
                0x000000008783b664        0x4 net/built-in.o
                0x000000008783b664                dhcp_request
 .text.__def_eth_init
                0x000000008783b668        0x8 net/built-in.o
 .text.on_ethaddr
                0x000000008783b670       0x90 net/built-in.o
 .text.eth_set_current_to_next
                0x000000008783b700       0x18 net/built-in.o
                0x000000008783b700                eth_set_current_to_next
 .text.eth_set_dev
                0x000000008783b718       0x10 net/built-in.o
                0x000000008783b718                eth_set_dev
 .text.eth_get_dev_by_name
                0x000000008783b728       0x80 net/built-in.o
                0x000000008783b728                eth_get_dev_by_name
 .text.eth_get_dev_by_index
                0x000000008783b7a8       0x38 net/built-in.o
                0x000000008783b7a8                eth_get_dev_by_index
 .text.eth_get_dev_index
                0x000000008783b7e0       0x1c net/built-in.o
                0x000000008783b7e0                eth_get_dev_index
 .text.eth_write_hwaddr
                0x000000008783b7fc      0x1d8 net/built-in.o
                0x000000008783b7fc                eth_write_hwaddr
 .text.eth_register
                0x000000008783b9d4       0x7c net/built-in.o
                0x000000008783b9d4                eth_register
 .text.eth_unregister
                0x000000008783ba50       0x98 net/built-in.o
                0x000000008783ba50                eth_unregister
 .text.eth_initialize
                0x000000008783bae8      0x18c net/built-in.o
                0x000000008783bae8                eth_initialize
 .text.eth_init
                0x000000008783bc74       0x74 net/built-in.o
                0x000000008783bc74                eth_init
 .text.eth_halt
                0x000000008783bce8       0x30 net/built-in.o
                0x000000008783bce8                eth_halt
 .text.eth_send
                0x000000008783bd18       0x3c net/built-in.o
                0x000000008783bd18                eth_send
 .text.eth_rx   0x000000008783bd54       0x24 net/built-in.o
                0x000000008783bd54                eth_rx
 .text.eth_parse_enetaddr
                0x000000008783bd78       0x5c net/built-in.o
                0x000000008783bd78                eth_parse_enetaddr
 .text.eth_getenv_enetaddr
                0x000000008783bdd4       0x5c net/built-in.o
                0x000000008783bdd4                eth_getenv_enetaddr
 .text.eth_setenv_enetaddr
                0x000000008783be30       0x34 net/built-in.o
                0x000000008783be30                eth_setenv_enetaddr
 .text.eth_getenv_enetaddr_by_index
                0x000000008783be64       0x4c net/built-in.o
                0x000000008783be64                eth_getenv_enetaddr_by_index
 .text.eth_setenv_enetaddr_by_index
                0x000000008783beb0       0x4c net/built-in.o
                0x000000008783beb0                eth_setenv_enetaddr_by_index
 .text.eth_common_init
                0x000000008783befc       0x18 net/built-in.o
                0x000000008783befc                eth_common_init
 .text.eth_mac_skip
                0x000000008783bf14       0x40 net/built-in.o
                0x000000008783bf14                eth_mac_skip
 .text.eth_get_name
                0x000000008783bf54       0x20 net/built-in.o
                0x000000008783bf54                eth_get_name
 .text.eth_current_changed
                0x000000008783bf74       0x98 net/built-in.o
                0x000000008783bf74                eth_current_changed
 .text.eth_try_another
                0x000000008783c00c       0x84 net/built-in.o
                0x000000008783c00c                eth_try_another
 .text.eth_set_current
                0x000000008783c090       0x90 net/built-in.o
                0x000000008783c090                eth_set_current
 .text.net_clear_handlers
                0x000000008783c120       0x34 net/built-in.o
 .text.start_again_timeout_handler
                0x000000008783c154       0x14 net/built-in.o
 .text.dummy_handler
                0x000000008783c168        0x4 net/built-in.o
 .text.on_ipaddr
                0x000000008783c16c       0x30 net/built-in.o
 .text.on_gatewayip
                0x000000008783c19c       0x30 net/built-in.o
 .text.on_netmask
                0x000000008783c1cc       0x30 net/built-in.o
 .text.on_serverip
                0x000000008783c1fc       0x30 net/built-in.o
 .text.net_init_loop
                0x000000008783c22c       0x28 net/built-in.o
 .text.net_auto_load
                0x000000008783c254       0x64 net/built-in.o
                0x000000008783c254                net_auto_load
 .text.net_init
                0x000000008783c2b8       0x70 net/built-in.o
                0x000000008783c2b8                net_init
 .text.net_start_again
                0x000000008783c328      0x168 net/built-in.o
                0x000000008783c328                net_start_again
 .text.net_loop
                0x000000008783c490      0x370 net/built-in.o
                0x000000008783c490                net_loop
 .text.net_set_udp_handler
                0x000000008783c800       0x20 net/built-in.o
                0x000000008783c800                net_set_udp_handler
 .text.net_get_arp_handler
                0x000000008783c820       0x10 net/built-in.o
                0x000000008783c820                net_get_arp_handler
 .text.net_set_timeout_handler
                0x000000008783c830       0x5c net/built-in.o
                0x000000008783c830                net_set_timeout_handler
 .text.net_process_received_packet
                0x000000008783c88c      0x2a8 net/built-in.o
                0x000000008783c88c                net_process_received_packet
 .text.net_eth_hdr_size
                0x000000008783cb34       0x3c net/built-in.o
                0x000000008783cb34                net_eth_hdr_size
 .text.net_set_ether
                0x000000008783cb70       0x9c net/built-in.o
                0x000000008783cb70                net_set_ether
 .text.net_update_ether
                0x000000008783cc0c       0x80 net/built-in.o
                0x000000008783cc0c                net_update_ether
 .text.net_set_ip_header
                0x000000008783cc8c       0x88 net/built-in.o
                0x000000008783cc8c                net_set_ip_header
 .text.net_set_udp_header
                0x000000008783cd14       0x84 net/built-in.o
                0x000000008783cd14                net_set_udp_header
 .text.net_send_udp_packet
                0x000000008783cd98      0x104 net/built-in.o
                0x000000008783cd98                net_send_udp_packet
 .text.copy_filename
                0x000000008783ce9c       0x44 net/built-in.o
                0x000000008783ce9c                copy_filename
 .text.on_bootfile
                0x000000008783cee0       0x3c net/built-in.o
 .text.ip_to_string
                0x000000008783cf1c       0x3c net/built-in.o
                0x000000008783cf1c                ip_to_string
 .text.string_to_vlan
                0x000000008783cf58       0x50 net/built-in.o
                0x000000008783cf58                string_to_vlan
 .text.on_nvlan
                0x000000008783cfa8       0x30 net/built-in.o
 .text.on_vlan  0x000000008783cfd8       0x30 net/built-in.o
 .text.rpc_lookup_reply
                0x000000008783d008       0xb0 net/built-in.o
 .text.nfs_mount_reply
                0x000000008783d0b8       0xa4 net/built-in.o
 .text.nfs_umountall_reply
                0x000000008783d15c       0x94 net/built-in.o
 .text.nfs_lookup_reply
                0x000000008783d1f0       0x94 net/built-in.o
 .text.nfs_readlink_reply
                0x000000008783d284       0xf4 net/built-in.o
 .text.basename
                0x000000008783d378       0x38 net/built-in.o
 .text.rpc_add_credentials
                0x000000008783d3b0       0xac net/built-in.o
 .text.rpc_req  0x000000008783d45c      0x104 net/built-in.o
 .text.nfs_mount_req
                0x000000008783d560       0x98 net/built-in.o
 .text.nfs_umountall_req
                0x000000008783d5f8       0x60 net/built-in.o
 .text.nfs_lookup_req
                0x000000008783d658       0xac net/built-in.o
 .text.nfs_read_req
                0x000000008783d704       0x78 net/built-in.o
 .text.nfs_readlink_req
                0x000000008783d77c       0x58 net/built-in.o
 .text.nfs_read_reply.isra.0
                0x000000008783d7d4      0x134 net/built-in.o
 .text.nfs_send
                0x000000008783d908      0x110 net/built-in.o
 .text.nfs_handler
                0x000000008783da18      0x21c net/built-in.o
 .text.nfs_timeout_handler
                0x000000008783dc34       0x64 net/built-in.o
 .text.nfs_start
                0x000000008783dc98      0x24c net/built-in.o
                0x000000008783dc98                nfs_start
 .text.ping_timeout_handler
                0x000000008783dee4       0x1c net/built-in.o
 .text.ping_start
                0x000000008783df00      0x114 net/built-in.o
                0x000000008783df00                ping_start
 .text.ping_receive
                0x000000008783e014       0xe0 net/built-in.o
                0x000000008783e014                ping_receive
 .text.tftp_send
                0x000000008783e0f4      0x1d4 net/built-in.o
 .text.tftp_handler
                0x000000008783e2c8      0x38c net/built-in.o
 .text.tftp_timeout_handler
                0x000000008783e654       0x88 net/built-in.o
 .text.tftp_start
                0x000000008783e6dc      0x374 net/built-in.o
                0x000000008783e6dc                tftp_start
 .text.do_dm_dump_devres
                0x000000008783ea50        0x8 test/dm/built-in.o
 .text.do_dm    0x000000008783ea58       0x74 test/dm/built-in.o
 .text.do_dm_dump_uclass
                0x000000008783eacc       0x10 test/dm/built-in.o
 .text.do_dm_dump_all
                0x000000008783eadc       0x10 test/dm/built-in.o
 .text.raise    0x000000008783eaec       0x1c arch/arm/lib/eabi_compat.o
                0x000000008783eaec                raise
 .text          0x000000008783eb08      0x278 /usr/lib/gcc-cross/arm-linux-gnueabihf/7/libgcc.a(_udivsi3.o)
                0x000000008783eb08                __udivsi3
                0x000000008783eb08                __aeabi_uidiv
                0x000000008783ed64                __aeabi_uidivmod
 .text          0x000000008783ed80      0x2b0 /usr/lib/gcc-cross/arm-linux-gnueabihf/7/libgcc.a(_divsi3.o)
                0x000000008783ed80                __aeabi_idiv
                0x000000008783ed80                __divsi3
                0x000000008783f014                __aeabi_idivmod
 .text          0x000000008783f030        0xc /usr/lib/gcc-cross/arm-linux-gnueabihf/7/libgcc.a(_dvmd_lnx.o)
                0x000000008783f030                __aeabi_ldiv0
                0x000000008783f030                __aeabi_idiv0

.glue_7         0x000000008783f03c        0x0
 .glue_7        0x000000008783f03c        0x0 linker stubs

.glue_7t        0x000000008783f03c        0x0
 .glue_7t       0x000000008783f03c        0x0 linker stubs

.vfp11_veneer   0x000000008783f03c        0x0
 .vfp11_veneer  0x000000008783f03c        0x0 linker stubs

.v4_bx          0x000000008783f03c        0x0
 .v4_bx         0x000000008783f03c        0x0 linker stubs

.iplt           0x000000008783f03c        0x0
 .iplt          0x000000008783f03c        0x0 arch/arm/cpu/armv7/start.o
                0x000000008783f03c                . = ALIGN (0x4)

.rodata         0x000000008783f040     0xfacf
 *(SORT_BY_ALIGNMENT(SORT_BY_NAME(.rodata*)))
 .rodata.fec2_pads
                0x000000008783f040       0x58 board/freescale/mx6ullevk/built-in.o
 .rodata.iox_pads
                0x000000008783f098       0x20 board/freescale/mx6ullevk/built-in.o
 .rodata.lcd_id_pads
                0x000000008783f0b8       0x20 board/freescale/mx6ullevk/built-in.o
 .rodata.lcd_pads
                0x000000008783f0d8       0xf0 board/freescale/mx6ullevk/built-in.o
 .rodata.leds_pads
                0x000000008783f1c8       0x10 board/freescale/mx6ullevk/built-in.o
 .rodata.quadspi_pads
                0x000000008783f1d8       0x30 board/freescale/mx6ullevk/built-in.o
 .rodata.uart1_pads
                0x000000008783f208       0x10 board/freescale/mx6ullevk/built-in.o
 .rodata.usb_otg_pads
                0x000000008783f218        0x8 board/freescale/mx6ullevk/built-in.o
 .rodata.usdhc1_pads
                0x000000008783f220       0x40 board/freescale/mx6ullevk/built-in.o
 .rodata.usdhc2_emmc_pads
                0x000000008783f260       0x58 board/freescale/mx6ullevk/built-in.o
 .rodata        0x000000008783f2b8       0x80 arch/arm/lib/built-in.o
 .rodata        0x000000008783f338        0xc drivers/power/built-in.o
 .rodata.CSWTCH.11
                0x000000008783f344       0x88 arch/arm/imx-common/built-in.o
 .rodata.CSWTCH.32
                0x000000008783f3cc       0x20 common/built-in.o
 .rodata.CSWTCH.35
                0x000000008783f3ec       0x14 cmd/built-in.o
 .rodata.asix_dongles
                0x000000008783f400       0x68 drivers/usb/eth/built-in.o
 .rodata.block_drvr
                0x000000008783f468       0x24 disk/built-in.o
 .rodata.board_boot_modes
                0x000000008783f48c       0x20 board/freescale/mx6ullevk/built-in.o
 .rodata.boot_os
                0x000000008783f4ac       0x60 common/built-in.o
 .rodata.crc_table
                0x000000008783f50c      0x400 lib/built-in.o
 .rodata.default_ehci_ops
                0x000000008783f90c       0x10 drivers/usb/host/built-in.o
                0x000000008783f90c                default_ehci_ops
 .rodata.desc_and_len_tbl
                0x000000008783f91c       0x30 cmd/built-in.o
 .rodata.displays
                0x000000008783f94c      0x17c board/freescale/mx6ullevk/built-in.o
                0x000000008783f94c                displays
 .rodata.env_flags_varaccess_mask
                0x000000008783fac8       0x10 common/built-in.o
 .rodata.esdhc_ops
                0x000000008783fad8       0x14 drivers/mmc/built-in.o
 .rodata.ext_csd_bits.9446
                0x000000008783faec       0x14 drivers/mmc/built-in.o
 .rodata.ext_to_hostcaps.9447
                0x000000008783fb00       0x1c drivers/mmc/built-in.o
 .rodata.fbase  0x000000008783fb1c       0x10 drivers/mmc/built-in.o
 .rodata.fdt_errtable
                0x000000008783fb2c       0x34 lib/built-in.o
 .rodata.gpio_ports
                0x000000008783fb60       0x14 drivers/gpio/built-in.o
 .rodata.imx6_thermal_plat
                0x000000008783fb74        0xc arch/arm/cpu/armv7/built-in.o
 .rodata.imx_thermal_ops
                0x000000008783fb80        0x4 drivers/built-in.o
 .rodata.multipliers
                0x000000008783fb84       0x40 drivers/mmc/built-in.o
 .rodata.op_adv
                0x000000008783fbc4      0x100 cmd/built-in.o
                0x000000008783fbc4                op_adv
 .rodata.op_table
                0x000000008783fcc4       0x68 cmd/built-in.o
 .rodata.phy_bases
                0x000000008783fd2c        0x8 drivers/usb/host/built-in.o
 .rodata.prob_dev
                0x000000008783fd34       0x18 drivers/usb/eth/built-in.o
 .rodata.qn_output
                0x000000008783fd4c       0x20 board/freescale/mx6ullevk/built-in.o
 .rodata.reg_0_5_desc_tbl
                0x000000008783fd6c       0x30 cmd/built-in.o
 .rodata.reg_0_desc_tbl
                0x000000008783fd9c       0x78 cmd/built-in.o
 .rodata.reg_1_desc_tbl
                0x000000008783fe14       0xc0 cmd/built-in.o
 .rodata.reg_2_desc_tbl
                0x000000008783fed4        0xc cmd/built-in.o
 .rodata.reg_3_desc_tbl
                0x000000008783fee0       0x24 cmd/built-in.o
 .rodata.reg_4_desc_tbl
                0x000000008783ff04       0x90 cmd/built-in.o
 .rodata.reg_5_desc_tbl
                0x000000008783ff94       0x90 cmd/built-in.o
 .rodata.res_mode_init
                0x0000000087840024      0x208 drivers/built-in.o
                0x0000000087840024                res_mode_init
 .rodata.root_info
                0x000000008784022c        0x8 drivers/built-in.o
 .rodata.sd_au_size
                0x0000000087840234       0x40 drivers/mmc/built-in.o
 .rodata.seq    0x0000000087840274       0x18 board/freescale/mx6ullevk/built-in.o
 .rodata.soc_boot_modes
                0x000000008784028c       0x60 arch/arm/cpu/armv7/built-in.o
                0x000000008784028c                soc_boot_modes
 .rodata.spi_flash_params_table
                0x00000000878402ec      0x240 drivers/mtd/spi/built-in.o
                0x00000000878402ec                spi_flash_params_table
 .rodata.uimage_arch
                0x000000008784052c      0x12c common/built-in.o
 .rodata.uimage_comp
                0x0000000087840658       0x54 common/built-in.o
 .rodata.uimage_os
                0x00000000878406ac       0x78 common/built-in.o
 .rodata.uimage_type
                0x0000000087840724      0x144 common/built-in.o
 .rodata.video_font_draw_table15
                0x0000000087840868       0x10 drivers/built-in.o
 .rodata.video_font_draw_table16
                0x0000000087840878       0x10 drivers/built-in.o
 .rodata.video_font_draw_table24
                0x0000000087840888       0xc0 drivers/built-in.o
 .rodata.video_font_draw_table32
                0x0000000087840948      0x100 drivers/built-in.o
 .rodata.video_font_draw_table8
                0x0000000087840a48       0x40 drivers/built-in.o
 .rodata.widths.9448
                0x0000000087840a88       0x14 drivers/mmc/built-in.o
 .rodata.CSWTCH.13
                0x0000000087840a9c       0x22 drivers/built-in.o
 .rodata.CSWTCH.14
                0x0000000087840abe       0x22 drivers/built-in.o
 .rodata.crc16_tab
                0x0000000087840ae0      0x200 lib/built-in.o
 .rodata.crc16_table
                0x0000000087840ce0      0x200 fs/built-in.o
 .rodata.dbase.7619
                0x0000000087840ee0       0x40 lib/built-in.o
 .rodata.dext.7620
                0x0000000087840f20       0x40 lib/built-in.o
 .rodata.distfix
                0x0000000087840f60       0x80 lib/built-in.o
 .rodata.i2c_clk_div
                0x0000000087840fe0       0xc8 drivers/i2c/built-in.o
 .rodata.lbase.7617
                0x00000000878410a8       0x3e lib/built-in.o
 .rodata.lenfix
                0x00000000878410e6      0x800 lib/built-in.o
 .rodata.lext.7618
                0x00000000878418e6       0x3e lib/built-in.o
 .rodata.order.7713
                0x0000000087841924       0x26 lib/built-in.o
 .rodata        0x000000008784194a        0x2 cmd/built-in.o
 .rodata        0x000000008784194c        0x3 common/built-in.o
 .rodata        0x000000008784194f       0x3f drivers/usb/host/built-in.o
 .rodata        0x000000008784198e        0x7 net/built-in.o
 .rodata.CSWTCH.15
                0x0000000087841995       0x11 drivers/built-in.o
 .rodata.CSWTCH.70
                0x00000000878419a6       0x16 common/built-in.o
 .rodata.__FUNCTION__.8013
                0x00000000878419bc       0x14 net/built-in.o
 .rodata.__FUNCTION__.8975
                0x00000000878419d0       0x17 common/built-in.o
 .rodata.__func__.10087
                0x00000000878419e7       0x17 drivers/usb/host/built-in.o
 .rodata.__func__.7486
                0x00000000878419fe       0x16 arch/arm/cpu/armv7/built-in.o
 .rodata.__func__.7550
                0x0000000087841a14        0xa drivers/built-in.o
 .rodata.__func__.7556
                0x0000000087841a1e        0xf drivers/power/built-in.o
 .rodata.__func__.7558
                0x0000000087841a2d        0xf arch/arm/imx-common/built-in.o
 .rodata.__func__.7569
                0x0000000087841a3c        0xe drivers/power/built-in.o
 .rodata.__func__.7579
                0x0000000087841a4a        0xb drivers/built-in.o
 .rodata.__func__.7597
                0x0000000087841a55        0xa drivers/built-in.o
 .rodata.__func__.7609
                0x0000000087841a5f        0xe drivers/built-in.o
 .rodata.__func__.7646
                0x0000000087841a6d        0xf fs/built-in.o
 .rodata.__func__.7678
                0x0000000087841a7c       0x10 common/built-in.o
 .rodata.__func__.7679
                0x0000000087841a8c       0x13 fs/built-in.o
 .rodata.__func__.7688
                0x0000000087841a9f       0x14 fs/built-in.o
 .rodata.__func__.7694
                0x0000000087841ab3        0xb common/built-in.o
 .rodata.__func__.7701
                0x0000000087841abe        0xb common/built-in.o
 .rodata.__func__.8026
                0x0000000087841ac9       0x1c fs/built-in.o
 .rodata.__func__.8059
                0x0000000087841ae5        0xe cmd/built-in.o
 .rodata.__func__.8096
                0x0000000087841af3        0xe cmd/built-in.o
 .rodata.__func__.8152
                0x0000000087841b01        0xe common/built-in.o
 .rodata.__func__.8699
                0x0000000087841b0f       0x10 drivers/net/built-in.o
 .rodata.__func__.8852
                0x0000000087841b1f       0x18 common/built-in.o
 .rodata.__func__.9006
                0x0000000087841b37        0xe drivers/built-in.o
 .rodata.__func__.9338
                0x0000000087841b45        0xd drivers/built-in.o
 .rodata.__func__.9344
                0x0000000087841b52       0x11 drivers/built-in.o
 .rodata.__func__.9356
                0x0000000087841b63        0xd drivers/built-in.o
 .rodata.__func__.9529
                0x0000000087841b70       0x12 drivers/i2c/built-in.o
 .rodata.__func__.9563
                0x0000000087841b82        0xd drivers/i2c/built-in.o
 .rodata.__func__.9608
                0x0000000087841b8f       0x12 drivers/i2c/built-in.o
 .rodata._ctype
                0x0000000087841ba1      0x100 lib/built-in.o
                0x0000000087841ba1                _ctype
 .rodata._do_env_set.isra.0.str1.1
                0x0000000087841ca1       0x7c cmd/built-in.o
 .rodata._do_help.str1.1
                0x0000000087841d1d       0x5f common/built-in.o
 .rodata._ehci_create_int_queue.isra.6.str1.1
                0x0000000087841d7c       0x3d drivers/usb/host/built-in.o
 .rodata._ehci_destroy_int_queue.str1.1
                0x0000000087841db9       0x2d drivers/usb/host/built-in.o
 .rodata.announce_dram_init.str1.1
                0x0000000087841de6        0x8 common/built-in.o
 .rodata.arp_receive.str1.1
                0x0000000087841dee       0x14 net/built-in.o
 .rodata.arp_request.str1.1
                0x0000000087841e02       0x2a net/built-in.o
 .rodata.arp_timeout_check.str1.1
                0x0000000087841e2c       0x2b net/built-in.o
 .rodata.asix_eth_get_info.str1.1
                0x0000000087841e57        0x9 drivers/usb/eth/built-in.o
 .rodata.asix_init.str1.1
                0x0000000087841e60       0x3f drivers/usb/eth/built-in.o
 .rodata.autoboot_command.str1.1
                0x0000000087841e9f       0x2b common/built-in.o
 .rodata.b_addqchr.str1.1
                0x0000000087841eca        0x5 common/built-in.o
 .rodata.bad_mode.str1.1
                0x0000000087841ecf       0x13 arch/arm/lib/built-in.o
 .rodata.bank_lookup
                0x0000000087841ee2        0x2 arch/arm/imx-common/built-in.o
 .rodata.binary_test.str1.1
                0x0000000087841ee4       0x17 cmd/built-in.o
 .rodata.board_late_init.str1.1
                0x0000000087841efb       0x1f board/freescale/mx6ullevk/built-in.o
 .rodata.board_late_mmc_env_init.str1.1
                0x0000000087841f1a       0x48 board/freescale/common/built-in.o
 .rodata.board_mmc_init.str1.1
                0x0000000087841f62       0x2a board/freescale/mx6ullevk/built-in.o
 .rodata.board_video_skip.str1.1
                0x0000000087841f8c       0x8c arch/arm/imx-common/built-in.o
 .rodata.boot_fdt_add_mem_rsv_regions.str1.1
                0x0000000087842018       0x35 common/built-in.o
 .rodata.boot_get_fdt.str1.1
                0x000000008784204d      0x1b5 common/built-in.o
                                        0x1d0 (size before relaxing)
 .rodata.boot_get_ramdisk.str1.1
                0x0000000087842202       0xb7 common/built-in.o
                                        0x10d (size before relaxing)
 .rodata.boot_jump_linux.str1.1
                0x00000000878422b9       0x5c arch/arm/lib/built-in.o
                                         0x5d (size before relaxing)
 .rodata.boot_prep_linux.str1.1
                0x0000000087842315       0x20 arch/arm/lib/built-in.o
                                         0x29 (size before relaxing)
 .rodata.boot_prep_vxworks.str1.1
                0x0000000087842335       0x2a arch/arm/lib/built-in.o
 .rodata.boot_ramdisk_high.str1.1
                0x000000008784235f       0x54 common/built-in.o
 .rodata.boot_relocate_fdt.str1.1
                0x00000000878423b3       0xcf common/built-in.o
                                         0xd3 (size before relaxing)
 .rodata.bootdelay_process.str1.1
                0x0000000087842482       0x7f common/built-in.o
                                         0x87 (size before relaxing)
 .rodata.bootm_decomp_image.str1.1
                0x0000000087842501       0x99 common/built-in.o
                                         0xc0 (size before relaxing)
 .rodata.bootm_find_images.str1.1
                0x000000008784259a       0x49 common/built-in.o
 .rodata.bootm_maybe_autostart.str1.1
                0x00000000878425e3       0x37 cmd/built-in.o
                                         0x3b (size before relaxing)
 .rodata.bootp_request.str1.1
                0x000000008784261a       0x25 net/built-in.o
 .rodata.bootp_timeout_handler.str1.1
                0x000000008784263f       0x26 net/built-in.o
 .rodata.bootz_setup.str1.1
                0x0000000087842665       0x48 arch/arm/lib/built-in.o
 .rodata.check_reg.str1.1
                0x00000000878426ad       0x33 drivers/power/built-in.o
 .rodata.checkboard.str1.1
                0x00000000878426e0       0x1a board/freescale/mx6ullevk/built-in.o
 .rodata.cli_readline_into_buffer.str1.1
                0x00000000878426fa        0x7 common/built-in.o
                                          0x8 (size before relaxing)
 .rodata.cmd_auto_complete.str1.1
                0x0000000087842701       0x5f common/built-in.o
                                          0xf (size before relaxing)
 .rodata.cmd_process.str1.1
                0x0000000087842701       0x3f common/built-in.o
 .rodata.cmd_process_error.str1.1
                0x0000000087842740       0x1f common/built-in.o
 .rodata.cmd_usage.str1.1
                0x000000008784275f       0x36 common/built-in.o
 .rodata.col_lookup
                0x0000000087842795        0x8 arch/arm/imx-common/built-in.o
 .rodata.common_diskboot.str1.1
                0x000000008784279d       0x8f cmd/built-in.o
 .rodata.compile.str1.1
                0x000000008784282c       0x4a lib/built-in.o
 .rodata.confirm_yesno.str1.1
                0x0000000087842876       0x10 common/built-in.o
 .rodata.console_init_r.str1.1
                0x0000000087842886        0x7 common/built-in.o
 .rodata.cread_add_char.str1.1
                0x0000000087842886        0x5 common/built-in.o
 .rodata.create_usage.str1.1
                0x000000008784288b        0xb arch/arm/imx-common/built-in.o
 .rodata.default_environment
                0x0000000087842896      0x964 common/built-in.o
                0x0000000087842896                default_environment
 .rodata.dev_get_platdata.str1.1
                0x00000000878431fa       0x11 drivers/built-in.o
 .rodata.dev_print.str1.1
                0x000000008784320b      0x14d disk/built-in.o
                                        0x15e (size before relaxing)
 .rodata.device_bind.str1.1
                0x0000000087843358       0x5b drivers/built-in.o
 .rodata.device_probe.str1.1
                0x00000000878433b3       0x30 drivers/built-in.o
 .rodata.device_remove.str1.1
                0x00000000878433e3       0x98 drivers/built-in.o
 .rodata.dhcp_handler.str1.1
                0x000000008784347b       0x41 net/built-in.o
                                         0x4a (size before relaxing)
 .rodata.dhcp_process_options.str1.1
                0x00000000878434bc       0x78 net/built-in.o
 .rodata.digits.7273
                0x0000000087843534       0x10 lib/built-in.o
 .rodata.disable_lcdif_clock.str1.1
                0x0000000087843544       0x16 arch/arm/cpu/armv7/built-in.o
 .rodata.disable_periodic.isra.2.str1.1
                0x000000008784355a       0x33 drivers/usb/host/built-in.o
 .rodata.disk_write.str1.1
                0x000000008784358d       0x18 fs/built-in.o
 .rodata.display_options.str1.1
                0x000000008784358d        0x7 lib/built-in.o
 .rodata.display_rle8_bitmap.str1.1
                0x0000000087843594       0x65 drivers/built-in.o
 .rodata.dm_dump_all.str1.1
                0x00000000878435f9       0x1c drivers/built-in.o
                                         0x46 (size before relaxing)
 .rodata.dm_dump_uclass.str1.1
                0x0000000087843615       0x32 drivers/built-in.o
                                         0x34 (size before relaxing)
 .rodata.dm_init.str1.1
                0x0000000087843647       0x25 drivers/built-in.o
 .rodata.dm_root.str1.1
                0x000000008784366c       0x25 drivers/built-in.o
 .rodata.dm_scan_platdata.str1.1
                0x0000000087843691       0x1d drivers/built-in.o
 .rodata.do_bdinfo.str1.1
                0x00000000878436ae       0xe6 cmd/built-in.o
 .rodata.do_bmp_info.str1.1
                0x0000000087843794       0x72 cmd/built-in.o
 .rodata.do_boot_mode.str1.1
                0x0000000087843806        0x8 arch/arm/imx-common/built-in.o
 .rodata.do_bootd.str1.1
                0x000000008784380e        0x8 cmd/built-in.o
 .rodata.do_bootelf.str1.1
                0x0000000087843816       0x52 cmd/built-in.o
                                         0x5c (size before relaxing)
 .rodata.do_bootm.str1.1
                0x0000000087843868       0x2a cmd/built-in.o
 .rodata.do_bootm_netbsd.str1.1
                0x0000000087843892       0x49 common/built-in.o
                                         0x4a (size before relaxing)
 .rodata.do_bootm_plan9.str1.1
                0x00000000878438db       0x43 common/built-in.o
                                         0x4c (size before relaxing)
 .rodata.do_bootm_qnxelf.str1.1
                0x000000008784391e        0x4 common/built-in.o
 .rodata.do_bootm_rtems.str1.1
                0x000000008784391e       0x39 common/built-in.o
 .rodata.do_bootm_standalone.str1.1
                0x0000000087843957       0x16 common/built-in.o
 .rodata.do_bootm_states.str1.1
                0x0000000087843957      0x1e6 common/built-in.o
                                        0x25e (size before relaxing)
 .rodata.do_bootvx.str1.1
                0x0000000087843b3d      0x1be cmd/built-in.o
                                        0x1d0 (size before relaxing)
 .rodata.do_bootvx_fdt.str1.1
                0x0000000087843cfb       0x57 common/built-in.o
                                         0x75 (size before relaxing)
 .rodata.do_coninfo.str1.1
                0x0000000087843d52       0x2c cmd/built-in.o
                                         0x30 (size before relaxing)
 .rodata.do_data_abort.str1.1
                0x0000000087843d7e        0xc arch/arm/lib/built-in.o
 .rodata.do_dcache.str1.1
                0x0000000087843d8a       0x21 cmd/built-in.o
 .rodata.do_echo.str1.1
                0x0000000087843dab        0x3 cmd/built-in.o
 .rodata.do_env_default.str1.1
                0x0000000087843dae       0x25 cmd/built-in.o
 .rodata.do_env_edit.part.3.str1.1
                0x0000000087843dd3        0x7 cmd/built-in.o
                                          0xa (size before relaxing)
 .rodata.do_env_export.str1.1
                0x0000000087843dda       0x41 cmd/built-in.o
                                         0x4a (size before relaxing)
 .rodata.do_env_import.str1.1
                0x0000000087843e1b      0x152 cmd/built-in.o
 .rodata.do_env_print.str1.1
                0x0000000087843f6d       0x3d cmd/built-in.o
 .rodata.do_env_save.str1.1
                0x0000000087843faa       0x1d cmd/built-in.o
 .rodata.do_fat_fsinfo.str1.1
                0x0000000087843fc7       0x56 cmd/built-in.o
 .rodata.do_fat_fswrite.str1.1
                0x000000008784401d       0x6b cmd/built-in.o
 .rodata.do_fat_read_at.str1.1
                0x0000000087844088       0x82 fs/built-in.o
                                         0x83 (size before relaxing)
 .rodata.do_fat_write.str1.1
                0x000000008784410a       0xc3 fs/built-in.o
 .rodata.do_fdt.str1.1
                0x00000000878441cd      0x467 cmd/built-in.o
                                        0x48f (size before relaxing)
 .rodata.do_fiq.str1.1
                0x0000000087844634       0x18 arch/arm/lib/built-in.o
 .rodata.do_fixup_by_path.str1.1
                0x000000008784464c       0x29 common/built-in.o
 .rodata.do_fs_uuid.str1.1
                0x0000000087844675        0x4 fs/built-in.o
 .rodata.do_fuse.str1.1
                0x0000000087844675      0x198 cmd/built-in.o
                                        0x1a4 (size before relaxing)
 .rodata.do_go.str1.1
                0x000000008784480d       0x4f cmd/built-in.o
 .rodata.do_gpio.str1.1
                0x000000008784485c       0x4e cmd/built-in.o
                                         0x55 (size before relaxing)
 .rodata.do_i2c_bus_num.str1.1
                0x00000000878448aa       0x58 cmd/built-in.o
 .rodata.do_i2c_bus_speed.str1.1
                0x0000000087844902       0x53 cmd/built-in.o
 .rodata.do_i2c_crc.str1.1
                0x0000000087844955       0x3e cmd/built-in.o
                                         0x45 (size before relaxing)
 .rodata.do_i2c_md.str1.1
                0x0000000087844993        0xc cmd/built-in.o
                                         0x16 (size before relaxing)
 .rodata.do_i2c_probe.str1.1
                0x000000008784499f       0x1c cmd/built-in.o
 .rodata.do_i2c_show_bus.str1.1
                0x00000000878449bb        0xb cmd/built-in.o
                                          0xd (size before relaxing)
 .rodata.do_i2c_write.str1.1
                0x00000000878449c6        0x3 cmd/built-in.o
 .rodata.do_icache.str1.1
                0x00000000878449c9       0x1d cmd/built-in.o
                                         0x20 (size before relaxing)
 .rodata.do_imgextract.str1.1
                0x00000000878449e6      0x148 cmd/built-in.o
                                        0x1ac (size before relaxing)
 .rodata.do_irq.str1.1
                0x0000000087844b2e       0x18 arch/arm/lib/built-in.o
                                         0x13 (size before relaxing)
 .rodata.do_itest.str1.1
                0x0000000087844b2e       0x1e cmd/built-in.o
 .rodata.do_load.str1.1
                0x0000000087844b4c       0x39 fs/built-in.o
                                         0x5b (size before relaxing)
 .rodata.do_load_serial.str1.1
                0x0000000087844b85       0x6b cmd/built-in.o
 .rodata.do_load_serial_bin.str1.1
                0x0000000087844bf0      0x159 cmd/built-in.o
 .rodata.do_ls.str1.1
                0x0000000087844d49        0x2 fs/built-in.o
 .rodata.do_mdio.str1.1
                0x0000000087844d49       0x5e cmd/built-in.o
                                         0x65 (size before relaxing)
 .rodata.do_mem_base.str1.1
                0x0000000087844da7       0x17 cmd/built-in.o
 .rodata.do_mem_cmp.str1.1
                0x0000000087844dbe       0x6e cmd/built-in.o
                                         0x73 (size before relaxing)
 .rodata.do_mem_cp.str1.1
                0x0000000087844e2c       0x11 cmd/built-in.o
 .rodata.do_mem_crc.str1.1
                0x0000000087844e3d        0x6 cmd/built-in.o
 .rodata.do_mem_mtest.str1.1
                0x0000000087844e3d       0xd4 cmd/built-in.o
                                         0xd5 (size before relaxing)
 .rodata.do_mii.str1.1
                0x0000000087844f11      0x294 cmd/built-in.o
                                        0x2b0 (size before relaxing)
 .rodata.do_mmc_boot_resize.str1.1
                0x00000000878451a5       0x82 cmd/built-in.o
 .rodata.do_mmc_bootbus.str1.1
                0x0000000087845227       0x24 cmd/built-in.o
 .rodata.do_mmc_dev.str1.1
                0x000000008784524b       0x89 cmd/built-in.o
 .rodata.do_mmc_erase.str1.1
                0x00000000878452d4       0x67 cmd/built-in.o
 .rodata.do_mmc_hwpartition.str1.1
                0x000000008784533b      0x126 cmd/built-in.o
                                        0x142 (size before relaxing)
 .rodata.do_mmc_part.str1.1
                0x0000000087845461       0x15 cmd/built-in.o
 .rodata.do_mmc_partconf.str1.1
                0x0000000087845476       0x26 cmd/built-in.o
 .rodata.do_mmc_read.str1.1
                0x000000008784549c       0x43 cmd/built-in.o
 .rodata.do_mmc_rst_func.str1.1
                0x00000000878454df       0x40 cmd/built-in.o
 .rodata.do_mmc_setdsr.str1.1
                0x000000008784551f       0x1d cmd/built-in.o
 .rodata.do_mmc_write.str1.1
                0x000000008784553c       0x47 cmd/built-in.o
 .rodata.do_mmcinfo.str1.1
                0x0000000087845583      0x107 cmd/built-in.o
                                        0x159 (size before relaxing)
 .rodata.do_mmcops.str1.1
                0x000000008784568a       0x19 cmd/built-in.o
 .rodata.do_mx6_showclocks.str1.1
                0x00000000878456a3      0x12c arch/arm/cpu/armv7/built-in.o
                                        0x12e (size before relaxing)
 .rodata.do_not_used.str1.1
                0x00000000878457cf        0xa arch/arm/lib/built-in.o
 .rodata.do_ping.str1.1
                0x00000000878457d9       0x35 cmd/built-in.o
 .rodata.do_pmic.str1.1
                0x000000008784580e       0xd1 drivers/power/built-in.o
                                         0xe9 (size before relaxing)
 .rodata.do_prefetch_abort.str1.1
                0x00000000878458df       0x10 arch/arm/lib/built-in.o
 .rodata.do_reset.str1.1
                0x00000000878458ef        0xf arch/arm/lib/built-in.o
 .rodata.do_run.str1.1
                0x00000000878458fe       0x1c common/built-in.o
 .rodata.do_save.str1.1
                0x00000000878458fe       0x1d fs/built-in.o
 .rodata.do_setexpr.str1.1
                0x000000008784591b       0x11 cmd/built-in.o
                                         0x15 (size before relaxing)
 .rodata.do_showvar.str1.1
                0x000000008784592c        0xc common/built-in.o
                                         0x2f (size before relaxing)
 .rodata.do_size.str1.1
                0x0000000087845938        0x9 fs/built-in.o
 .rodata.do_software_interrupt.str1.1
                0x0000000087845938       0x14 arch/arm/lib/built-in.o
 .rodata.do_source.str1.1
                0x000000008784594c       0x1e cmd/built-in.o
 .rodata.do_spi_flash.str1.1
                0x000000008784596a      0x1c1 cmd/built-in.o
                                        0x1f2 (size before relaxing)
 .rodata.do_undefined_instruction.str1.1
                0x0000000087845b2b       0x17 arch/arm/lib/built-in.o
 .rodata.do_usb.str1.1
                0x0000000087845b42      0x394 cmd/built-in.o
                                        0x3c2 (size before relaxing)
 .rodata.do_usbboot.str1.1
                0x0000000087845ed6        0x4 cmd/built-in.o
 .rodata.do_version.str1.1
                0x0000000087845ed6       0x70 cmd/built-in.o
 .rodata.drv_video_init.str1.1
                0x0000000087845f46        0x4 drivers/built-in.o
 .rodata.ehci_shutdown.str1.1
                0x0000000087845f4a       0x2b drivers/usb/host/built-in.o
 .rodata.ehci_submit_async.str1.1
                0x0000000087845f75       0xb5 drivers/usb/host/built-in.o
 .rodata.ehci_td_buffer.str1.1
                0x000000008784602a       0x29 drivers/usb/host/built-in.o
 .rodata.emit.str1.1
                0x0000000087846053       0x1f lib/built-in.o
 .rodata.enable_periodic.isra.3.str1.1
                0x0000000087846072       0x32 drivers/usb/host/built-in.o
 .rodata.enable_pll_video.constprop.0.str1.1
                0x00000000878460a4       0x24 arch/arm/cpu/armv7/built-in.o
 .rodata.env_callback_init.str1.1
                0x00000000878460c8        0xb common/built-in.o
 .rodata.env_complete.str1.1
                0x00000000878460d3        0xa common/built-in.o
                                          0x4 (size before relaxing)
 .rodata.env_export.str1.1
                0x00000000878460d3       0x3d common/built-in.o
 .rodata.env_flags_init.str1.1
                0x00000000878460d3        0x7 common/built-in.o
 .rodata.env_flags_parse_varaccess.str1.1
                0x00000000878460da       0x3d common/built-in.o
 .rodata.env_flags_parse_vartype.str1.1
                0x0000000087846117       0x34 common/built-in.o
 .rodata.env_flags_validate.str1.1
                0x000000008784614b       0xb2 common/built-in.o
                                         0xb3 (size before relaxing)
 .rodata.env_flags_varaccess_rep
                0x00000000878461fd        0x5 common/built-in.o
 .rodata.env_flags_vartype_rep
                0x0000000087846202        0x7 common/built-in.o
 .rodata.env_import.str1.1
                0x0000000087846209       0x55 common/built-in.o
 .rodata.env_print.str1.1
                0x000000008784625e       0x25 cmd/built-in.o
                                         0x2c (size before relaxing)
 .rodata.env_relocate_spec.str1.1
                0x0000000087846283        0xd common/built-in.o
 .rodata.erase_seq
                0x0000000087846290        0x4 common/built-in.o
 .rodata.esdhc_send_cmd.str1.1
                0x0000000087846294       0xb8 drivers/mmc/built-in.o
 .rodata.eth_current_changed.str1.1
                0x000000008784634c       0x11 net/built-in.o
                                         0x14 (size before relaxing)
 .rodata.eth_get_dev_by_name.str1.1
                0x000000008784635d       0x33 net/built-in.o
 .rodata.eth_get_name.str1.1
                0x0000000087846390        0x8 net/built-in.o
 .rodata.eth_getenv_enetaddr_by_index.str1.1
                0x0000000087846398       0x10 net/built-in.o
 .rodata.eth_initialize.str1.1
                0x00000000878463a8       0x96 net/built-in.o
                                         0xb4 (size before relaxing)
 .rodata.eth_mac_skip.str1.1
                0x000000008784643e       0x18 net/built-in.o
 .rodata.eth_set_current.str1.1
                0x0000000087846456        0x9 net/built-in.o
 .rodata.eth_setenv_enetaddr.str1.1
                0x0000000087846456        0x4 net/built-in.o
 .rodata.eth_write_hwaddr.str1.1
                0x000000008784645a       0xd4 net/built-in.o
 .rodata.ext4_read_file.str1.1
                0x000000008784652e       0x3f fs/built-in.o
 .rodata.ext4_write_file.str1.1
                0x000000008784656d       0x1c fs/built-in.o
                                         0x42 (size before relaxing)
 .rodata.ext4fs_allocate_blocks.str1.1
                0x0000000087846589       0x61 fs/built-in.o
 .rodata.ext4fs_check_journal_state.str1.1
                0x00000000878465ea       0x2e fs/built-in.o
 .rodata.ext4fs_devread.str1.1
                0x0000000087846618       0xa6 fs/built-in.o
 .rodata.ext4fs_filename_check.str1.1
                0x00000000878466be       0x15 fs/built-in.o
 .rodata.ext4fs_get_bgdtable.str1.1
                0x00000000878466d3       0x19 fs/built-in.o
 .rodata.ext4fs_get_parent_inode_num.str1.1
                0x00000000878466ec       0x3e fs/built-in.o
                                         0x40 (size before relaxing)
 .rodata.ext4fs_init.str1.1
                0x000000008784672a       0x33 fs/built-in.o
 .rodata.ext4fs_iterate_dir.str1.1
                0x000000008784675d       0x4a fs/built-in.o
 .rodata.ext4fs_log_journal.str1.1
                0x00000000878467a7       0x1c fs/built-in.o
 .rodata.ext4fs_ls.str1.1
                0x00000000878467c3       0x1f fs/built-in.o
 .rodata.ext4fs_mount.str1.1
                0x00000000878467e2       0x24 fs/built-in.o
 .rodata.ext4fs_push_revoke_blk.str1.1
                0x0000000087846806       0x2e fs/built-in.o
 .rodata.ext4fs_update_journal.str1.1
                0x0000000087846834       0x19 fs/built-in.o
 .rodata.ext4fs_update_parent_dentry.str1.1
                0x000000008784684d       0x55 fs/built-in.o
 .rodata.ext4fs_write.str1.1
                0x00000000878468a2       0x63 fs/built-in.o
 .rodata.fat_read_file.str1.1
                0x0000000087846905       0x1e fs/built-in.o
 .rodata.fat_set_blk_dev.str1.1
                0x0000000087846923        0x3 fs/built-in.o
                                          0xd (size before relaxing)
 .rodata.fdt_address_cells.str1.1
                0x0000000087846926        0xf lib/built-in.o
 .rodata.fdt_chosen.str1.1
                0x0000000087846935       0x35 common/built-in.o
                                         0x3e (size before relaxing)
 .rodata.fdt_error.str1.1
                0x000000008784696a       0x2d common/built-in.o
 .rodata.fdt_find_or_add_subnode.str1.1
                0x0000000087846997        0xc common/built-in.o
 .rodata.fdt_fixup_ethernet.str1.1
                0x00000000878469a3       0x2e common/built-in.o
                                         0x42 (size before relaxing)
 .rodata.fdt_fixup_memory_banks.str1.1
                0x00000000878469d1       0x85 common/built-in.o
                                         0x94 (size before relaxing)
 .rodata.fdt_get_alias_namelen.str1.1
                0x0000000087846a56        0x9 lib/built-in.o
 .rodata.fdt_initrd.str1.1
                0x0000000087846a56       0x90 common/built-in.o
                                         0x97 (size before relaxing)
 .rodata.fdt_root.str1.1
                0x0000000087846ae6       0x4e common/built-in.o
 .rodata.fdt_size_cells.str1.1
                0x0000000087846b34        0xc lib/built-in.o
 .rodata.fdt_strerror.str1.1
                0x0000000087846b40       0x31 lib/built-in.o
 .rodata.fdt_valid.str1.1
                0x0000000087846b71       0x79 cmd/built-in.o
                                         0x7b (size before relaxing)
 .rodata.fec_get_miibus.str1.1
                0x0000000087846bea       0x29 drivers/net/built-in.o
 .rodata.fec_init.str1.1
                0x0000000087846c13       0x1d drivers/net/built-in.o
 .rodata.fec_phy_read.str1.1
                0x0000000087846c30       0x15 drivers/net/built-in.o
 .rodata.fec_phy_write.str1.1
                0x0000000087846c45       0x16 drivers/net/built-in.o
 .rodata.fec_probe.str1.1
                0x0000000087846c5b       0xab drivers/net/built-in.o
                                         0xb3 (size before relaxing)
 .rodata.fec_recv.str1.1
                0x0000000087846d06       0x31 drivers/net/built-in.o
 .rodata.fec_send.str1.1
                0x0000000087846d37       0x18 drivers/net/built-in.o
 .rodata.file_fat_detectfs.str1.1
                0x0000000087846d4f       0x64 fs/built-in.o
                                         0x84 (size before relaxing)
 .rodata.file_fat_read_at.str1.1
                0x0000000087846db3        0xc fs/built-in.o
 .rodata.file_fat_write.str1.1
                0x0000000087846dbf       0x3f fs/built-in.o
 .rodata.file_get.str1.1
                0x0000000087846dfe        0xc common/built-in.o
                                          0x7 (size before relaxing)
 .rodata.find_mmc_device.str1.1
                0x0000000087846dfe       0x19 drivers/mmc/built-in.o
 .rodata.finish_access.str1.1
                0x0000000087846e17       0x26 drivers/built-in.o
 .rodata.flush_dir_table.constprop.8.str1.1
                0x0000000087846e3d       0x21 fs/built-in.o
 .rodata.force_idle_bus.str1.1
                0x0000000087846e5e       0x53 arch/arm/imx-common/built-in.o
 .rodata.fs_probe_unsupported.str1.1
                0x0000000087846eb1       0x24 fs/built-in.o
 .rodata.fs_read.str1.1
                0x0000000087846ed5       0x24 fs/built-in.o
 .rodata.fs_write.str1.1
                0x0000000087846ef9       0x1f fs/built-in.o
 .rodata.fsl_esdhc_initialize.str1.1
                0x0000000087846f18       0x4e drivers/mmc/built-in.o
 .rodata.fsl_qspi_runcmd.str1.1
                0x0000000087846f66       0x1e drivers/spi/built-in.o
 .rodata.genimg_get_arch_name.str1.1
                0x0000000087846f84       0x15 common/built-in.o
 .rodata.genimg_get_comp_name.str1.1
                0x0000000087846f99       0x14 common/built-in.o
 .rodata.genimg_get_os_name.str1.1
                0x0000000087846fad        0xb common/built-in.o
 .rodata.genimg_get_type_name.str1.1
                0x0000000087846fb8        0xe common/built-in.o
 .rodata.genimg_print_size.str1.1
                0x0000000087846fc6        0xc common/built-in.o
                                          0xe (size before relaxing)
 .rodata.genphy_update_link.str1.1
                0x0000000087846fd2       0x54 drivers/net/phy/built-in.o
                                         0x56 (size before relaxing)
 .rodata.get_cluster.str1.1
                0x0000000087847026       0x25 fs/built-in.o
 .rodata.get_current.str1.1
                0x000000008784704b       0x15 drivers/serial/built-in.o
 .rodata.get_descriptor_len.str1.1
                0x0000000087847060       0x64 common/built-in.o
 .rodata.get_device.str1.1
                0x00000000878470c4       0x6a disk/built-in.o
 .rodata.get_device_and_partition.str1.1
                0x000000008784712e      0x112 disk/built-in.o
                                        0x11b (size before relaxing)
 .rodata.get_fatent_value.str1.1
                0x0000000087847240       0x22 fs/built-in.o
 .rodata.get_imx_type.str1.1
                0x0000000087847262       0x34 arch/arm/imx-common/built-in.o
                                          0x3 (size before relaxing)
 .rodata.get_local_var.str1.1
                0x0000000087847262        0x3 common/built-in.o
 .rodata.get_partition_info_extended.constprop.1.str1.1
                0x0000000087847265       0x27 disk/built-in.o
                                         0x2e (size before relaxing)
 .rodata.get_phy_device_by_mask.str1.1
                0x000000008784728c       0x29 drivers/net/phy/built-in.o
 .rodata.get_vfatname.str1.1
                0x00000000878472b5       0x13 fs/built-in.o
 .rodata.getenv_bootm_low.str1.1
                0x00000000878472c8        0xa common/built-in.o
 .rodata.getenv_bootm_mapsize.str1.1
                0x00000000878472d2        0xe common/built-in.o
 .rodata.getenv_bootm_size.str1.1
                0x00000000878472e0        0xb common/built-in.o
 .rodata.getenv_f.str1.1
                0x00000000878472eb       0x30 cmd/built-in.o
 .rodata.gunzip.str1.1
                0x000000008784731b       0x3e lib/built-in.o
 .rodata.hang.str1.1
                0x0000000087847359       0x2a lib/built-in.o
 .rodata.hash_command.str1.1
                0x0000000087847383       0x25 common/built-in.o
 .rodata.hex_asc
                0x00000000878473a8       0x11 lib/built-in.o
 .rodata.hexport_r.str1.1
                0x00000000878473b9       0x30 lib/built-in.o
 .rodata.himport_r.str1.1
                0x00000000878473e9       0x99 lib/built-in.o
 .rodata.i2c_get_adapter.str1.1
                0x0000000087847482       0x2d drivers/i2c/built-in.o
 .rodata.i2c_imx_stop.str1.1
                0x00000000878474af       0x18 drivers/i2c/built-in.o
 .rodata.i2c_init_transfer.str1.1
                0x00000000878474c7       0x3f drivers/i2c/built-in.o
 .rodata.image_info.str1.1
                0x0000000087847506       0xac cmd/built-in.o
 .rodata.image_print_contents.str1.1
                0x00000000878475b2       0xa8 common/built-in.o
                                         0xac (size before relaxing)
 .rodata.image_setup_libfdt.str1.1
                0x000000008784765a       0x8f common/built-in.o
 .rodata.imx_thermal_get_temp.str1.1
                0x00000000878476e9       0x3a drivers/built-in.o
 .rodata.inflate.str1.1
                0x0000000087847723      0x158 lib/built-in.o
 .rodata.inflate_fast.str1.1
                0x000000008784787b       0x50 lib/built-in.o
 .rodata.init_baud_rate.str1.1
                0x00000000878478cb        0x9 common/built-in.o
 .rodata.init_func_i2c.str1.1
                0x00000000878478d4        0x8 common/built-in.o
                                          0xf (size before relaxing)
 .rodata.init_mmc_device.str1.1
                0x00000000878478dc       0x1a cmd/built-in.o
 .rodata.init_mmc_for_env.str1.1
                0x00000000878478f6       0x5e common/built-in.o
 .rodata.initcall_run_list.str1.1
                0x0000000087847954       0x31 lib/built-in.o
 .rodata.initr_env.str1.1
                0x0000000087847985        0x9 common/built-in.o
 .rodata.initr_ethaddr.str1.1
                0x0000000087847985        0x8 common/built-in.o
 .rodata.initr_mmc.str1.1
                0x0000000087847985        0x8 common/built-in.o
 .rodata.initr_net.str1.1
                0x000000008784798d        0x8 common/built-in.o
 .rodata.insert_var_value_sub.str1.1
                0x0000000087847995        0x6 common/built-in.o
 .rodata.invalidate_dcache_range.str1.1
                0x000000008784799b       0x65 arch/arm/cpu/armv7/built-in.o
 .rodata.ip_to_string.str1.1
                0x0000000087847a00        0xc net/built-in.o
 .rodata.lists_bind_drivers.str1.1
                0x0000000087847a0c       0x1a drivers/built-in.o
 .rodata.lmb_alloc_base.str1.1
                0x0000000087847a26       0x34 lib/built-in.o
 .rodata.load_serial.str1.1
                0x0000000087847a5a       0x65 cmd/built-in.o
 .rodata.load_serial_ymodem.str1.1
                0x0000000087847abf       0x31 cmd/built-in.o
                                         0x35 (size before relaxing)
 .rodata.match.str1.1
                0x0000000087847af0       0x18 lib/built-in.o
 .rodata.match_entry.str1.1
                0x0000000087847b08       0x1b lib/built-in.o
 .rodata.match_string.str1.1
                0x0000000087847b08       0x2c lib/built-in.o
 .rodata.mdio_list_devices.str1.1
                0x0000000087847b34       0x17 common/built-in.o
                                         0x19 (size before relaxing)
 .rodata.mdio_phydev_for_ethname.str1.1
                0x0000000087847b4b       0x1c common/built-in.o
 .rodata.mdio_register.str1.1
                0x0000000087847b67       0x2c common/built-in.o
 .rodata.miiphy_duplex.str1.1
                0x0000000087847b93       0x3d common/built-in.o
 .rodata.miiphy_get_dev_by_name.str1.1
                0x0000000087847bd0       0x13 common/built-in.o
 .rodata.miiphy_listdev.str1.1
                0x0000000087847be3       0x2a common/built-in.o
 .rodata.miiphy_set_current_dev.str1.1
                0x0000000087847c0d       0x14 common/built-in.o
 .rodata.miiphy_speed.str1.1
                0x0000000087847c21       0x38 common/built-in.o
 .rodata.mmc_berase.str1.1
                0x0000000087847c59       0x6f drivers/mmc/built-in.o
 .rodata.mmc_bread.str1.1
                0x0000000087847cc8       0x47 drivers/mmc/built-in.o
 .rodata.mmc_bwrite.str1.1
                0x0000000087847d0f       0x12 drivers/mmc/built-in.o
                                         0x59 (size before relaxing)
 .rodata.mmc_hwpart_config.str1.1
                0x0000000087847d21      0x19f drivers/mmc/built-in.o
 .rodata.mmc_select_hwpart.str1.1
                0x0000000087847ec0       0x22 drivers/mmc/built-in.o
 .rodata.mmc_send_status.str1.1
                0x0000000087847ee2       0x32 drivers/mmc/built-in.o
 .rodata.mmc_start_init.str1.1
                0x0000000087847f14       0x3f drivers/mmc/built-in.o
 .rodata.mmc_startup.str1.1
                0x0000000087847f53       0x38 drivers/mmc/built-in.o
                                         0x3e (size before relaxing)
 .rodata.mod_i2c_mem.isra.3.str1.1
                0x0000000087847f8b       0x21 cmd/built-in.o
                                         0x28 (size before relaxing)
 .rodata.mod_mem.isra.0.str1.1
                0x0000000087847fac        0xc cmd/built-in.o
                                         0x1d (size before relaxing)
 .rodata.mtd_arg_off.str1.1
                0x0000000087847fb8       0x38 drivers/mtd/built-in.o
 .rodata.mtd_arg_off_size.str1.1
                0x0000000087847ff0       0x71 drivers/mtd/built-in.o
 .rodata.mxc_get_clock.str1.1
                0x0000000087848061       0x19 arch/arm/cpu/armv7/built-in.o
 .rodata.mxs_set_lcdclk.str1.1
                0x000000008784807a       0x34 arch/arm/cpu/armv7/built-in.o
 .rodata.names.7426
                0x00000000878480ae        0x6 lib/built-in.o
 .rodata.net_auto_load.str1.1
                0x00000000878480b4        0xd net/built-in.o
 .rodata.net_bcast_ethaddr
                0x00000000878480c1        0x6 net/built-in.o
                0x00000000878480c1                net_bcast_ethaddr
 .rodata.net_loop.str1.1
                0x00000000878480c7       0xe5 net/built-in.o
                                         0xf7 (size before relaxing)
 .rodata.net_process_received_packet.str1.1
                0x00000000878481ac       0x1d net/built-in.o
 .rodata.net_start_again.str1.1
                0x00000000878481c9        0xe net/built-in.o
                                         0x15 (size before relaxing)
 .rodata.netboot_common.str1.1
                0x00000000878481d7       0x16 cmd/built-in.o
                                         0x4a (size before relaxing)
 .rodata.nfs_handler.str1.1
                0x00000000878481ed       0x70 net/built-in.o
 .rodata.nfs_read_reply.isra.0.str1.1
                0x000000008784825d        0x4 net/built-in.o
 .rodata.nfs_readlink_reply.str1.1
                0x0000000087848261        0x2 net/built-in.o
 .rodata.nfs_start.str1.1
                0x0000000087848261      0x104 net/built-in.o
 .rodata.nfs_timeout_handler.str1.1
                0x0000000087848365       0x2a net/built-in.o
 .rodata.on_baudrate.str1.1
                0x000000008784838f       0x42 drivers/serial/built-in.o
                                         0x74 (size before relaxing)
 .rodata.on_callbacks.str1.1
                0x00000000878483d1       0xf4 common/built-in.o
 .rodata.on_console.str1.1
                0x00000000878484c5       0x10 common/built-in.o
                                         0x27 (size before relaxing)
 .rodata.on_flags.str1.1
                0x00000000878484c5       0x50 common/built-in.o
 .rodata.parse_argv.str1.1
                0x0000000087848515        0x6 cmd/built-in.o
                                          0xd (size before relaxing)
 .rodata.parse_stream_outer.str1.1
                0x000000008784851b       0x4d common/built-in.o
 .rodata.parse_string_outer.str1.1
                0x0000000087848568        0x2 common/built-in.o
 .rodata.phy_connect_dev.str1.1
                0x0000000087848568       0x2f drivers/net/phy/built-in.o
 .rodata.phy_reset.str1.1
                0x0000000087848597       0x15 drivers/net/phy/built-in.o
 .rodata.ping_start.str1.1
                0x00000000878485ac       0x11 net/built-in.o
 .rodata.pmic_reg_write.str1.1
                0x00000000878485ac       0x17 drivers/power/built-in.o
 .rodata.prepare_access.str1.1
                0x00000000878485c3       0x22 drivers/built-in.o
 .rodata.print_buffer.str1.1
                0x00000000878485e5        0xe lib/built-in.o
                                         0x17 (size before relaxing)
 .rodata.print_cpuinfo.str1.1
                0x00000000878485f3      0x12d arch/arm/imx-common/built-in.o
                                        0x14b (size before relaxing)
 .rodata.print_data.str1.1
                0x0000000087848720       0x27 cmd/built-in.o
                                         0x32 (size before relaxing)
 .rodata.print_freq.str1.1
                0x0000000087848747       0x1b lib/built-in.o
 .rodata.print_jrnl_status.str1.1
                0x0000000087848762       0x34 fs/built-in.o
 .rodata.print_mmc_devices.str1.1
                0x0000000087848796       0x12 drivers/mmc/built-in.o
                                         0x1c (size before relaxing)
 .rodata.print_num.str1.1
                0x00000000878487a8       0x10 cmd/built-in.o
 .rodata.print_part.str1.1
                0x00000000878487b8       0x7e disk/built-in.o
                                         0x87 (size before relaxing)
 .rodata.print_part_dos.str1.1
                0x0000000087848836       0x2a disk/built-in.o
 .rodata.print_partition_extended.str1.1
                0x0000000087848860       0x83 disk/built-in.o
                                         0x84 (size before relaxing)
 .rodata.print_size.str1.1
                0x00000000878488e3       0x15 lib/built-in.o
 .rodata.put_ext4.str1.1
                0x00000000878488f8       0x42 fs/built-in.o
 .rodata.quantifier.str1.1
                0x000000008784893a       0x17 lib/built-in.o
 .rodata.raise.str1.1
                0x0000000087848951       0x1b arch/arm/lib/eabi_compat.o
 .rodata.read_allocated_block.str1.1
                0x000000008784896c      0x24e fs/built-in.o
 .rodata.read_bootsectandvi.str1.1
                0x0000000087848bba       0x1b fs/built-in.o
 .rodata.realloc.str1.1
                0x0000000087848bd5       0x25 common/built-in.o
 .rodata.regex_callback.str1.1
                0x0000000087848bfa        0x5 common/built-in.o
                                         0x20 (size before relaxing)
 .rodata.regex_sub.part.1.str1.1
                0x0000000087848bff       0xbd cmd/built-in.o
 .rodata.rpc_add_credentials.str1.1
                0x0000000087848cbc        0x1 net/built-in.o
 .rodata.run_list_real.str1.1
                0x0000000087848cbc       0x45 common/built-in.o
                                         0x4b (size before relaxing)
 .rodata.saveenv.str1.1
                0x0000000087848d01       0x19 common/built-in.o
                                         0x2c (size before relaxing)
 .rodata.select_display_dev.str1.1
                0x0000000087848d1a      0x1b6 board/freescale/mx6ullevk/built-in.o
                                        0x1bc (size before relaxing)
 .rodata.set_default_env.str1.1
                0x0000000087848ed0       0x5e common/built-in.o
                                         0x9b (size before relaxing)
 .rodata.set_local_var.str1.1
                0x0000000087848f2e       0x59 common/built-in.o
 .rodata.set_working_fdt_addr.str1.1
                0x0000000087848f87        0x8 cmd/built-in.o
 .rodata.setenv.str1.1
                0x0000000087848f8f        0x7 cmd/built-in.o
 .rodata.setenv_hex.str1.1
                0x0000000087848f96        0x4 cmd/built-in.o
 .rodata.setup_i2c.str1.1
                0x0000000087848f9a       0x18 arch/arm/imx-common/built-in.o
 .rodata.show_devices.str1.1
                0x0000000087848fb2       0x21 drivers/built-in.o
                                         0x2a (size before relaxing)
 .rodata.show_dram_config.str1.1
                0x0000000087848fd3        0x1 common/built-in.o
 .rodata.show_regs.str1.1
                0x0000000087848fd3       0xff arch/arm/lib/built-in.o
                                        0x129 (size before relaxing)
 .rodata.source.str1.1
                0x00000000878490d2       0x7e cmd/built-in.o
 .rodata.spi_flash_cmd_erase_ops.str1.1
                0x0000000087849150       0x2f drivers/mtd/spi/built-in.o
 .rodata.spi_flash_cmd_write_ops.str1.1
                0x000000008784917f       0x30 drivers/mtd/spi/built-in.o
 .rodata.spi_flash_scan.str1.1
                0x00000000878491af       0xef drivers/mtd/spi/built-in.o
                                         0xf2 (size before relaxing)
 .rodata.spi_flash_write_common.str1.1
                0x000000008784929e        0xe drivers/mtd/spi/built-in.o
 .rodata.spi_read_cmds_array.9404
                0x00000000878492ac        0x6 drivers/mtd/spi/built-in.o
 .rodata.spi_setup_slave.str1.1
                0x00000000878492b2       0x9f drivers/spi/built-in.o
 .rodata.splash_get_pos.str1.1
                0x0000000087849351        0xa common/built-in.o
 .rodata.stdio_add_devices.str1.1
                0x000000008784935b        0x8 common/built-in.o
                                          0xf (size before relaxing)
 .rodata.stdio_print_current_devices.str1.1
                0x0000000087849363       0x70 common/built-in.o
                                         0x74 (size before relaxing)
 .rodata.store_char_in_data.str1.1
                0x00000000878493d3       0x1f lib/built-in.o
 .rodata.str1.1
                0x00000000878493f2       0x6b arch/arm/cpu/armv7/built-in.o
                                         0x73 (size before relaxing)
 .rodata.str1.1
                0x000000008784945d       0x3d arch/arm/imx-common/built-in.o
                                         0x3e (size before relaxing)
 .rodata.str1.1
                0x000000008784949a       0xeb arch/arm/lib/built-in.o
 .rodata.str1.1
                0x0000000087849585        0xe board/freescale/mx6ullevk/built-in.o
 .rodata.str1.1
                0x0000000087849593     0x3a04 cmd/built-in.o
                                       0x3cf3 (size before relaxing)
 .rodata.str1.1
                0x000000008784cf97      0x639 common/built-in.o
                                        0x6a6 (size before relaxing)
 .rodata.str1.1
                0x000000008784d5d0        0x8 disk/built-in.o
 .rodata.str1.1
                0x000000008784d5d0       0x1c drivers/built-in.o
                                         0x3a (size before relaxing)
 .rodata.str1.1
                0x000000008784d5ec        0xa drivers/i2c/built-in.o
 .rodata.str1.1
                0x000000008784d5f6       0xb5 drivers/mtd/spi/built-in.o
 .rodata.str1.1
                0x000000008784d6ab       0x9c drivers/net/phy/built-in.o
                                         0xb0 (size before relaxing)
 .rodata.str1.1
                0x000000008784d747       0xff drivers/power/built-in.o
 .rodata.str1.1
                0x000000008784d846        0x9 drivers/serial/built-in.o
 .rodata.str1.1
                0x000000008784d846       0x15 fs/built-in.o
 .rodata.str1.1
                0x000000008784d85b      0x134 lib/built-in.o
                                        0x135 (size before relaxing)
 .rodata.str1.1
                0x000000008784d98f        0x6 net/built-in.o
                                         0x3e (size before relaxing)
 .rodata.str1.1
                0x000000008784d995       0xdc test/dm/built-in.o
                                         0xe2 (size before relaxing)
 .rodata.string.str1.1
                0x000000008784da71        0x7 lib/built-in.o
 .rodata.submit_control_msg.str1.1
                0x000000008784da78       0x16 drivers/usb/host/built-in.o
 .rodata.submit_int_msg.str1.1
                0x000000008784da8e       0x24 drivers/usb/host/built-in.o
 .rodata.substitute.str1.1
                0x000000008784dab2       0x28 cmd/built-in.o
 .rodata.syntax_err.str1.1
                0x000000008784dada        0xe common/built-in.o
 .rodata.tab_seq
                0x000000008784dae8        0x9 common/built-in.o
 .rodata.test_block_type.str1.1
                0x000000008784daf1        0xa disk/built-in.o
 .rodata.tftp_handler.str1.1
                0x000000008784dafb       0x72 net/built-in.o
                                         0x80 (size before relaxing)
 .rodata.tftp_send.str1.1
                0x000000008784db6d       0x36 net/built-in.o
                                         0x42 (size before relaxing)
 .rodata.tftp_start.str1.1
                0x000000008784dba3       0xe8 net/built-in.o
                                        0x17d (size before relaxing)
 .rodata.tftp_timeout_handler.str1.1
                0x000000008784dc8b       0x2a net/built-in.o
                                         0x2d (size before relaxing)
 .rodata.u_boot_hush_start.str1.1
                0x000000008784dcb5       0x12 common/built-in.o
 .rodata.uclass_resolve_seq.str1.1
                0x000000008784dcc7       0x27 drivers/built-in.o
 .rodata.us_direction
                0x000000008784dcee       0x20 common/built-in.o
 .rodata.usb_alloc_new_device.str1.1
                0x000000008784dd0e       0x25 common/built-in.o
 .rodata.usb_display_class_sub.str1.1
                0x000000008784dd33       0xb6 cmd/built-in.o
                                         0xbc (size before relaxing)
 .rodata.usb_display_config.str1.1
                0x000000008784dde9      0x10d cmd/built-in.o
                                        0x11a (size before relaxing)
 .rodata.usb_display_desc.part.1.str1.1
                0x000000008784def6       0xac cmd/built-in.o
 .rodata.usb_display_string.str1.1
                0x000000008784dfa2        0xd cmd/built-in.o
 .rodata.usb_find_usb2_hub_address_port.str1.1
                0x000000008784dfaf       0x36 common/built-in.o
 .rodata.usb_get_class_desc.str1.1
                0x000000008784dfe5       0x64 cmd/built-in.o
                                         0x65 (size before relaxing)
 .rodata.usb_get_configuration_len.str1.1
                0x000000008784e049       0x58 common/built-in.o
 .rodata.usb_host_eth_scan.str1.1
                0x000000008784e0a1       0xa3 drivers/usb/eth/built-in.o
 .rodata.usb_hub_configure.str1.1
                0x000000008784e144       0x21 common/built-in.o
 .rodata.usb_hub_port_connect_change.str1.1
                0x000000008784e165       0x39 common/built-in.o
 .rodata.usb_hub_power_on.str1.1
                0x000000008784e19e       0x10 common/built-in.o
 .rodata.usb_init.str1.1
                0x000000008784e1ae       0xb3 common/built-in.o
 .rodata.usb_lowlevel_init.str1.1
                0x000000008784e261       0x26 drivers/usb/host/built-in.o
 .rodata.usb_select_config.str1.1
                0x000000008784e287      0x220 common/built-in.o
 .rodata.usb_set_interface.str1.1
                0x000000008784e4a7       0x1f common/built-in.o
 .rodata.usb_setup_device.str1.1
                0x000000008784e4c6       0xaf common/built-in.o
 .rodata.usb_show_tree_graph.str1.1
                0x000000008784e575       0x2b cmd/built-in.o
                                         0x3a (size before relaxing)
 .rodata.usb_stop.str1.1
                0x000000008784e5a0       0x22 common/built-in.o
 .rodata.usb_stor_CBI_get_status.isra.2.str1.1
                0x000000008784e5c2       0x1f common/built-in.o
 .rodata.usb_stor_CB_transport.str1.1
                0x000000008784e5e1       0x6e common/built-in.o
 .rodata.usb_stor_get_info.str1.1
                0x000000008784e64f       0x5d common/built-in.o
 .rodata.usb_stor_info.str1.1
                0x000000008784e6ac       0x32 common/built-in.o
                                         0x40 (size before relaxing)
 .rodata.usb_stor_scan.str1.1
                0x000000008784e6de       0x75 common/built-in.o
 .rodata.usb_storage_probe.str1.1
                0x000000008784e753       0x5c common/built-in.o
 .rodata.valid_elf_image.str1.1
                0x000000008784e7af       0x52 cmd/built-in.o
 .rodata.var_complete.str1.1
                0x000000008784e801        0x1 common/built-in.o
 .rodata.version_string
                0x000000008784e801       0x2e cmd/built-in.o
                0x000000008784e801                version_string
 .rodata.video_display_bitmap.str1.1
                0x000000008784e82f       0xf5 drivers/built-in.o
 .rodata.video_get_params.str1.1
                0x000000008784e924       0x54 drivers/built-in.o
                                         0x5d (size before relaxing)
 .rodata.video_hw_init.str1.1
                0x000000008784e978       0x91 drivers/built-in.o
                                         0x95 (size before relaxing)
 .rodata.wait_for_sr_state.str1.1
                0x000000008784ea09       0x4c drivers/i2c/built-in.o
 .rodata.xmalloc.str1.1
                0x000000008784ea55       0x1e common/built-in.o
 .rodata.xyzModem_error.str1.1
                0x000000008784ea73        0xe common/built-in.o
 .rodata.xyzModem_stream_close.str1.1
                0x000000008784ea81       0x47 common/built-in.o
                                         0x4b (size before relaxing)
 .rodata.xyzModem_stream_open.str1.1
                0x000000008784eac8        0x2 common/built-in.o
 .rodata.zunzip.str1.1
                0x000000008784eac8       0x47 lib/built-in.o

.hash           0x000000008784eb10       0x18
 .hash          0x000000008784eb10       0x18 arch/arm/cpu/armv7/start.o
                0x000000008784eb28                . = ALIGN (0x4)

.data           0x000000008784eb28     0x30e4
 *(.data*)
 .data.rel.ro   0x000000008784eb28        0x0 arch/arm/cpu/armv7/start.o
 .data.imx_ccm  0x000000008784eb28        0x4 arch/arm/cpu/armv7/built-in.o
                0x000000008784eb28                imx_ccm
 .data.base     0x000000008784eb2c        0x4 arch/arm/imx-common/built-in.o
 .data.reset_cause
                0x000000008784eb30        0x4 arch/arm/imx-common/built-in.o
 .data.display_count
                0x000000008784eb34        0x4 board/freescale/mx6ullevk/built-in.o
                0x000000008784eb34                display_count
 .data.i2c_pad_info1
                0x000000008784eb38       0x30 board/freescale/mx6ullevk/built-in.o
 .data.usdhc_cfg
                0x000000008784eb68       0x58 board/freescale/mx6ullevk/built-in.o
 .data.bootm_help_text
                0x000000008784ebc0      0x38b cmd/built-in.o
 .data.bootz_help_text
                0x000000008784ef4b      0x208 cmd/built-in.o
 *fill*         0x000000008784f153        0x1 
 .data.cmd_bootm_sub
                0x000000008784f154       0xfc cmd/built-in.o
 .data.source_help_text
                0x000000008784f250       0x4e cmd/built-in.o
 *fill*         0x000000008784f29e        0x2 
 .data.cmd_bmp_sub
                0x000000008784f2a0       0x38 cmd/built-in.o
 .data.fdt_help_text
                0x000000008784f2d8      0x5e3 cmd/built-in.o
 .data.root.8171
                0x000000008784f8bb        0x2 cmd/built-in.o
 .data.tabs.8254
                0x000000008784f8bd       0x21 cmd/built-in.o
 *fill*         0x000000008784f8de        0x2 
 .data.cmd_i2c_sub
                0x000000008784f8e0      0x16c cmd/built-in.o
 .data.i2c_dp_last_length
                0x000000008784fa4c        0x4 cmd/built-in.o
 .data.i2c_help_text
                0x000000008784fa50      0x37c cmd/built-in.o
 .data.do_echo  0x000000008784fdcc        0x4 cmd/built-in.o
 .data.dp_last_length
                0x000000008784fdd0        0x4 cmd/built-in.o
 .data.cmd_mmc  0x000000008784fdd4      0x188 cmd/built-in.o
 .data.curr_device
                0x000000008784ff5c        0x4 cmd/built-in.o
 .data.usb_stor_curr_dev
                0x000000008784ff60        0x4 cmd/built-in.o
 .data.imgextract_help_text
                0x000000008784ff64       0x55 cmd/built-in.o
 *fill*         0x000000008784ffb9        0x3 
 .data.cmd_env_sub
                0x000000008784ffbc      0x118 cmd/built-in.o
 .data.env_help_text
                0x00000000878500d4      0x24f cmd/built-in.o
 *fill*         0x0000000087850323        0x1 
 .data.env_id   0x0000000087850324        0x4 cmd/built-in.o
 .data.reserved_list
                0x0000000087850328       0x84 common/built-in.o
 .data.init_sequence_f
                0x00000000878503ac       0xa0 common/built-in.o
 .data.init_sequence_r
                0x000000008785044c       0x70 common/built-in.o
                0x000000008785044c                init_sequence_r
 .data.first_call
                0x00000000878504bc        0x8 common/built-in.o
 .data.env_name_spec
                0x00000000878504c4        0x4 common/built-in.o
                0x00000000878504c4                env_name_spec
 .data.env_htab
                0x00000000878504c8       0x10 common/built-in.o
                0x00000000878504c8                env_htab
 .data.av_      0x00000000878504d8      0x408 common/built-in.o
 .data.sbrk_base
                0x00000000878508e0        0x4 common/built-in.o
 .data.trim_threshold
                0x00000000878508e4        0x4 common/built-in.o
 .data.load_addr
                0x00000000878508e8        0x4 common/built-in.o
                0x00000000878508e8                load_addr
 .data.stdio_names
                0x00000000878508ec        0xc common/built-in.o
                0x00000000878508ec                stdio_names
 .data.hist_cur
                0x00000000878508f8        0x4 common/built-in.o
 .data.nl.8726  0x00000000878508fc        0x4 drivers/built-in.o
 .data.video_fontdata
                0x0000000087850900     0x1000 drivers/built-in.o
 .data.mxc_i2c_buses
                0x0000000087851900       0x70 drivers/i2c/built-in.o
 .data.cur_dev_num
                0x0000000087851970        0x4 drivers/mmc/built-in.o
 .data.genphy_driver
                0x0000000087851974       0x34 drivers/net/phy/built-in.o
 .data.phy_drivers
                0x00000000878519a8        0x8 drivers/net/phy/built-in.o
 .data.lan8700_driver
                0x00000000878519b0       0x34 drivers/net/phy/built-in.o
 .data.lan8710_driver
                0x00000000878519e4       0x34 drivers/net/phy/built-in.o
 .data.lan8740_driver
                0x0000000087851a18       0x34 drivers/net/phy/built-in.o
 .data.lan911x_driver
                0x0000000087851a4c       0x34 drivers/net/phy/built-in.o
 .data.pmic_list
                0x0000000087851a80        0x8 drivers/power/built-in.o
 .data.mxc_serial_drv
                0x0000000087851a88       0x30 drivers/serial/built-in.o
 .data.descriptor
                0x0000000087851ab8       0x38 drivers/usb/host/built-in.o
 .data.fstypes  0x0000000087851af0       0x84 fs/built-in.o
 .data.ext4fs_indir1_blkno
                0x0000000087851b74        0x4 fs/built-in.o
                0x0000000087851b74                ext4fs_indir1_blkno
 .data.ext4fs_indir2_blkno
                0x0000000087851b78        0x4 fs/built-in.o
                0x0000000087851b78                ext4fs_indir2_blkno
 .data.ext4fs_indir3_blkno
                0x0000000087851b7c        0x4 fs/built-in.o
                0x0000000087851b7c                ext4fs_indir3_blkno
 .data.prev_bg_bitmap_index.7961
                0x0000000087851b80        0x4 fs/built-in.o
 .data.prev_inode_bitmap_index.7980
                0x0000000087851b84        0x4 fs/built-in.o
 .data.prev_bg_bmap_idx.7682
                0x0000000087851b88        0x4 fs/built-in.o
 .data.prev_bg_bmap_idx.7696
                0x0000000087851b8c        0x4 fs/built-in.o
 .data.prev_bg_bmap_idx.7716
                0x0000000087851b90        0x4 fs/built-in.o
 .data.prev_bg_bmap_idx.7748
                0x0000000087851b94        0x4 fs/built-in.o
 .data.first_node
                0x0000000087851b98        0x4 fs/built-in.o
 .data.first_call.7801
                0x0000000087851b9c        0x4 net/built-in.o
 .data.net_native_vlan
                0x0000000087851ba0        0x2 net/built-in.o
                0x0000000087851ba0                net_native_vlan
 .data.net_our_vlan
                0x0000000087851ba2        0x2 net/built-in.o
                0x0000000087851ba2                net_our_vlan
 .data.nfs_offset
                0x0000000087851ba4        0x4 net/built-in.o
 .data.tftp_block_size
                0x0000000087851ba8        0x2 net/built-in.o
 .data.tftp_block_size_option
                0x0000000087851baa        0x2 net/built-in.o
 .data.tftp_timeout_count_max
                0x0000000087851bac        0x4 net/built-in.o
                0x0000000087851bac                tftp_timeout_count_max
 .data.timeout_count_max
                0x0000000087851bb0        0x4 net/built-in.o
 .data.timeout_ms
                0x0000000087851bb4        0x4 net/built-in.o
 .data.test_commands
                0x0000000087851bb8       0x54 test/dm/built-in.o

.got            0x0000000087851c0c        0x0
 .got           0x0000000087851c0c        0x0 arch/arm/cpu/armv7/start.o

.got.plt        0x0000000087851c0c        0xc
 .got.plt       0x0000000087851c0c        0xc arch/arm/cpu/armv7/start.o
                0x0000000087851c0c                _GLOBAL_OFFSET_TABLE_

.igot.plt       0x0000000087851c18        0x0
 .igot.plt      0x0000000087851c18        0x0 arch/arm/cpu/armv7/start.o
                0x0000000087851c18                . = ALIGN (0x4)
                0x0000000087851c18                . = .
                0x0000000087851c18                . = ALIGN (0x4)

.u_boot_list    0x0000000087851c18      0xbac
 *(SORT_BY_NAME(.u_boot_list*))
 .u_boot_list_2_cmd_1
                0x0000000087851c18        0x0 cmd/built-in.o
 .u_boot_list_2_cmd_1
                0x0000000087851c18        0x0 common/built-in.o
 .u_boot_list_2_cmd_2_base
                0x0000000087851c18       0x1c cmd/built-in.o
                0x0000000087851c18                _u_boot_list_2_cmd_2_base
 .u_boot_list_2_cmd_2_bdinfo
                0x0000000087851c34       0x1c cmd/built-in.o
                0x0000000087851c34                _u_boot_list_2_cmd_2_bdinfo
 .u_boot_list_2_cmd_2_bmode
                0x0000000087851c50       0x1c arch/arm/imx-common/built-in.o
                0x0000000087851c50                _u_boot_list_2_cmd_2_bmode
 .u_boot_list_2_cmd_2_bmp
                0x0000000087851c6c       0x1c cmd/built-in.o
                0x0000000087851c6c                _u_boot_list_2_cmd_2_bmp
 .u_boot_list_2_cmd_2_boot
                0x0000000087851c88       0x1c cmd/built-in.o
                0x0000000087851c88                _u_boot_list_2_cmd_2_boot
 .u_boot_list_2_cmd_2_bootd
                0x0000000087851ca4       0x1c cmd/built-in.o
                0x0000000087851ca4                _u_boot_list_2_cmd_2_bootd
 .u_boot_list_2_cmd_2_bootelf
                0x0000000087851cc0       0x1c cmd/built-in.o
                0x0000000087851cc0                _u_boot_list_2_cmd_2_bootelf
 .u_boot_list_2_cmd_2_bootm
                0x0000000087851cdc       0x1c cmd/built-in.o
                0x0000000087851cdc                _u_boot_list_2_cmd_2_bootm
 .u_boot_list_2_cmd_2_bootp
                0x0000000087851cf8       0x1c cmd/built-in.o
                0x0000000087851cf8                _u_boot_list_2_cmd_2_bootp
 .u_boot_list_2_cmd_2_bootvx
                0x0000000087851d14       0x1c cmd/built-in.o
                0x0000000087851d14                _u_boot_list_2_cmd_2_bootvx
 .u_boot_list_2_cmd_2_bootz
                0x0000000087851d30       0x1c cmd/built-in.o
                0x0000000087851d30                _u_boot_list_2_cmd_2_bootz
 .u_boot_list_2_cmd_2_clocks
                0x0000000087851d4c       0x1c arch/arm/cpu/armv7/built-in.o
                0x0000000087851d4c                _u_boot_list_2_cmd_2_clocks
 .u_boot_list_2_cmd_2_cmp
                0x0000000087851d68       0x1c cmd/built-in.o
                0x0000000087851d68                _u_boot_list_2_cmd_2_cmp
 .u_boot_list_2_cmd_2_coninfo
                0x0000000087851d84       0x1c cmd/built-in.o
                0x0000000087851d84                _u_boot_list_2_cmd_2_coninfo
 .u_boot_list_2_cmd_2_cp
                0x0000000087851da0       0x1c cmd/built-in.o
                0x0000000087851da0                _u_boot_list_2_cmd_2_cp
 .u_boot_list_2_cmd_2_crc32
                0x0000000087851dbc       0x1c cmd/built-in.o
                0x0000000087851dbc                _u_boot_list_2_cmd_2_crc32
 .u_boot_list_2_cmd_2_dcache
                0x0000000087851dd8       0x1c cmd/built-in.o
                0x0000000087851dd8                _u_boot_list_2_cmd_2_dcache
 .u_boot_list_2_cmd_2_dhcp
                0x0000000087851df4       0x1c cmd/built-in.o
                0x0000000087851df4                _u_boot_list_2_cmd_2_dhcp
 .u_boot_list_2_cmd_2_dm
                0x0000000087851e10       0x1c test/dm/built-in.o
                0x0000000087851e10                _u_boot_list_2_cmd_2_dm
 .u_boot_list_2_cmd_2_echo
                0x0000000087851e2c       0x1c cmd/built-in.o
                0x0000000087851e2c                _u_boot_list_2_cmd_2_echo
 .u_boot_list_2_cmd_2_editenv
                0x0000000087851e48       0x1c cmd/built-in.o
                0x0000000087851e48                _u_boot_list_2_cmd_2_editenv
 .u_boot_list_2_cmd_2_env
                0x0000000087851e64       0x1c cmd/built-in.o
                0x0000000087851e64                _u_boot_list_2_cmd_2_env
 .u_boot_list_2_cmd_2_erase
                0x0000000087851e80       0x1c cmd/built-in.o
                0x0000000087851e80                _u_boot_list_2_cmd_2_erase
 .u_boot_list_2_cmd_2_exit
                0x0000000087851e9c       0x1c cmd/built-in.o
                0x0000000087851e9c                _u_boot_list_2_cmd_2_exit
 .u_boot_list_2_cmd_2_ext2load
                0x0000000087851eb8       0x1c cmd/built-in.o
                0x0000000087851eb8                _u_boot_list_2_cmd_2_ext2load
 .u_boot_list_2_cmd_2_ext2ls
                0x0000000087851ed4       0x1c cmd/built-in.o
                0x0000000087851ed4                _u_boot_list_2_cmd_2_ext2ls
 .u_boot_list_2_cmd_2_ext4load
                0x0000000087851ef0       0x1c cmd/built-in.o
                0x0000000087851ef0                _u_boot_list_2_cmd_2_ext4load
 .u_boot_list_2_cmd_2_ext4ls
                0x0000000087851f0c       0x1c cmd/built-in.o
                0x0000000087851f0c                _u_boot_list_2_cmd_2_ext4ls
 .u_boot_list_2_cmd_2_ext4size
                0x0000000087851f28       0x1c cmd/built-in.o
                0x0000000087851f28                _u_boot_list_2_cmd_2_ext4size
 .u_boot_list_2_cmd_2_ext4write
                0x0000000087851f44       0x1c cmd/built-in.o
                0x0000000087851f44                _u_boot_list_2_cmd_2_ext4write
 .u_boot_list_2_cmd_2_false
                0x0000000087851f60       0x1c cmd/built-in.o
                0x0000000087851f60                _u_boot_list_2_cmd_2_false
 .u_boot_list_2_cmd_2_fatinfo
                0x0000000087851f7c       0x1c cmd/built-in.o
                0x0000000087851f7c                _u_boot_list_2_cmd_2_fatinfo
 .u_boot_list_2_cmd_2_fatload
                0x0000000087851f98       0x1c cmd/built-in.o
                0x0000000087851f98                _u_boot_list_2_cmd_2_fatload
 .u_boot_list_2_cmd_2_fatls
                0x0000000087851fb4       0x1c cmd/built-in.o
                0x0000000087851fb4                _u_boot_list_2_cmd_2_fatls
 .u_boot_list_2_cmd_2_fatsize
                0x0000000087851fd0       0x1c cmd/built-in.o
                0x0000000087851fd0                _u_boot_list_2_cmd_2_fatsize
 .u_boot_list_2_cmd_2_fatwrite
                0x0000000087851fec       0x1c cmd/built-in.o
                0x0000000087851fec                _u_boot_list_2_cmd_2_fatwrite
 .u_boot_list_2_cmd_2_fdt
                0x0000000087852008       0x1c cmd/built-in.o
                0x0000000087852008                _u_boot_list_2_cmd_2_fdt
 .u_boot_list_2_cmd_2_flinfo
                0x0000000087852024       0x1c cmd/built-in.o
                0x0000000087852024                _u_boot_list_2_cmd_2_flinfo
 .u_boot_list_2_cmd_2_fstype
                0x0000000087852040       0x1c cmd/built-in.o
                0x0000000087852040                _u_boot_list_2_cmd_2_fstype
 .u_boot_list_2_cmd_2_fuse
                0x000000008785205c       0x1c cmd/built-in.o
                0x000000008785205c                _u_boot_list_2_cmd_2_fuse
 .u_boot_list_2_cmd_2_go
                0x0000000087852078       0x1c cmd/built-in.o
                0x0000000087852078                _u_boot_list_2_cmd_2_go
 .u_boot_list_2_cmd_2_gpio
                0x0000000087852094       0x1c cmd/built-in.o
                0x0000000087852094                _u_boot_list_2_cmd_2_gpio
 .u_boot_list_2_cmd_2_help
                0x00000000878520b0       0x1c cmd/built-in.o
                0x00000000878520b0                _u_boot_list_2_cmd_2_help
 .u_boot_list_2_cmd_2_i2c
                0x00000000878520cc       0x1c cmd/built-in.o
                0x00000000878520cc                _u_boot_list_2_cmd_2_i2c
 .u_boot_list_2_cmd_2_icache
                0x00000000878520e8       0x1c cmd/built-in.o
                0x00000000878520e8                _u_boot_list_2_cmd_2_icache
 .u_boot_list_2_cmd_2_iminfo
                0x0000000087852104       0x1c cmd/built-in.o
                0x0000000087852104                _u_boot_list_2_cmd_2_iminfo
 .u_boot_list_2_cmd_2_imxtract
                0x0000000087852120       0x1c cmd/built-in.o
                0x0000000087852120                _u_boot_list_2_cmd_2_imxtract
 .u_boot_list_2_cmd_2_itest
                0x000000008785213c       0x1c cmd/built-in.o
                0x000000008785213c                _u_boot_list_2_cmd_2_itest
 .u_boot_list_2_cmd_2_load
                0x0000000087852158       0x1c cmd/built-in.o
                0x0000000087852158                _u_boot_list_2_cmd_2_load
 .u_boot_list_2_cmd_2_loadb
                0x0000000087852174       0x1c cmd/built-in.o
                0x0000000087852174                _u_boot_list_2_cmd_2_loadb
 .u_boot_list_2_cmd_2_loads
                0x0000000087852190       0x1c cmd/built-in.o
                0x0000000087852190                _u_boot_list_2_cmd_2_loads
 .u_boot_list_2_cmd_2_loadx
                0x00000000878521ac       0x1c cmd/built-in.o
                0x00000000878521ac                _u_boot_list_2_cmd_2_loadx
 .u_boot_list_2_cmd_2_loady
                0x00000000878521c8       0x1c cmd/built-in.o
                0x00000000878521c8                _u_boot_list_2_cmd_2_loady
 .u_boot_list_2_cmd_2_loop
                0x00000000878521e4       0x1c cmd/built-in.o
                0x00000000878521e4                _u_boot_list_2_cmd_2_loop
 .u_boot_list_2_cmd_2_ls
                0x0000000087852200       0x1c cmd/built-in.o
                0x0000000087852200                _u_boot_list_2_cmd_2_ls
 .u_boot_list_2_cmd_2_md
                0x000000008785221c       0x1c cmd/built-in.o
                0x000000008785221c                _u_boot_list_2_cmd_2_md
 .u_boot_list_2_cmd_2_mdio
                0x0000000087852238       0x1c cmd/built-in.o
                0x0000000087852238                _u_boot_list_2_cmd_2_mdio
 .u_boot_list_2_cmd_2_mii
                0x0000000087852254       0x1c cmd/built-in.o
                0x0000000087852254                _u_boot_list_2_cmd_2_mii
 .u_boot_list_2_cmd_2_mm
                0x0000000087852270       0x1c cmd/built-in.o
                0x0000000087852270                _u_boot_list_2_cmd_2_mm
 .u_boot_list_2_cmd_2_mmc
                0x000000008785228c       0x1c cmd/built-in.o
                0x000000008785228c                _u_boot_list_2_cmd_2_mmc
 .u_boot_list_2_cmd_2_mmcinfo
                0x00000000878522a8       0x1c cmd/built-in.o
                0x00000000878522a8                _u_boot_list_2_cmd_2_mmcinfo
 .u_boot_list_2_cmd_2_mtest
                0x00000000878522c4       0x1c cmd/built-in.o
                0x00000000878522c4                _u_boot_list_2_cmd_2_mtest
 .u_boot_list_2_cmd_2_mw
                0x00000000878522e0       0x1c cmd/built-in.o
                0x00000000878522e0                _u_boot_list_2_cmd_2_mw
 .u_boot_list_2_cmd_2_nfs
                0x00000000878522fc       0x1c cmd/built-in.o
                0x00000000878522fc                _u_boot_list_2_cmd_2_nfs
 .u_boot_list_2_cmd_2_nm
                0x0000000087852318       0x1c cmd/built-in.o
                0x0000000087852318                _u_boot_list_2_cmd_2_nm
 .u_boot_list_2_cmd_2_ping
                0x0000000087852334       0x1c cmd/built-in.o
                0x0000000087852334                _u_boot_list_2_cmd_2_ping
 .u_boot_list_2_cmd_2_pmic
                0x0000000087852350       0x1c drivers/power/built-in.o
                0x0000000087852350                _u_boot_list_2_cmd_2_pmic
 .u_boot_list_2_cmd_2_printenv
                0x000000008785236c       0x1c cmd/built-in.o
                0x000000008785236c                _u_boot_list_2_cmd_2_printenv
 .u_boot_list_2_cmd_2_protect
                0x0000000087852388       0x1c cmd/built-in.o
                0x0000000087852388                _u_boot_list_2_cmd_2_protect
 .u_boot_list_2_cmd_2_question_mark
                0x00000000878523a4       0x1c cmd/built-in.o
                0x00000000878523a4                _u_boot_list_2_cmd_2_question_mark
 .u_boot_list_2_cmd_2_reset
                0x00000000878523c0       0x1c cmd/built-in.o
                0x00000000878523c0                _u_boot_list_2_cmd_2_reset
 .u_boot_list_2_cmd_2_run
                0x00000000878523dc       0x1c cmd/built-in.o
                0x00000000878523dc                _u_boot_list_2_cmd_2_run
 .u_boot_list_2_cmd_2_save
                0x00000000878523f8       0x1c cmd/built-in.o
                0x00000000878523f8                _u_boot_list_2_cmd_2_save
 .u_boot_list_2_cmd_2_saveenv
                0x0000000087852414       0x1c cmd/built-in.o
                0x0000000087852414                _u_boot_list_2_cmd_2_saveenv
 .u_boot_list_2_cmd_2_setenv
                0x0000000087852430       0x1c cmd/built-in.o
                0x0000000087852430                _u_boot_list_2_cmd_2_setenv
 .u_boot_list_2_cmd_2_setexpr
                0x000000008785244c       0x1c cmd/built-in.o
                0x000000008785244c                _u_boot_list_2_cmd_2_setexpr
 .u_boot_list_2_cmd_2_sf
                0x0000000087852468       0x1c cmd/built-in.o
                0x0000000087852468                _u_boot_list_2_cmd_2_sf
 .u_boot_list_2_cmd_2_showvar
                0x0000000087852484       0x1c common/built-in.o
                0x0000000087852484                _u_boot_list_2_cmd_2_showvar
 .u_boot_list_2_cmd_2_size
                0x00000000878524a0       0x1c cmd/built-in.o
                0x00000000878524a0                _u_boot_list_2_cmd_2_size
 .u_boot_list_2_cmd_2_sleep
                0x00000000878524bc       0x1c cmd/built-in.o
                0x00000000878524bc                _u_boot_list_2_cmd_2_sleep
 .u_boot_list_2_cmd_2_source
                0x00000000878524d8       0x1c cmd/built-in.o
                0x00000000878524d8                _u_boot_list_2_cmd_2_source
 .u_boot_list_2_cmd_2_test
                0x00000000878524f4       0x1c cmd/built-in.o
                0x00000000878524f4                _u_boot_list_2_cmd_2_test
 .u_boot_list_2_cmd_2_tftpboot
                0x0000000087852510       0x1c cmd/built-in.o
                0x0000000087852510                _u_boot_list_2_cmd_2_tftpboot
 .u_boot_list_2_cmd_2_true
                0x000000008785252c       0x1c cmd/built-in.o
                0x000000008785252c                _u_boot_list_2_cmd_2_true
 .u_boot_list_2_cmd_2_usb
                0x0000000087852548       0x1c cmd/built-in.o
                0x0000000087852548                _u_boot_list_2_cmd_2_usb
 .u_boot_list_2_cmd_2_usbboot
                0x0000000087852564       0x1c cmd/built-in.o
                0x0000000087852564                _u_boot_list_2_cmd_2_usbboot
 .u_boot_list_2_cmd_2_version
                0x0000000087852580       0x1c cmd/built-in.o
                0x0000000087852580                _u_boot_list_2_cmd_2_version
 .u_boot_list_2_cmd_3
                0x000000008785259c        0x0 cmd/built-in.o
 .u_boot_list_2_cmd_3
                0x000000008785259c        0x0 common/built-in.o
 .u_boot_list_2_driver_1
                0x000000008785259c        0x0 drivers/built-in.o
 .u_boot_list_2_driver_2_imx_thermal
                0x000000008785259c       0x44 drivers/built-in.o
                0x000000008785259c                _u_boot_list_2_driver_2_imx_thermal
 .u_boot_list_2_driver_2_root_driver
                0x00000000878525e0       0x44 drivers/built-in.o
                0x00000000878525e0                _u_boot_list_2_driver_2_root_driver
 .u_boot_list_2_driver_3
                0x0000000087852624        0x0 drivers/built-in.o
 .u_boot_list_2_driver_info_1
                0x0000000087852624        0x0 drivers/built-in.o
 .u_boot_list_2_driver_info_2_imx6_thermal
                0x0000000087852624        0x8 arch/arm/cpu/armv7/built-in.o
                0x0000000087852624                _u_boot_list_2_driver_info_2_imx6_thermal
 .u_boot_list_2_driver_info_3
                0x000000008785262c        0x0 drivers/built-in.o
 .u_boot_list_2_env_clbk_1
                0x000000008785262c        0x0 common/built-in.o
 .u_boot_list_2_env_clbk_2_baudrate
                0x000000008785262c        0x8 drivers/serial/built-in.o
                0x000000008785262c                _u_boot_list_2_env_clbk_2_baudrate
 .u_boot_list_2_env_clbk_2_bootfile
                0x0000000087852634        0x8 net/built-in.o
                0x0000000087852634                _u_boot_list_2_env_clbk_2_bootfile
 .u_boot_list_2_env_clbk_2_callbacks
                0x000000008785263c        0x8 common/built-in.o
                0x000000008785263c                _u_boot_list_2_env_clbk_2_callbacks
 .u_boot_list_2_env_clbk_2_console
                0x0000000087852644        0x8 common/built-in.o
                0x0000000087852644                _u_boot_list_2_env_clbk_2_console
 .u_boot_list_2_env_clbk_2_ethaddr
                0x000000008785264c        0x8 net/built-in.o
                0x000000008785264c                _u_boot_list_2_env_clbk_2_ethaddr
 .u_boot_list_2_env_clbk_2_flags
                0x0000000087852654        0x8 common/built-in.o
                0x0000000087852654                _u_boot_list_2_env_clbk_2_flags
 .u_boot_list_2_env_clbk_2_gatewayip
                0x000000008785265c        0x8 net/built-in.o
                0x000000008785265c                _u_boot_list_2_env_clbk_2_gatewayip
 .u_boot_list_2_env_clbk_2_ipaddr
                0x0000000087852664        0x8 net/built-in.o
                0x0000000087852664                _u_boot_list_2_env_clbk_2_ipaddr
 .u_boot_list_2_env_clbk_2_loadaddr
                0x000000008785266c        0x8 common/built-in.o
                0x000000008785266c                _u_boot_list_2_env_clbk_2_loadaddr
 .u_boot_list_2_env_clbk_2_netmask
                0x0000000087852674        0x8 net/built-in.o
                0x0000000087852674                _u_boot_list_2_env_clbk_2_netmask
 .u_boot_list_2_env_clbk_2_nvlan
                0x000000008785267c        0x8 net/built-in.o
                0x000000008785267c                _u_boot_list_2_env_clbk_2_nvlan
 .u_boot_list_2_env_clbk_2_serverip
                0x0000000087852684        0x8 net/built-in.o
                0x0000000087852684                _u_boot_list_2_env_clbk_2_serverip
 .u_boot_list_2_env_clbk_2_vlan
                0x000000008785268c        0x8 net/built-in.o
                0x000000008785268c                _u_boot_list_2_env_clbk_2_vlan
 .u_boot_list_2_env_clbk_3
                0x0000000087852694        0x0 common/built-in.o
 .u_boot_list_2_i2c_1
                0x0000000087852694        0x0 cmd/built-in.o
 .u_boot_list_2_i2c_1
                0x0000000087852694        0x0 drivers/i2c/built-in.o
 .u_boot_list_2_i2c_2_mxc0
                0x0000000087852694       0x2c drivers/i2c/built-in.o
                0x0000000087852694                _u_boot_list_2_i2c_2_mxc0
 .u_boot_list_2_i2c_2_mxc1
                0x00000000878526c0       0x2c drivers/i2c/built-in.o
                0x00000000878526c0                _u_boot_list_2_i2c_2_mxc1
 .u_boot_list_2_i2c_3
                0x00000000878526ec        0x0 cmd/built-in.o
 .u_boot_list_2_i2c_3
                0x00000000878526ec        0x0 drivers/i2c/built-in.o
 .u_boot_list_2_uclass_1
                0x00000000878526ec        0x0 drivers/built-in.o
 .u_boot_list_2_uclass_2_disk
                0x00000000878526ec       0x48 drivers/built-in.o
                0x00000000878526ec                _u_boot_list_2_uclass_2_disk
 .u_boot_list_2_uclass_2_root
                0x0000000087852734       0x48 drivers/built-in.o
                0x0000000087852734                _u_boot_list_2_uclass_2_root
 .u_boot_list_2_uclass_2_thermal
                0x000000008785277c       0x48 drivers/built-in.o
                0x000000008785277c                _u_boot_list_2_uclass_2_thermal
 .u_boot_list_2_uclass_3
                0x00000000878527c4        0x0 drivers/built-in.o
                0x00000000878527c4                . = ALIGN (0x4)

.image_copy_end
                0x00000000878527c4        0x0
 *(.__image_copy_end)
 .__image_copy_end
                0x00000000878527c4        0x0 arch/arm/lib/built-in.o

.rel_dyn_start  0x00000000878527c4        0x0
 *(.__rel_dyn_start)
 .__rel_dyn_start
                0x00000000878527c4        0x0 arch/arm/lib/built-in.o

.rel.dyn        0x00000000878527c4     0x8ca0
 *(.rel*)
 .rel.got       0x00000000878527c4        0x0 arch/arm/cpu/armv7/start.o
 .rel.plt       0x00000000878527c4        0x0 arch/arm/cpu/armv7/start.o
 .rel.bss       0x00000000878527c4        0x0 arch/arm/cpu/armv7/start.o
 .rel.data.rel.ro
                0x00000000878527c4        0x0 arch/arm/cpu/armv7/start.o
 .rel.iplt      0x00000000878527c4        0x0 arch/arm/cpu/armv7/start.o
 .rel.text      0x00000000878527c4       0x20 arch/arm/cpu/armv7/start.o
 .rel.text.invalidate_dcache_range
                0x00000000878527e4       0x18 arch/arm/cpu/armv7/start.o
 .rel.text.disable_lcdif_clock
                0x00000000878527fc       0x10 arch/arm/cpu/armv7/start.o
 .rel.text.get_ipg_clk
                0x000000008785280c        0x8 arch/arm/cpu/armv7/start.o
 .rel.text.enable_pll_video.constprop.0
                0x0000000087852814       0x18 arch/arm/cpu/armv7/start.o
 .rel.text.get_uart_clk
                0x000000008785282c        0x8 arch/arm/cpu/armv7/start.o
 .rel.text.mxc_get_pll_pfd
                0x0000000087852834        0x8 arch/arm/cpu/armv7/start.o
 .rel.text.get_usdhc_clk
                0x000000008785283c        0x8 arch/arm/cpu/armv7/start.o
 .rel.text.enable_ocotp_clk
                0x0000000087852844        0x8 arch/arm/cpu/armv7/start.o
 .rel.text.enable_usboh3_clk
                0x000000008785284c        0x8 arch/arm/cpu/armv7/start.o
 .rel.text.enable_enet_clk
                0x0000000087852854        0x8 arch/arm/cpu/armv7/start.o
 .rel.text.enable_i2c_clk
                0x000000008785285c        0x8 arch/arm/cpu/armv7/start.o
 .rel.text.get_periph_clk
                0x0000000087852864        0x8 arch/arm/cpu/armv7/start.o
 .rel.text.get_axi_clk
                0x000000008785286c        0x8 arch/arm/cpu/armv7/start.o
 .rel.text.enable_lcdif_clock
                0x0000000087852874       0x10 arch/arm/cpu/armv7/start.o
 .rel.text.mxs_set_lcdclk
                0x0000000087852884       0x18 arch/arm/cpu/armv7/start.o
 .rel.text.enable_qspi_clk
                0x000000008785289c        0x8 arch/arm/cpu/armv7/start.o
 .rel.text.mxc_get_clock
                0x00000000878528a4       0x98 arch/arm/cpu/armv7/start.o
 .rel.text.do_mx6_showclocks
                0x000000008785293c       0x88 arch/arm/cpu/armv7/start.o
 .rel.rodata.soc_boot_modes
                0x00000000878529c4       0x58 arch/arm/cpu/armv7/start.o
 .rel.u_boot_list_2_driver_info_2_imx6_thermal
                0x0000000087852a1c       0x10 arch/arm/cpu/armv7/start.o
 .rel.u_boot_list_2_cmd_2_clocks
                0x0000000087852a2c       0x20 arch/arm/cpu/armv7/start.o
 .rel.text.imx_iomux_v3_setup_pad
                0x0000000087852a4c        0x8 arch/arm/cpu/armv7/start.o
 .rel.text.imx_ddr_size
                0x0000000087852a54       0x10 arch/arm/cpu/armv7/start.o
 .rel.text.get_imx_type
                0x0000000087852a64       0x10 arch/arm/cpu/armv7/start.o
 .rel.text.print_cpuinfo
                0x0000000087852a74       0xb0 arch/arm/cpu/armv7/start.o
 .rel.text.force_idle_bus
                0x0000000087852b24       0x18 arch/arm/cpu/armv7/start.o
 .rel.text.setup_i2c
                0x0000000087852b3c       0x18 arch/arm/cpu/armv7/start.o
 .rel.text.board_video_skip
                0x0000000087852b54       0x40 arch/arm/cpu/armv7/start.o
 .rel.text.create_usage
                0x0000000087852b94       0x10 arch/arm/cpu/armv7/start.o
 .rel.text.do_boot_mode
                0x0000000087852ba4       0x10 arch/arm/cpu/armv7/start.o
 .rel.text.add_board_boot_modes
                0x0000000087852bb4       0x18 arch/arm/cpu/armv7/start.o
 .rel.rodata.CSWTCH.11
                0x0000000087852bcc      0x110 arch/arm/cpu/armv7/start.o
 .rel.u_boot_list_2_cmd_2_bmode
                0x0000000087852cdc       0x18 arch/arm/cpu/armv7/start.o
 .rel.vectors   0x0000000087852cf4       0x38 arch/arm/cpu/armv7/start.o
 .rel.text.relocate_vectors
                0x0000000087852d2c       0x20 arch/arm/cpu/armv7/start.o
 .rel.text.boot_jump_linux
                0x0000000087852d4c       0x28 arch/arm/cpu/armv7/start.o
 .rel.text.boot_prep_linux
                0x0000000087852d74       0x18 arch/arm/cpu/armv7/start.o
 .rel.text.bootz_setup
                0x0000000087852d8c       0x10 arch/arm/cpu/armv7/start.o
 .rel.text.boot_prep_vxworks
                0x0000000087852d9c       0x10 arch/arm/cpu/armv7/start.o
 .rel.text.interrupt_init
                0x0000000087852dac        0x8 arch/arm/cpu/armv7/start.o
 .rel.text.bad_mode
                0x0000000087852db4        0x8 arch/arm/cpu/armv7/start.o
 .rel.text.show_regs
                0x0000000087852dbc       0x60 arch/arm/cpu/armv7/start.o
 .rel.text.do_undefined_instruction
                0x0000000087852e1c        0x8 arch/arm/cpu/armv7/start.o
 .rel.text.do_software_interrupt
                0x0000000087852e24        0x8 arch/arm/cpu/armv7/start.o
 .rel.text.do_prefetch_abort
                0x0000000087852e2c        0x8 arch/arm/cpu/armv7/start.o
 .rel.text.do_data_abort
                0x0000000087852e34        0x8 arch/arm/cpu/armv7/start.o
 .rel.text.do_not_used
                0x0000000087852e3c        0x8 arch/arm/cpu/armv7/start.o
 .rel.text.do_fiq
                0x0000000087852e44        0x8 arch/arm/cpu/armv7/start.o
 .rel.text.do_irq
                0x0000000087852e4c        0x8 arch/arm/cpu/armv7/start.o
 .rel.text.do_reset
                0x0000000087852e54        0x8 arch/arm/cpu/armv7/start.o
 .rel.rodata    0x0000000087852e5c      0x118 arch/arm/cpu/armv7/start.o
 .rel.text.board_late_mmc_env_init
                0x0000000087852f74       0x30 arch/arm/cpu/armv7/start.o
 .rel.text.do_enable_parallel_lcd
                0x0000000087852fa4        0x8 arch/arm/cpu/armv7/start.o
 .rel.text.board_mmc_init
                0x0000000087852fac       0x20 arch/arm/cpu/armv7/start.o
 .rel.text.board_eth_init
                0x0000000087852fcc        0x8 arch/arm/cpu/armv7/start.o
 .rel.text.board_early_init_f
                0x0000000087852fd4        0x8 arch/arm/cpu/armv7/start.o
 .rel.text.select_display_dev
                0x0000000087852fdc       0xd0 arch/arm/cpu/armv7/start.o
 .rel.text.board_init
                0x00000000878530ac       0x38 arch/arm/cpu/armv7/start.o
 .rel.text.board_late_init
                0x00000000878530e4       0x28 arch/arm/cpu/armv7/start.o
 .rel.text.checkboard
                0x000000008785310c        0x8 arch/arm/cpu/armv7/start.o
 .rel.rodata.board_boot_modes
                0x0000000087853114       0x18 arch/arm/cpu/armv7/start.o
 .rel.rodata.displays
                0x000000008785312c       0x50 arch/arm/cpu/armv7/start.o
 .rel.text.do_go
                0x000000008785317c       0x10 arch/arm/cpu/armv7/start.o
 .rel.text.do_bootm
                0x000000008785318c       0x18 arch/arm/cpu/armv7/start.o
 .rel.text.do_bootd
                0x00000000878531a4        0x8 arch/arm/cpu/armv7/start.o
 .rel.text.image_info
                0x00000000878531ac       0x40 arch/arm/cpu/armv7/start.o
 .rel.text.do_iminfo
                0x00000000878531ec        0x8 arch/arm/cpu/armv7/start.o
 .rel.text.bootm_maybe_autostart
                0x00000000878531f4       0x20 arch/arm/cpu/armv7/start.o
 .rel.text.do_bootz
                0x0000000087853214       0x18 arch/arm/cpu/armv7/start.o
 .rel.text.do_help
                0x000000008785322c       0x10 arch/arm/cpu/armv7/start.o
 .rel.text.do_version
                0x000000008785323c       0x20 arch/arm/cpu/armv7/start.o
 .rel.text.source
                0x000000008785325c       0x38 arch/arm/cpu/armv7/start.o
 .rel.text.do_source
                0x0000000087853294        0x8 arch/arm/cpu/armv7/start.o
 .rel.text.print_num
                0x000000008785329c        0x8 arch/arm/cpu/armv7/start.o
 .rel.text.do_bdinfo
                0x00000000878532a4       0xa0 arch/arm/cpu/armv7/start.o
 .rel.text.do_bmp
                0x0000000087853344        0x8 arch/arm/cpu/armv7/start.o
 .rel.text.do_bmp_info
                0x000000008785334c       0x28 arch/arm/cpu/armv7/start.o
 .rel.text.bmp_display
                0x0000000087853374        0x8 arch/arm/cpu/armv7/start.o
 .rel.text.do_bmp_display
                0x000000008785337c        0x8 arch/arm/cpu/armv7/start.o
 .rel.text.parse_argv
                0x0000000087853384       0x18 arch/arm/cpu/armv7/start.o
 .rel.text.do_icache
                0x000000008785339c       0x18 arch/arm/cpu/armv7/start.o
 .rel.text.do_dcache
                0x00000000878533b4       0x18 arch/arm/cpu/armv7/start.o
 .rel.text.do_coninfo
                0x00000000878533cc       0x28 arch/arm/cpu/armv7/start.o
 .rel.text.do_echo
                0x00000000878533f4        0x8 arch/arm/cpu/armv7/start.o
 .rel.text.valid_elf_image
                0x00000000878533fc       0x10 arch/arm/cpu/armv7/start.o
 .rel.text.do_bootelf
                0x000000008785340c       0x28 arch/arm/cpu/armv7/start.o
 .rel.text.do_bootvx
                0x0000000087853434       0xe0 arch/arm/cpu/armv7/start.o
 .rel.text.do_fat_fswrite
                0x0000000087853514       0x18 arch/arm/cpu/armv7/start.o
 .rel.text.do_fat_fsinfo
                0x000000008785352c       0x10 arch/arm/cpu/armv7/start.o
 .rel.text.fdt_valid
                0x000000008785353c       0x28 arch/arm/cpu/armv7/start.o
 .rel.text.is_printable_string
                0x0000000087853564        0x8 arch/arm/cpu/armv7/start.o
 .rel.text.print_data
                0x000000008785356c       0x58 arch/arm/cpu/armv7/start.o
 .rel.text.set_working_fdt_addr
                0x00000000878535c4       0x10 arch/arm/cpu/armv7/start.o
 .rel.text.do_fdt
                0x00000000878535d4      0x248 arch/arm/cpu/armv7/start.o
 .rel.text.do_fuse
                0x000000008785381c       0x70 arch/arm/cpu/armv7/start.o
 .rel.text.do_gpio
                0x000000008785388c       0x20 arch/arm/cpu/armv7/start.o
 .rel.text.do_i2c
                0x00000000878538ac        0x8 arch/arm/cpu/armv7/start.o
 .rel.text.do_i2c_bus_speed
                0x00000000878538b4       0x18 arch/arm/cpu/armv7/start.o
 .rel.text.do_i2c_probe
                0x00000000878538cc       0x10 arch/arm/cpu/armv7/start.o
 .rel.text.do_i2c_bus_num
                0x00000000878538dc       0x30 arch/arm/cpu/armv7/start.o
 .rel.text.do_i2c_show_bus
                0x000000008785390c       0x28 arch/arm/cpu/armv7/start.o
 .rel.text.do_i2c_crc
                0x0000000087853934       0x20 arch/arm/cpu/armv7/start.o
 .rel.text.mod_i2c_mem.isra.3
                0x0000000087853954       0x60 arch/arm/cpu/armv7/start.o
 .rel.text.do_i2c_md
                0x00000000878539b4       0x58 arch/arm/cpu/armv7/start.o
 .rel.text.do_i2c_read
                0x0000000087853a0c       0x10 arch/arm/cpu/armv7/start.o
 .rel.text.do_i2c_mw
                0x0000000087853a1c       0x10 arch/arm/cpu/armv7/start.o
 .rel.text.do_i2c_write
                0x0000000087853a2c       0x18 arch/arm/cpu/armv7/start.o
 .rel.text.do_i2c_loop
                0x0000000087853a44       0x10 arch/arm/cpu/armv7/start.o
 .rel.text.binary_test
                0x0000000087853a54       0x70 arch/arm/cpu/armv7/start.o
 .rel.text.do_itest
                0x0000000087853ac4       0x40 arch/arm/cpu/armv7/start.o
 .rel.text.bin_data_init
                0x0000000087853b04       0x18 arch/arm/cpu/armv7/start.o
 .rel.text.k_data_save
                0x0000000087853b1c       0x30 arch/arm/cpu/armv7/start.o
 .rel.text.k_data_restore
                0x0000000087853b4c       0x30 arch/arm/cpu/armv7/start.o
 .rel.text.load_serial_ymodem
                0x0000000087853b7c       0x20 arch/arm/cpu/armv7/start.o
 .rel.text.bin_data_char
                0x0000000087853b9c       0x10 arch/arm/cpu/armv7/start.o
 .rel.text.chk1.constprop.2
                0x0000000087853bac        0x8 arch/arm/cpu/armv7/start.o
 .rel.text.s1_sendpacket.constprop.3
                0x0000000087853bb4       0x18 arch/arm/cpu/armv7/start.o
 .rel.text.load_serial
                0x0000000087853bcc       0x68 arch/arm/cpu/armv7/start.o
 .rel.text.do_load_serial
                0x0000000087853c34       0x30 arch/arm/cpu/armv7/start.o
 .rel.text.do_load_serial_bin
                0x0000000087853c64       0xe8 arch/arm/cpu/armv7/start.o
 .rel.text.do_mem_mw
                0x0000000087853d4c        0x8 arch/arm/cpu/armv7/start.o
 .rel.text.do_mem_md
                0x0000000087853d54       0x20 arch/arm/cpu/armv7/start.o
 .rel.text.do_mem_cmp
                0x0000000087853d74       0x38 arch/arm/cpu/armv7/start.o
 .rel.text.do_mem_base
                0x0000000087853dac       0x10 arch/arm/cpu/armv7/start.o
 .rel.text.do_mem_cp
                0x0000000087853dbc       0x10 arch/arm/cpu/armv7/start.o
 .rel.text.do_mem_crc
                0x0000000087853dcc        0x8 arch/arm/cpu/armv7/start.o
 .rel.text.do_mem_mtest
                0x0000000087853dd4       0x40 arch/arm/cpu/armv7/start.o
 .rel.text.mod_mem.isra.0
                0x0000000087853e14       0x48 arch/arm/cpu/armv7/start.o
 .rel.text.do_mii
                0x0000000087853e5c      0x160 arch/arm/cpu/armv7/start.o
 .rel.text.do_mdio
                0x0000000087853fbc       0x70 arch/arm/cpu/armv7/start.o
 .rel.text.do_mmcops
                0x000000008785402c       0x18 arch/arm/cpu/armv7/start.o
 .rel.text.init_mmc_device
                0x0000000087854044        0x8 arch/arm/cpu/armv7/start.o
 .rel.text.do_mmc_rescan
                0x000000008785404c        0x8 arch/arm/cpu/armv7/start.o
 .rel.text.do_mmc_rst_func
                0x0000000087854054       0x10 arch/arm/cpu/armv7/start.o
 .rel.text.do_mmc_partconf
                0x0000000087854064        0x8 arch/arm/cpu/armv7/start.o
 .rel.text.do_mmc_boot_resize
                0x000000008785406c       0x20 arch/arm/cpu/armv7/start.o
 .rel.text.do_mmc_bootbus
                0x000000008785408c        0x8 arch/arm/cpu/armv7/start.o
 .rel.text.do_mmc_hwpartition
                0x0000000087854094       0xb0 arch/arm/cpu/armv7/start.o
 .rel.text.do_mmc_dev
                0x0000000087854144       0x38 arch/arm/cpu/armv7/start.o
 .rel.text.do_mmc_erase
                0x000000008785417c       0x30 arch/arm/cpu/armv7/start.o
 .rel.text.do_mmc_write
                0x00000000878541ac       0x30 arch/arm/cpu/armv7/start.o
 .rel.text.do_mmc_read
                0x00000000878541dc       0x28 arch/arm/cpu/armv7/start.o
 .rel.text.do_mmcinfo
                0x0000000087854204       0xf8 arch/arm/cpu/armv7/start.o
 .rel.text.do_mmc_setdsr
                0x00000000878542fc       0x28 arch/arm/cpu/armv7/start.o
 .rel.text.do_mmc_part
                0x0000000087854324       0x10 arch/arm/cpu/armv7/start.o
 .rel.text.netboot_common
                0x0000000087854334       0x98 arch/arm/cpu/armv7/start.o
 .rel.text.do_ping
                0x00000000878543cc       0x18 arch/arm/cpu/armv7/start.o
 .rel.text.do_spi_flash
                0x00000000878543e4       0xe0 arch/arm/cpu/armv7/start.o
 .rel.text.substitute
                0x00000000878544c4        0x8 arch/arm/cpu/armv7/start.o
 .rel.text.regex_sub.part.1
                0x00000000878544cc       0x38 arch/arm/cpu/armv7/start.o
 .rel.text.do_setexpr
                0x0000000087854504       0x18 arch/arm/cpu/armv7/start.o
 .rel.text.do_test
                0x000000008785451c       0x70 arch/arm/cpu/armv7/start.o
 .rel.text.usb_get_class_desc
                0x000000008785458c       0x50 arch/arm/cpu/armv7/start.o
 .rel.text.usb_show_tree_graph
                0x00000000878545dc       0x48 arch/arm/cpu/armv7/start.o
 .rel.text.usb_display_class_sub
                0x0000000087854624       0xc8 arch/arm/cpu/armv7/start.o
 .rel.text.usb_display_string
                0x00000000878546ec        0x8 arch/arm/cpu/armv7/start.o
 .rel.text.usb_display_config
                0x00000000878546f4       0xa8 arch/arm/cpu/armv7/start.o
 .rel.text.do_usbboot
                0x000000008785479c        0x8 arch/arm/cpu/armv7/start.o
 .rel.text.usb_display_desc.part.1
                0x00000000878547a4       0x38 arch/arm/cpu/armv7/start.o
 .rel.text.do_usb_start
                0x00000000878547dc        0x8 arch/arm/cpu/armv7/start.o
 .rel.text.do_usb
                0x00000000878547e4      0x170 arch/arm/cpu/armv7/start.o
 .rel.text.do_imgextract
                0x0000000087854954       0x90 arch/arm/cpu/armv7/start.o
 .rel.text.do_env_delete
                0x00000000878549e4       0x10 arch/arm/cpu/armv7/start.o
 .rel.text.do_env_exists
                0x00000000878549f4        0x8 arch/arm/cpu/armv7/start.o
 .rel.text.do_env_save
                0x00000000878549fc       0x10 arch/arm/cpu/armv7/start.o
 .rel.text.do_env
                0x0000000087854a0c        0x8 arch/arm/cpu/armv7/start.o
 .rel.text.env_print
                0x0000000087854a14       0x18 arch/arm/cpu/armv7/start.o
 .rel.text.do_env_print
                0x0000000087854a2c       0x10 arch/arm/cpu/armv7/start.o
 .rel.text.do_env_import
                0x0000000087854a3c       0x58 arch/arm/cpu/armv7/start.o
 .rel.text.do_env_default
                0x0000000087854a94        0x8 arch/arm/cpu/armv7/start.o
 .rel.text._do_env_set.isra.0
                0x0000000087854a9c       0x30 arch/arm/cpu/armv7/start.o
 .rel.text.get_env_id
                0x0000000087854acc        0x8 arch/arm/cpu/armv7/start.o
 .rel.text.setenv
                0x0000000087854ad4        0x8 arch/arm/cpu/armv7/start.o
 .rel.text.setenv_hex
                0x0000000087854adc        0x8 arch/arm/cpu/armv7/start.o
 .rel.text.do_env_export
                0x0000000087854ae4       0x40 arch/arm/cpu/armv7/start.o
 .rel.text.getenv_f
                0x0000000087854b24        0x8 arch/arm/cpu/armv7/start.o
 .rel.text.getenv
                0x0000000087854b2c        0x8 arch/arm/cpu/armv7/start.o
 .rel.text.do_env_edit.part.3
                0x0000000087854b34       0x18 arch/arm/cpu/armv7/start.o
 .rel.text.common_diskboot
                0x0000000087854b4c       0x28 arch/arm/cpu/armv7/start.o
 .rel.rodata.op_table
                0x0000000087854b74       0x68 arch/arm/cpu/armv7/start.o
 .rel.rodata.desc_and_len_tbl
                0x0000000087854bdc       0x30 arch/arm/cpu/armv7/start.o
 .rel.rodata.reg_0_5_desc_tbl
                0x0000000087854c0c       0x30 arch/arm/cpu/armv7/start.o
 .rel.rodata.reg_0_desc_tbl
                0x0000000087854c3c       0x50 arch/arm/cpu/armv7/start.o
 .rel.rodata.reg_1_desc_tbl
                0x0000000087854c8c       0x80 arch/arm/cpu/armv7/start.o
 .rel.rodata.reg_2_desc_tbl
                0x0000000087854d0c        0x8 arch/arm/cpu/armv7/start.o
 .rel.rodata.reg_3_desc_tbl
                0x0000000087854d14       0x18 arch/arm/cpu/armv7/start.o
 .rel.rodata.reg_4_desc_tbl
                0x0000000087854d2c       0x60 arch/arm/cpu/armv7/start.o
 .rel.rodata.reg_5_desc_tbl
                0x0000000087854d8c       0x60 arch/arm/cpu/armv7/start.o
 .rel.rodata.op_adv
                0x0000000087854dec       0x80 arch/arm/cpu/armv7/start.o
 .rel.rodata.CSWTCH.35
                0x0000000087854e6c       0x28 arch/arm/cpu/armv7/start.o
 .rel.u_boot_list_2_cmd_2_go
                0x0000000087854e94       0x20 arch/arm/cpu/armv7/start.o
 .rel.u_boot_list_2_cmd_2_reset
                0x0000000087854eb4       0x20 arch/arm/cpu/armv7/start.o
 .rel.data.cmd_bootm_sub
                0x0000000087854ed4       0xd8 arch/arm/cpu/armv7/start.o
 .rel.u_boot_list_2_cmd_2_boot
                0x0000000087854fac       0x20 arch/arm/cpu/armv7/start.o
 .rel.u_boot_list_2_cmd_2_bootd
                0x0000000087854fcc       0x20 arch/arm/cpu/armv7/start.o
 .rel.u_boot_list_2_cmd_2_bootm
                0x0000000087854fec       0x20 arch/arm/cpu/armv7/start.o
 .rel.u_boot_list_2_cmd_2_bootz
                0x000000008785500c       0x20 arch/arm/cpu/armv7/start.o
 .rel.u_boot_list_2_cmd_2_iminfo
                0x000000008785502c       0x20 arch/arm/cpu/armv7/start.o
 .rel.u_boot_list_2_cmd_2_help
                0x000000008785504c       0x20 arch/arm/cpu/armv7/start.o
 .rel.u_boot_list_2_cmd_2_question_mark
                0x000000008785506c       0x20 arch/arm/cpu/armv7/start.o
 .rel.u_boot_list_2_cmd_2_version
                0x000000008785508c       0x20 arch/arm/cpu/armv7/start.o
 .rel.u_boot_list_2_cmd_2_source
                0x00000000878550ac       0x20 arch/arm/cpu/armv7/start.o
 .rel.u_boot_list_2_cmd_2_bdinfo
                0x00000000878550cc       0x20 arch/arm/cpu/armv7/start.o
 .rel.data.cmd_bmp_sub
                0x00000000878550ec       0x40 arch/arm/cpu/armv7/start.o
 .rel.u_boot_list_2_cmd_2_bmp
                0x000000008785512c       0x20 arch/arm/cpu/armv7/start.o
 .rel.u_boot_list_2_cmd_2_dcache
                0x000000008785514c       0x20 arch/arm/cpu/armv7/start.o
 .rel.u_boot_list_2_cmd_2_icache
                0x000000008785516c       0x20 arch/arm/cpu/armv7/start.o
 .rel.u_boot_list_2_cmd_2_coninfo
                0x000000008785518c       0x20 arch/arm/cpu/armv7/start.o
 .rel.u_boot_list_2_cmd_2_echo
                0x00000000878551ac       0x20 arch/arm/cpu/armv7/start.o
 .rel.u_boot_list_2_cmd_2_bootelf
                0x00000000878551cc       0x20 arch/arm/cpu/armv7/start.o
 .rel.u_boot_list_2_cmd_2_bootvx
                0x00000000878551ec       0x20 arch/arm/cpu/armv7/start.o
 .rel.u_boot_list_2_cmd_2_exit
                0x000000008785520c       0x20 arch/arm/cpu/armv7/start.o
 .rel.u_boot_list_2_cmd_2_ext4load
                0x000000008785522c       0x20 arch/arm/cpu/armv7/start.o
 .rel.u_boot_list_2_cmd_2_ext4ls
                0x000000008785524c       0x20 arch/arm/cpu/armv7/start.o
 .rel.u_boot_list_2_cmd_2_ext4size
                0x000000008785526c       0x20 arch/arm/cpu/armv7/start.o
 .rel.u_boot_list_2_cmd_2_ext4write
                0x000000008785528c       0x20 arch/arm/cpu/armv7/start.o
 .rel.u_boot_list_2_cmd_2_ext2load
                0x00000000878552ac       0x20 arch/arm/cpu/armv7/start.o
 .rel.u_boot_list_2_cmd_2_ext2ls
                0x00000000878552cc       0x20 arch/arm/cpu/armv7/start.o
 .rel.u_boot_list_2_cmd_2_fatinfo
                0x00000000878552ec       0x20 arch/arm/cpu/armv7/start.o
 .rel.u_boot_list_2_cmd_2_fatload
                0x000000008785530c       0x20 arch/arm/cpu/armv7/start.o
 .rel.u_boot_list_2_cmd_2_fatls
                0x000000008785532c       0x20 arch/arm/cpu/armv7/start.o
 .rel.u_boot_list_2_cmd_2_fatsize
                0x000000008785534c       0x20 arch/arm/cpu/armv7/start.o
 .rel.u_boot_list_2_cmd_2_fatwrite
                0x000000008785536c       0x20 arch/arm/cpu/armv7/start.o
 .rel.u_boot_list_2_cmd_2_fdt
                0x000000008785538c       0x20 arch/arm/cpu/armv7/start.o
 .rel.u_boot_list_2_cmd_2_erase
                0x00000000878553ac       0x20 arch/arm/cpu/armv7/start.o
 .rel.u_boot_list_2_cmd_2_flinfo
                0x00000000878553cc       0x20 arch/arm/cpu/armv7/start.o
 .rel.u_boot_list_2_cmd_2_protect
                0x00000000878553ec       0x20 arch/arm/cpu/armv7/start.o
 .rel.u_boot_list_2_cmd_2_fstype
                0x000000008785540c       0x20 arch/arm/cpu/armv7/start.o
 .rel.u_boot_list_2_cmd_2_load
                0x000000008785542c       0x20 arch/arm/cpu/armv7/start.o
 .rel.u_boot_list_2_cmd_2_ls
                0x000000008785544c       0x20 arch/arm/cpu/armv7/start.o
 .rel.u_boot_list_2_cmd_2_save
                0x000000008785546c       0x20 arch/arm/cpu/armv7/start.o
 .rel.u_boot_list_2_cmd_2_size
                0x000000008785548c       0x20 arch/arm/cpu/armv7/start.o
 .rel.u_boot_list_2_cmd_2_fuse
                0x00000000878554ac       0x20 arch/arm/cpu/armv7/start.o
 .rel.u_boot_list_2_cmd_2_gpio
                0x00000000878554cc       0x20 arch/arm/cpu/armv7/start.o
 .rel.data.cmd_i2c_sub
                0x00000000878554ec      0x1a0 arch/arm/cpu/armv7/start.o
 .rel.u_boot_list_2_cmd_2_i2c
                0x000000008785568c       0x20 arch/arm/cpu/armv7/start.o
 .rel.u_boot_list_2_cmd_2_itest
                0x00000000878556ac       0x20 arch/arm/cpu/armv7/start.o
 .rel.u_boot_list_2_cmd_2_loadb
                0x00000000878556cc       0x20 arch/arm/cpu/armv7/start.o
 .rel.u_boot_list_2_cmd_2_loads
                0x00000000878556ec       0x20 arch/arm/cpu/armv7/start.o
 .rel.u_boot_list_2_cmd_2_loadx
                0x000000008785570c       0x20 arch/arm/cpu/armv7/start.o
 .rel.u_boot_list_2_cmd_2_loady
                0x000000008785572c       0x20 arch/arm/cpu/armv7/start.o
 .rel.u_boot_list_2_cmd_2_base
                0x000000008785574c       0x20 arch/arm/cpu/armv7/start.o
 .rel.u_boot_list_2_cmd_2_cmp
                0x000000008785576c       0x20 arch/arm/cpu/armv7/start.o
 .rel.u_boot_list_2_cmd_2_cp
                0x000000008785578c       0x20 arch/arm/cpu/armv7/start.o
 .rel.u_boot_list_2_cmd_2_crc32
                0x00000000878557ac       0x20 arch/arm/cpu/armv7/start.o
 .rel.u_boot_list_2_cmd_2_loop
                0x00000000878557cc       0x20 arch/arm/cpu/armv7/start.o
 .rel.u_boot_list_2_cmd_2_md
                0x00000000878557ec       0x20 arch/arm/cpu/armv7/start.o
 .rel.u_boot_list_2_cmd_2_mm
                0x000000008785580c       0x20 arch/arm/cpu/armv7/start.o
 .rel.u_boot_list_2_cmd_2_mtest
                0x000000008785582c       0x20 arch/arm/cpu/armv7/start.o
 .rel.u_boot_list_2_cmd_2_mw
                0x000000008785584c       0x20 arch/arm/cpu/armv7/start.o
 .rel.u_boot_list_2_cmd_2_nm
                0x000000008785586c       0x20 arch/arm/cpu/armv7/start.o
 .rel.u_boot_list_2_cmd_2_mii
                0x000000008785588c       0x20 arch/arm/cpu/armv7/start.o
 .rel.u_boot_list_2_cmd_2_mdio
                0x00000000878558ac       0x20 arch/arm/cpu/armv7/start.o
 .rel.u_boot_list_2_cmd_2_sleep
                0x00000000878558cc       0x20 arch/arm/cpu/armv7/start.o
 .rel.data.cmd_mmc
                0x00000000878558ec      0x1c0 arch/arm/cpu/armv7/start.o
 .rel.u_boot_list_2_cmd_2_mmc
                0x0000000087855aac       0x20 arch/arm/cpu/armv7/start.o
 .rel.u_boot_list_2_cmd_2_mmcinfo
                0x0000000087855acc       0x20 arch/arm/cpu/armv7/start.o
 .rel.u_boot_list_2_cmd_2_bootp
                0x0000000087855aec       0x20 arch/arm/cpu/armv7/start.o
 .rel.u_boot_list_2_cmd_2_dhcp
                0x0000000087855b0c       0x20 arch/arm/cpu/armv7/start.o
 .rel.u_boot_list_2_cmd_2_nfs
                0x0000000087855b2c       0x20 arch/arm/cpu/armv7/start.o
 .rel.u_boot_list_2_cmd_2_ping
                0x0000000087855b4c       0x20 arch/arm/cpu/armv7/start.o
 .rel.u_boot_list_2_cmd_2_tftpboot
                0x0000000087855b6c       0x20 arch/arm/cpu/armv7/start.o
 .rel.u_boot_list_2_cmd_2_sf
                0x0000000087855b8c       0x20 arch/arm/cpu/armv7/start.o
 .rel.u_boot_list_2_cmd_2_setexpr
                0x0000000087855bac       0x20 arch/arm/cpu/armv7/start.o
 .rel.u_boot_list_2_cmd_2_false
                0x0000000087855bcc       0x18 arch/arm/cpu/armv7/start.o
 .rel.u_boot_list_2_cmd_2_test
                0x0000000087855be4       0x20 arch/arm/cpu/armv7/start.o
 .rel.u_boot_list_2_cmd_2_true
                0x0000000087855c04       0x18 arch/arm/cpu/armv7/start.o
 .rel.u_boot_list_2_cmd_2_usb
                0x0000000087855c1c       0x20 arch/arm/cpu/armv7/start.o
 .rel.u_boot_list_2_cmd_2_usbboot
                0x0000000087855c3c       0x20 arch/arm/cpu/armv7/start.o
 .rel.u_boot_list_2_cmd_2_imxtract
                0x0000000087855c5c       0x20 arch/arm/cpu/armv7/start.o
 .rel.data.cmd_env_sub
                0x0000000087855c7c      0x140 arch/arm/cpu/armv7/start.o
 .rel.u_boot_list_2_cmd_2_editenv
                0x0000000087855dbc       0x28 arch/arm/cpu/armv7/start.o
 .rel.u_boot_list_2_cmd_2_env
                0x0000000087855de4       0x20 arch/arm/cpu/armv7/start.o
 .rel.u_boot_list_2_cmd_2_printenv
                0x0000000087855e04       0x28 arch/arm/cpu/armv7/start.o
 .rel.u_boot_list_2_cmd_2_run
                0x0000000087855e2c       0x28 arch/arm/cpu/armv7/start.o
 .rel.u_boot_list_2_cmd_2_saveenv
                0x0000000087855e54       0x20 arch/arm/cpu/armv7/start.o
 .rel.u_boot_list_2_cmd_2_setenv
                0x0000000087855e74       0x28 arch/arm/cpu/armv7/start.o
 .rel.text.jumptable_init
                0x0000000087855e9c       0xc8 arch/arm/cpu/armv7/start.o
 .rel.text.hash_command
                0x0000000087855f64        0x8 arch/arm/cpu/armv7/start.o
 .rel.text.mapset
                0x0000000087855f6c        0x8 arch/arm/cpu/armv7/start.o
 .rel.text.syntax_err
                0x0000000087855f74        0x8 arch/arm/cpu/armv7/start.o
 .rel.text.xmalloc
                0x0000000087855f7c        0x8 arch/arm/cpu/armv7/start.o
 .rel.text.xrealloc
                0x0000000087855f84        0x8 arch/arm/cpu/armv7/start.o
 .rel.text.done_word
                0x0000000087855f8c        0x8 arch/arm/cpu/armv7/start.o
 .rel.text.is_assignment
                0x0000000087855f94        0x8 arch/arm/cpu/armv7/start.o
 .rel.text.file_get
                0x0000000087855f9c       0x30 arch/arm/cpu/armv7/start.o
 .rel.text.do_showvar
                0x0000000087855fcc       0x20 arch/arm/cpu/armv7/start.o
 .rel.text.b_addqchr
                0x0000000087855fec        0x8 arch/arm/cpu/armv7/start.o
 .rel.text.get_local_var
                0x0000000087855ff4       0x20 arch/arm/cpu/armv7/start.o
 .rel.text.set_local_var
                0x0000000087856014       0x20 arch/arm/cpu/armv7/start.o
 .rel.text.insert_var_value_sub
                0x0000000087856034        0x8 arch/arm/cpu/armv7/start.o
 .rel.text.parse_string_outer
                0x000000008785603c       0x18 arch/arm/cpu/armv7/start.o
 .rel.text.run_list_real
                0x0000000087856054       0x40 arch/arm/cpu/armv7/start.o
 .rel.text.parse_stream_outer
                0x0000000087856094       0x68 arch/arm/cpu/armv7/start.o
 .rel.text.parse_file_outer
                0x00000000878560fc       0x10 arch/arm/cpu/armv7/start.o
 .rel.text.u_boot_hush_start
                0x000000008785610c       0x18 arch/arm/cpu/armv7/start.o
 .rel.text.bootdelay_process
                0x0000000087856124       0x40 arch/arm/cpu/armv7/start.o
 .rel.text.autoboot_command
                0x0000000087856164       0x18 arch/arm/cpu/armv7/start.o
 .rel.text.setup_mon_len
                0x000000008785617c       0x10 arch/arm/cpu/armv7/start.o
 .rel.text.announce_dram_init
                0x000000008785618c        0x8 arch/arm/cpu/armv7/start.o
 .rel.text.init_func_i2c
                0x0000000087856194       0x10 arch/arm/cpu/armv7/start.o
 .rel.text.init_baud_rate
                0x00000000878561a4        0x8 arch/arm/cpu/armv7/start.o
 .rel.text.show_dram_config
                0x00000000878561ac        0x8 arch/arm/cpu/armv7/start.o
 .rel.text.board_init_f
                0x00000000878561b4        0x8 arch/arm/cpu/armv7/start.o
 .rel.text.initr_reloc_global_data
                0x00000000878561bc       0x18 arch/arm/cpu/armv7/start.o
 .rel.text.initr_net
                0x00000000878561d4        0x8 arch/arm/cpu/armv7/start.o
 .rel.text.initr_ethaddr
                0x00000000878561dc        0x8 arch/arm/cpu/armv7/start.o
 .rel.text.initr_env
                0x00000000878561e4       0x10 arch/arm/cpu/armv7/start.o
 .rel.text.initr_mmc
                0x00000000878561f4        0x8 arch/arm/cpu/armv7/start.o
 .rel.text.board_init_r
                0x00000000878561fc        0x8 arch/arm/cpu/armv7/start.o
 .rel.text.bootm_find_images
                0x0000000087856204       0x18 arch/arm/cpu/armv7/start.o
 .rel.text.bootm_decomp_image
                0x000000008785621c       0x48 arch/arm/cpu/armv7/start.o
 .rel.text.do_bootm_states
                0x0000000087856264       0xc0 arch/arm/cpu/armv7/start.o
 .rel.text.do_bootm_rtems
                0x0000000087856324        0x8 arch/arm/cpu/armv7/start.o
 .rel.text.do_bootm_plan9
                0x000000008785632c       0x18 arch/arm/cpu/armv7/start.o
 .rel.text.do_bootm_standalone
                0x0000000087856344       0x18 arch/arm/cpu/armv7/start.o
 .rel.text.do_bootm_qnxelf
                0x000000008785635c        0x8 arch/arm/cpu/armv7/start.o
 .rel.text.do_bootm_netbsd
                0x0000000087856364       0x18 arch/arm/cpu/armv7/start.o
 .rel.text.do_bootvx_fdt
                0x000000008785637c       0x38 arch/arm/cpu/armv7/start.o
 .rel.text.bootm_os_get_boot_func
                0x00000000878563b4        0x8 arch/arm/cpu/armv7/start.o
 .rel.text.regex_callback
                0x00000000878563bc       0x10 arch/arm/cpu/armv7/start.o
 .rel.text.env_attr_lookup
                0x00000000878563cc        0x8 arch/arm/cpu/armv7/start.o
 .rel.text.find_env_callback
                0x00000000878563d4       0x10 arch/arm/cpu/armv7/start.o
 .rel.text.on_callbacks
                0x00000000878563e4       0x20 arch/arm/cpu/armv7/start.o
 .rel.text.set_callback
                0x0000000087856404        0x8 arch/arm/cpu/armv7/start.o
 .rel.text.env_callback_init
                0x000000008785640c       0x20 arch/arm/cpu/armv7/start.o
 .rel.text.skip_num
                0x000000008785642c        0x8 arch/arm/cpu/armv7/start.o
 .rel.text.on_flags
                0x0000000087856434       0x20 arch/arm/cpu/armv7/start.o
 .rel.text.env_flags_parse_vartype
                0x0000000087856454       0x10 arch/arm/cpu/armv7/start.o
 .rel.text.env_flags_parse_varaccess
                0x0000000087856464       0x10 arch/arm/cpu/armv7/start.o
 .rel.text.set_flags
                0x0000000087856474       0x10 arch/arm/cpu/armv7/start.o
 .rel.text.env_flags_init
                0x0000000087856484       0x30 arch/arm/cpu/armv7/start.o
 .rel.text.env_flags_validate
                0x00000000878564b4       0x68 arch/arm/cpu/armv7/start.o
 .rel.text.fini_mmc_for_env.isra.0
                0x000000008785651c        0x8 arch/arm/cpu/armv7/start.o
 .rel.text.env_init
                0x0000000087856524        0x8 arch/arm/cpu/armv7/start.o
 .rel.text.init_mmc_for_env
                0x000000008785652c       0x28 arch/arm/cpu/armv7/start.o
 .rel.text.saveenv
                0x0000000087856554       0x28 arch/arm/cpu/armv7/start.o
 .rel.text.env_relocate_spec
                0x000000008785657c        0x8 arch/arm/cpu/armv7/start.o
 .rel.text.fdt_find_or_add_subnode
                0x0000000087856584       0x10 arch/arm/cpu/armv7/start.o
 .rel.text.fdt_root
                0x0000000087856594       0x20 arch/arm/cpu/armv7/start.o
 .rel.text.fdt_initrd
                0x00000000878565b4       0x30 arch/arm/cpu/armv7/start.o
 .rel.text.fdt_chosen
                0x00000000878565e4       0x20 arch/arm/cpu/armv7/start.o
 .rel.text.do_fixup_by_path
                0x0000000087856604        0x8 arch/arm/cpu/armv7/start.o
 .rel.text.fdt_fixup_memory_banks
                0x000000008785660c       0x38 arch/arm/cpu/armv7/start.o
 .rel.text.fdt_fixup_ethernet
                0x0000000087856644       0x30 arch/arm/cpu/armv7/start.o
 .rel.text.miiphy_get_dev_by_name
                0x0000000087856674       0x10 arch/arm/cpu/armv7/start.o
 .rel.text.miiphy_init
                0x0000000087856684       0x10 arch/arm/cpu/armv7/start.o
 .rel.text.mdio_register
                0x0000000087856694       0x18 arch/arm/cpu/armv7/start.o
 .rel.text.mdio_unregister
                0x00000000878566ac        0x8 arch/arm/cpu/armv7/start.o
 .rel.text.mdio_list_devices
                0x00000000878566b4       0x28 arch/arm/cpu/armv7/start.o
 .rel.text.miiphy_set_current_dev
                0x00000000878566dc       0x10 arch/arm/cpu/armv7/start.o
 .rel.text.miiphy_get_active_dev
                0x00000000878566ec        0x8 arch/arm/cpu/armv7/start.o
 .rel.text.mdio_get_current_dev
                0x00000000878566f4        0x8 arch/arm/cpu/armv7/start.o
 .rel.text.mdio_phydev_for_ethname
                0x00000000878566fc       0x10 arch/arm/cpu/armv7/start.o
 .rel.text.miiphy_get_current_dev
                0x000000008785670c        0x8 arch/arm/cpu/armv7/start.o
 .rel.text.miiphy_listdev
                0x0000000087856714       0x30 arch/arm/cpu/armv7/start.o
 .rel.text.miiphy_speed
                0x0000000087856744       0x18 arch/arm/cpu/armv7/start.o
 .rel.text.miiphy_duplex
                0x000000008785675c       0x18 arch/arm/cpu/armv7/start.o
 .rel.text.usb_stop
                0x0000000087856774       0x18 arch/arm/cpu/armv7/start.o
 .rel.text.usb_disable_asynch
                0x000000008785678c        0x8 arch/arm/cpu/armv7/start.o
 .rel.text.usb_control_msg
                0x0000000087856794        0x8 arch/arm/cpu/armv7/start.o
 .rel.text.get_descriptor_len
                0x000000008785679c       0x10 arch/arm/cpu/armv7/start.o
 .rel.text.usb_string_sub
                0x00000000878567ac        0x8 arch/arm/cpu/armv7/start.o
 .rel.text.usb_get_configuration_len
                0x00000000878567b4       0x10 arch/arm/cpu/armv7/start.o
 .rel.text.usb_set_interface
                0x00000000878567c4        0x8 arch/arm/cpu/armv7/start.o
 .rel.text.usb_get_dev_index
                0x00000000878567cc        0x8 arch/arm/cpu/armv7/start.o
 .rel.text.usb_alloc_new_device
                0x00000000878567d4       0x18 arch/arm/cpu/armv7/start.o
 .rel.text.usb_free_device
                0x00000000878567ec       0x10 arch/arm/cpu/armv7/start.o
 .rel.text.usb_select_config
                0x00000000878567fc       0x70 arch/arm/cpu/armv7/start.o
 .rel.text.usb_setup_device
                0x000000008785686c       0x20 arch/arm/cpu/armv7/start.o
 .rel.text.usb_init
                0x000000008785688c       0x58 arch/arm/cpu/armv7/start.o
 .rel.text.usb_find_usb2_hub_address_port
                0x00000000878568e4        0x8 arch/arm/cpu/armv7/start.o
 .rel.text.usb_hub_power_on
                0x00000000878568ec        0x8 arch/arm/cpu/armv7/start.o
 .rel.text.usb_hub_reset
                0x00000000878568f4        0x8 arch/arm/cpu/armv7/start.o
 .rel.text.usb_hub_port_connect_change
                0x00000000878568fc       0x10 arch/arm/cpu/armv7/start.o
 .rel.text.usb_hub_configure
                0x000000008785690c       0x18 arch/arm/cpu/armv7/start.o
 .rel.text.usb_stor_BBB_transport
                0x0000000087856924       0x10 arch/arm/cpu/armv7/start.o
 .rel.text.usb_stor_CB_comdat
                0x0000000087856934        0x8 arch/arm/cpu/armv7/start.o
 .rel.text.usb_stor_CBI_get_status.isra.2
                0x000000008785693c        0x8 arch/arm/cpu/armv7/start.o
 .rel.text.usb_stor_CB_transport
                0x0000000087856944       0x10 arch/arm/cpu/armv7/start.o
 .rel.text.usb_request_sense.constprop.8
                0x0000000087856954        0x8 arch/arm/cpu/armv7/start.o
 .rel.text.usb_stor_read
                0x000000008785695c       0x10 arch/arm/cpu/armv7/start.o
 .rel.text.usb_stor_write
                0x000000008785696c       0x10 arch/arm/cpu/armv7/start.o
 .rel.text.usb_stor_get_dev
                0x000000008785697c       0x10 arch/arm/cpu/armv7/start.o
 .rel.text.usb_stor_info
                0x000000008785698c       0x20 arch/arm/cpu/armv7/start.o
 .rel.text.usb_storage_probe
                0x00000000878569ac       0x38 arch/arm/cpu/armv7/start.o
 .rel.text.usb_stor_get_info
                0x00000000878569e4       0x20 arch/arm/cpu/armv7/start.o
 .rel.text.usb_stor_scan
                0x0000000087856a04       0x40 arch/arm/cpu/armv7/start.o
 .rel.text.splash_get_pos
                0x0000000087856a44        0x8 arch/arm/cpu/armv7/start.o
 .rel.text.env_get_addr
                0x0000000087856a4c        0x8 arch/arm/cpu/armv7/start.o
 .rel.text.env_get_char
                0x0000000087856a54        0x8 arch/arm/cpu/armv7/start.o
 .rel.text.set_default_env
                0x0000000087856a5c       0x40 arch/arm/cpu/armv7/start.o
 .rel.text.set_default_vars
                0x0000000087856a9c       0x10 arch/arm/cpu/armv7/start.o
 .rel.text.env_import
                0x0000000087856aac       0x38 arch/arm/cpu/armv7/start.o
 .rel.text.env_export
                0x0000000087856ae4       0x28 arch/arm/cpu/armv7/start.o
 .rel.text.env_relocate
                0x0000000087856b0c        0x8 arch/arm/cpu/armv7/start.o
 .rel.text.env_complete
                0x0000000087856b14       0x18 arch/arm/cpu/armv7/start.o
 .rel.text.console_setfile
                0x0000000087856b2c       0x30 arch/arm/cpu/armv7/start.o
 .rel.text.fgetc
                0x0000000087856b5c        0x8 arch/arm/cpu/armv7/start.o
 .rel.text.ftstc
                0x0000000087856b64        0x8 arch/arm/cpu/armv7/start.o
 .rel.text.fputc
                0x0000000087856b6c        0x8 arch/arm/cpu/armv7/start.o
 .rel.text.fputs
                0x0000000087856b74        0x8 arch/arm/cpu/armv7/start.o
 .rel.text.ctrlc
                0x0000000087856b7c       0x10 arch/arm/cpu/armv7/start.o
 .rel.text.confirm_yesno
                0x0000000087856b8c       0x20 arch/arm/cpu/armv7/start.o
 .rel.text.had_ctrlc
                0x0000000087856bac        0x8 arch/arm/cpu/armv7/start.o
 .rel.text.clear_ctrlc
                0x0000000087856bb4        0x8 arch/arm/cpu/armv7/start.o
 .rel.text.on_console
                0x0000000087856bbc       0x20 arch/arm/cpu/armv7/start.o
 .rel.text.stdio_print_current_devices
                0x0000000087856bdc       0x40 arch/arm/cpu/armv7/start.o
 .rel.text.console_init_r
                0x0000000087856c1c       0x48 arch/arm/cpu/armv7/start.o
 .rel.text.sbrk
                0x0000000087856c64       0x18 arch/arm/cpu/armv7/start.o
 .rel.text.mem_malloc_init
                0x0000000087856c7c       0x18 arch/arm/cpu/armv7/start.o
 .rel.text.malloc_trim
                0x0000000087856c94       0x18 arch/arm/cpu/armv7/start.o
 .rel.text.free
                0x0000000087856cac       0x20 arch/arm/cpu/armv7/start.o
 .rel.text.malloc
                0x0000000087856ccc       0x48 arch/arm/cpu/armv7/start.o
 .rel.text.calloc
                0x0000000087856d14        0x8 arch/arm/cpu/armv7/start.o
 .rel.text.realloc
                0x0000000087856d1c       0x10 arch/arm/cpu/armv7/start.o
 .rel.text.on_loadaddr
                0x0000000087856d2c        0x8 arch/arm/cpu/armv7/start.o
 .rel.text.getenv_bootm_low
                0x0000000087856d34        0x8 arch/arm/cpu/armv7/start.o
 .rel.text.getenv_bootm_size
                0x0000000087856d3c       0x10 arch/arm/cpu/armv7/start.o
 .rel.text.getenv_bootm_mapsize
                0x0000000087856d4c        0x8 arch/arm/cpu/armv7/start.o
 .rel.text.genimg_print_size
                0x0000000087856d54       0x10 arch/arm/cpu/armv7/start.o
 .rel.text.genimg_get_os_name
                0x0000000087856d64       0x10 arch/arm/cpu/armv7/start.o
 .rel.text.genimg_get_arch_name
                0x0000000087856d74       0x10 arch/arm/cpu/armv7/start.o
 .rel.text.genimg_get_type_name
                0x0000000087856d84       0x10 arch/arm/cpu/armv7/start.o
 .rel.text.genimg_get_comp_name
                0x0000000087856d94       0x10 arch/arm/cpu/armv7/start.o
 .rel.text.image_print_contents
                0x0000000087856da4       0x50 arch/arm/cpu/armv7/start.o
 .rel.text.genimg_get_kernel_addr_fit
                0x0000000087856df4        0x8 arch/arm/cpu/armv7/start.o
 .rel.text.boot_get_ramdisk
                0x0000000087856dfc       0x50 arch/arm/cpu/armv7/start.o
 .rel.text.boot_ramdisk_high
                0x0000000087856e4c       0x20 arch/arm/cpu/armv7/start.o
 .rel.text.fdt_error
                0x0000000087856e6c       0x10 arch/arm/cpu/armv7/start.o
 .rel.text.boot_fdt_add_mem_rsv_regions
                0x0000000087856e7c        0x8 arch/arm/cpu/armv7/start.o
 .rel.text.boot_relocate_fdt
                0x0000000087856e84       0x40 arch/arm/cpu/armv7/start.o
 .rel.text.boot_get_fdt
                0x0000000087856ec4       0x80 arch/arm/cpu/armv7/start.o
 .rel.text.image_setup_libfdt
                0x0000000087856f44       0x20 arch/arm/cpu/armv7/start.o
 .rel.text.stdio_get_list
                0x0000000087856f64        0x8 arch/arm/cpu/armv7/start.o
 .rel.text.stdio_get_by_name
                0x0000000087856f6c        0x8 arch/arm/cpu/armv7/start.o
 .rel.text.stdio_register_dev
                0x0000000087856f74        0x8 arch/arm/cpu/armv7/start.o
 .rel.text.stdio_init_tables
                0x0000000087856f7c        0x8 arch/arm/cpu/armv7/start.o
 .rel.text.stdio_add_devices
                0x0000000087856f84       0x48 arch/arm/cpu/armv7/start.o
 .rel.text.do_run
                0x0000000087856fcc        0x8 arch/arm/cpu/armv7/start.o
 .rel.text.delete_char.part.0
                0x0000000087856fd4       0x10 arch/arm/cpu/armv7/start.o
 .rel.text.cread_add_char
                0x0000000087856fe4        0x8 arch/arm/cpu/armv7/start.o
 .rel.text.cli_readline_into_buffer
                0x0000000087856fec       0xb8 arch/arm/cpu/armv7/start.o
 .rel.text.cli_readline
                0x00000000878570a4        0x8 arch/arm/cpu/armv7/start.o
 .rel.text.find_cmd
                0x00000000878570ac       0x10 arch/arm/cpu/armv7/start.o
 .rel.text.cmd_usage
                0x00000000878570bc       0x18 arch/arm/cpu/armv7/start.o
 .rel.text._do_help
                0x00000000878570d4       0x10 arch/arm/cpu/armv7/start.o
 .rel.text.var_complete
                0x00000000878570e4       0x10 arch/arm/cpu/armv7/start.o
 .rel.text.cmd_auto_complete
                0x00000000878570f4       0x48 arch/arm/cpu/armv7/start.o
 .rel.text.cmd_get_data_size
                0x000000008785713c        0x8 arch/arm/cpu/armv7/start.o
 .rel.text.cmd_process
                0x0000000087857144       0x18 arch/arm/cpu/armv7/start.o
 .rel.text.cmd_process_error
                0x000000008785715c        0x8 arch/arm/cpu/armv7/start.o
 .rel.text.srec_decode
                0x0000000087857164       0x50 arch/arm/cpu/armv7/start.o
 .rel.text.xyzModem_get_hdr
                0x00000000878571b4       0x30 arch/arm/cpu/armv7/start.o
 .rel.text.xyzModem_stream_open
                0x00000000878571e4       0x10 arch/arm/cpu/armv7/start.o
 .rel.text.xyzModem_stream_read
                0x00000000878571f4        0x8 arch/arm/cpu/armv7/start.o
 .rel.text.xyzModem_stream_close
                0x00000000878571fc       0x20 arch/arm/cpu/armv7/start.o
 .rel.text.xyzModem_stream_terminate
                0x000000008785721c        0x8 arch/arm/cpu/armv7/start.o
 .rel.text.xyzModem_error
                0x0000000087857224       0x10 arch/arm/cpu/armv7/start.o
 .rel.rodata.boot_os
                0x0000000087857234       0x38 arch/arm/cpu/armv7/start.o
 .rel.rodata.uimage_arch
                0x000000008785726c      0x188 arch/arm/cpu/armv7/start.o
 .rel.rodata.uimage_comp
                0x00000000878573f4       0x70 arch/arm/cpu/armv7/start.o
 .rel.rodata.uimage_os
                0x0000000087857464       0x98 arch/arm/cpu/armv7/start.o
 .rel.rodata.uimage_type
                0x00000000878574fc      0x1a8 arch/arm/cpu/armv7/start.o
 .rel.rodata.CSWTCH.32
                0x00000000878576a4       0x40 arch/arm/cpu/armv7/start.o
 .rel.data.reserved_list
                0x00000000878576e4       0x58 arch/arm/cpu/armv7/start.o
 .rel.u_boot_list_2_cmd_2_showvar
                0x000000008785773c       0x20 arch/arm/cpu/armv7/start.o
 .rel.data.init_sequence_f
                0x000000008785775c      0x138 arch/arm/cpu/armv7/start.o
 .rel.data.init_sequence_r
                0x0000000087857894       0xe0 arch/arm/cpu/armv7/start.o
 .rel.u_boot_list_2_env_clbk_2_callbacks
                0x0000000087857974       0x10 arch/arm/cpu/armv7/start.o
 .rel.u_boot_list_2_env_clbk_2_flags
                0x0000000087857984       0x10 arch/arm/cpu/armv7/start.o
 .rel.data.env_name_spec
                0x0000000087857994        0x8 arch/arm/cpu/armv7/start.o
 .rel.data.env_htab
                0x000000008785799c        0x8 arch/arm/cpu/armv7/start.o
 .rel.u_boot_list_2_env_clbk_2_console
                0x00000000878579a4       0x10 arch/arm/cpu/armv7/start.o
 .rel.data.av_  0x00000000878579b4      0x800 arch/arm/cpu/armv7/start.o
 .rel.u_boot_list_2_env_clbk_2_loadaddr
                0x00000000878581b4       0x10 arch/arm/cpu/armv7/start.o
 .rel.data.stdio_names
                0x00000000878581c4       0x18 arch/arm/cpu/armv7/start.o
 .rel.text.get_dev_hwpart.part.0
                0x00000000878581dc        0x8 arch/arm/cpu/armv7/start.o
 .rel.text.dev_print
                0x00000000878581e4      0x110 arch/arm/cpu/armv7/start.o
 .rel.text.print_part
                0x00000000878582f4       0xb0 arch/arm/cpu/armv7/start.o
 .rel.text.get_device
                0x00000000878583a4       0x18 arch/arm/cpu/armv7/start.o
 .rel.text.get_device_and_partition
                0x00000000878583bc       0x60 arch/arm/cpu/armv7/start.o
 .rel.text.test_block_type
                0x000000008785841c       0x10 arch/arm/cpu/armv7/start.o
 .rel.text.print_partition_extended
                0x000000008785842c       0x30 arch/arm/cpu/armv7/start.o
 .rel.text.get_partition_info_extended.constprop.1
                0x000000008785845c       0x80 arch/arm/cpu/armv7/start.o
 .rel.text.print_part_dos
                0x00000000878584dc        0x8 arch/arm/cpu/armv7/start.o
 .rel.rodata.block_drvr
                0x00000000878584e4       0x28 arch/arm/cpu/armv7/start.o
 .rel.text.device_bind
                0x000000008785850c       0x10 arch/arm/cpu/armv7/start.o
 .rel.text.device_probe
                0x000000008785851c       0x10 arch/arm/cpu/armv7/start.o
 .rel.text.dev_get_platdata
                0x000000008785852c       0x10 arch/arm/cpu/armv7/start.o
 .rel.text.dev_get_priv
                0x000000008785853c       0x10 arch/arm/cpu/armv7/start.o
 .rel.text.lists_driver_lookup_name
                0x000000008785854c       0x10 arch/arm/cpu/armv7/start.o
 .rel.text.lists_uclass_lookup
                0x000000008785855c       0x10 arch/arm/cpu/armv7/start.o
 .rel.text.lists_bind_drivers
                0x000000008785856c       0x18 arch/arm/cpu/armv7/start.o
 .rel.text.dm_root
                0x0000000087858584        0x8 arch/arm/cpu/armv7/start.o
 .rel.text.dm_init
                0x000000008785858c       0x10 arch/arm/cpu/armv7/start.o
 .rel.text.dm_scan_platdata
                0x000000008785859c        0x8 arch/arm/cpu/armv7/start.o
 .rel.text.uclass_resolve_seq
                0x00000000878585a4        0x8 arch/arm/cpu/armv7/start.o
 .rel.text.device_remove
                0x00000000878585ac       0x20 arch/arm/cpu/armv7/start.o
 .rel.text.show_devices
                0x00000000878585cc       0x30 arch/arm/cpu/armv7/start.o
 .rel.text.dm_dump_all
                0x00000000878585fc       0x10 arch/arm/cpu/armv7/start.o
 .rel.text.dm_dump_uclass
                0x000000008785860c       0x20 arch/arm/cpu/armv7/start.o
 .rel.text.finish_access
                0x000000008785862c        0x8 arch/arm/cpu/armv7/start.o
 .rel.text.prepare_access
                0x0000000087858634        0x8 arch/arm/cpu/armv7/start.o
 .rel.text.fuse_read
                0x000000008785863c        0x8 arch/arm/cpu/armv7/start.o
 .rel.text.fuse_sense
                0x0000000087858644        0x8 arch/arm/cpu/armv7/start.o
 .rel.text.fuse_prog
                0x000000008785864c        0x8 arch/arm/cpu/armv7/start.o
 .rel.text.fuse_override
                0x0000000087858654        0x8 arch/arm/cpu/armv7/start.o
 .rel.text.video_invertchar
                0x000000008785865c       0x10 arch/arm/cpu/armv7/start.o
 .rel.text.draw_bitmap
                0x000000008785866c       0x28 arch/arm/cpu/armv7/start.o
 .rel.text.console_cursor.part.0
                0x0000000087858694        0x8 arch/arm/cpu/armv7/start.o
 .rel.text.console_newline.constprop.3
                0x000000008785869c       0x28 arch/arm/cpu/armv7/start.o
 .rel.text.console_cursor
                0x00000000878586c4       0x30 arch/arm/cpu/armv7/start.o
 .rel.text.video_putc
                0x00000000878586f4       0xe0 arch/arm/cpu/armv7/start.o
 .rel.text.video_puts
                0x00000000878587d4       0x10 arch/arm/cpu/armv7/start.o
 .rel.text.display_rle8_bitmap
                0x00000000878587e4       0x40 arch/arm/cpu/armv7/start.o
 .rel.text.video_display_bitmap
                0x0000000087858824       0x98 arch/arm/cpu/armv7/start.o
 .rel.text.video_clear
                0x00000000878588bc       0x18 arch/arm/cpu/armv7/start.o
 .rel.text.drv_video_init
                0x00000000878588d4       0x90 arch/arm/cpu/armv7/start.o
 .rel.text.mxs_lcd_panel_setup
                0x0000000087858964       0x20 arch/arm/cpu/armv7/start.o
 .rel.text.lcdif_power_down
                0x0000000087858984        0x8 arch/arm/cpu/armv7/start.o
 .rel.text.video_hw_init
                0x000000008785898c       0x78 arch/arm/cpu/armv7/start.o
 .rel.text.video_get_params
                0x0000000087858a04       0x88 arch/arm/cpu/armv7/start.o
 .rel.text.imx_thermal_get_temp
                0x0000000087858a8c       0x10 arch/arm/cpu/armv7/start.o
 .rel.rodata.root_info
                0x0000000087858a9c        0x8 arch/arm/cpu/armv7/start.o
 .rel.rodata.imx_thermal_ops
                0x0000000087858aa4        0x8 arch/arm/cpu/armv7/start.o
 .rel.u_boot_list_2_driver_2_root_driver
                0x0000000087858aac        0x8 arch/arm/cpu/armv7/start.o
 .rel.u_boot_list_2_uclass_2_root
                0x0000000087858ab4        0x8 arch/arm/cpu/armv7/start.o
 .rel.u_boot_list_2_uclass_2_disk
                0x0000000087858abc        0x8 arch/arm/cpu/armv7/start.o
 .rel.u_boot_list_2_uclass_2_thermal
                0x0000000087858ac4        0x8 arch/arm/cpu/armv7/start.o
 .rel.u_boot_list_2_driver_2_imx_thermal
                0x0000000087858acc       0x18 arch/arm/cpu/armv7/start.o
 .rel.text.gpio_set_value
                0x0000000087858ae4        0x8 arch/arm/cpu/armv7/start.o
 .rel.text.gpio_get_value
                0x0000000087858aec        0x8 arch/arm/cpu/armv7/start.o
 .rel.text.gpio_direction_input
                0x0000000087858af4        0x8 arch/arm/cpu/armv7/start.o
 .rel.text.gpio_direction_output
                0x0000000087858afc        0x8 arch/arm/cpu/armv7/start.o
 .rel.text.i2c_get_adapter
                0x0000000087858b04       0x18 arch/arm/cpu/armv7/start.o
 .rel.text.i2c_init_bus
                0x0000000087858b1c       0x10 arch/arm/cpu/armv7/start.o
 .rel.text.i2c_set_bus_num
                0x0000000087858b2c       0x18 arch/arm/cpu/armv7/start.o
 .rel.text.wait_for_sr_state
                0x0000000087858b44       0x18 arch/arm/cpu/armv7/start.o
 .rel.text.bus_i2c_set_bus_speed
                0x0000000087858b5c        0x8 arch/arm/cpu/armv7/start.o
 .rel.text.mxc_i2c_set_bus_speed
                0x0000000087858b64        0x8 arch/arm/cpu/armv7/start.o
 .rel.text.i2c_imx_stop
                0x0000000087858b6c       0x10 arch/arm/cpu/armv7/start.o
 .rel.text.i2c_init_transfer
                0x0000000087858b7c       0x18 arch/arm/cpu/armv7/start.o
 .rel.text.mxc_i2c_probe
                0x0000000087858b94        0x8 arch/arm/cpu/armv7/start.o
 .rel.text.mxc_i2c_read
                0x0000000087858b9c        0x8 arch/arm/cpu/armv7/start.o
 .rel.text.mxc_i2c_write
                0x0000000087858ba4        0x8 arch/arm/cpu/armv7/start.o
 .rel.text.bus_i2c_init
                0x0000000087858bac        0x8 arch/arm/cpu/armv7/start.o
 .rel.u_boot_list_2_i2c_2_mxc0
                0x0000000087858bb4       0x30 arch/arm/cpu/armv7/start.o
 .rel.u_boot_list_2_i2c_2_mxc1
                0x0000000087858be4       0x30 arch/arm/cpu/armv7/start.o
 .rel.text.esdhc_send_cmd
                0x0000000087858c14       0x20 arch/arm/cpu/armv7/start.o
 .rel.text.fsl_esdhc_initialize
                0x0000000087858c34       0x20 arch/arm/cpu/armv7/start.o
 .rel.text.mmc_set_capacity
                0x0000000087858c54       0x40 arch/arm/cpu/armv7/start.o
 .rel.text.mmc_send_status
                0x0000000087858c94       0x10 arch/arm/cpu/armv7/start.o
 .rel.text.find_mmc_device
                0x0000000087858ca4       0x10 arch/arm/cpu/armv7/start.o
 .rel.text.mmc_select_hwpart
                0x0000000087858cb4        0x8 arch/arm/cpu/armv7/start.o
 .rel.text.mmc_bread
                0x0000000087858cbc       0x10 arch/arm/cpu/armv7/start.o
 .rel.text.mmc_hwpart_config
                0x0000000087858ccc       0x48 arch/arm/cpu/armv7/start.o
 .rel.text.mmc_startup
                0x0000000087858d14       0xa8 arch/arm/cpu/armv7/start.o
 .rel.text.mmc_create
                0x0000000087858dbc       0x28 arch/arm/cpu/armv7/start.o
 .rel.text.mmc_start_init
                0x0000000087858de4       0x10 arch/arm/cpu/armv7/start.o
 .rel.text.print_mmc_devices
                0x0000000087858df4       0x40 arch/arm/cpu/armv7/start.o
 .rel.text.get_mmc_num
                0x0000000087858e34        0x8 arch/arm/cpu/armv7/start.o
 .rel.text.mmc_initialize
                0x0000000087858e3c       0x18 arch/arm/cpu/armv7/start.o
 .rel.text.mmc_berase
                0x0000000087858e54       0x10 arch/arm/cpu/armv7/start.o
 .rel.text.mmc_bwrite
                0x0000000087858e64       0x18 arch/arm/cpu/armv7/start.o
 .rel.rodata.esdhc_ops
                0x0000000087858e7c       0x20 arch/arm/cpu/armv7/start.o
 .rel.text.mtd_arg_off
                0x0000000087858e9c       0x10 arch/arm/cpu/armv7/start.o
 .rel.text.mtd_arg_off_size
                0x0000000087858eac       0x28 arch/arm/cpu/armv7/start.o
 .rel.text.spi_flash_write_common
                0x0000000087858ed4        0x8 arch/arm/cpu/armv7/start.o
 .rel.text.spi_flash_cmd_erase_ops
                0x0000000087858edc        0x8 arch/arm/cpu/armv7/start.o
 .rel.text.spi_flash_cmd_write_ops
                0x0000000087858ee4        0x8 arch/arm/cpu/armv7/start.o
 .rel.text.spi_flash_scan
                0x0000000087858eec       0x98 arch/arm/cpu/armv7/start.o
 .rel.rodata.spi_flash_params_table
                0x0000000087858f84       0xb8 arch/arm/cpu/armv7/start.o
 .rel.text.fec_phy_write
                0x000000008785903c        0x8 arch/arm/cpu/armv7/start.o
 .rel.text.fec_phy_read
                0x0000000087859044        0x8 arch/arm/cpu/armv7/start.o
 .rel.text.fec_send
                0x000000008785904c        0x8 arch/arm/cpu/armv7/start.o
 .rel.text.fec_init
                0x0000000087859054        0x8 arch/arm/cpu/armv7/start.o
 .rel.text.fec_recv
                0x000000008785905c       0x10 arch/arm/cpu/armv7/start.o
 .rel.text.fec_probe
                0x000000008785906c       0x68 arch/arm/cpu/armv7/start.o
 .rel.text.fec_get_miibus
                0x00000000878590d4       0x30 arch/arm/cpu/armv7/start.o
 .rel.text.genphy_update_link
                0x0000000087859104       0x30 arch/arm/cpu/armv7/start.o
 .rel.text.phy_register
                0x0000000087859134        0x8 arch/arm/cpu/armv7/start.o
 .rel.text.get_phy_device_by_mask
                0x000000008785913c       0x18 arch/arm/cpu/armv7/start.o
 .rel.text.phy_reset
                0x0000000087859154        0x8 arch/arm/cpu/armv7/start.o
 .rel.text.phy_connect_dev
                0x000000008785915c        0x8 arch/arm/cpu/armv7/start.o
 .rel.text.phy_smsc_init
                0x0000000087859164       0x20 arch/arm/cpu/armv7/start.o
 .rel.data.genphy_driver
                0x0000000087859184       0x20 arch/arm/cpu/armv7/start.o
 .rel.data.phy_drivers
                0x00000000878591a4       0x10 arch/arm/cpu/armv7/start.o
 .rel.data.lan8700_driver
                0x00000000878591b4       0x20 arch/arm/cpu/armv7/start.o
 .rel.data.lan8710_driver
                0x00000000878591d4       0x20 arch/arm/cpu/armv7/start.o
 .rel.data.lan8740_driver
                0x00000000878591f4       0x20 arch/arm/cpu/armv7/start.o
 .rel.data.lan911x_driver
                0x0000000087859214       0x20 arch/arm/cpu/armv7/start.o
 .rel.text.check_reg
                0x0000000087859234        0x8 arch/arm/cpu/armv7/start.o
 .rel.text.pmic_get
                0x000000008785923c        0x8 arch/arm/cpu/armv7/start.o
 .rel.text.power_get_interface
                0x0000000087859244        0x8 arch/arm/cpu/armv7/start.o
 .rel.text.do_pmic
                0x000000008785924c       0x98 arch/arm/cpu/armv7/start.o
 .rel.text.pmic_reg_write
                0x00000000878592e4       0x10 arch/arm/cpu/armv7/start.o
 .rel.text.pmic_reg_read
                0x00000000878592f4       0x10 arch/arm/cpu/armv7/start.o
 .rel.data.pmic_list
                0x0000000087859304       0x10 arch/arm/cpu/armv7/start.o
 .rel.u_boot_list_2_cmd_2_pmic
                0x0000000087859314       0x20 arch/arm/cpu/armv7/start.o
 .rel.text.get_current
                0x0000000087859334       0x10 arch/arm/cpu/armv7/start.o
 .rel.text.serial_register
                0x0000000087859344        0x8 arch/arm/cpu/armv7/start.o
 .rel.text.serial_stdio_init
                0x000000008785934c       0x38 arch/arm/cpu/armv7/start.o
 .rel.text.serial_assign
                0x0000000087859384       0x10 arch/arm/cpu/armv7/start.o
 .rel.text.on_baudrate
                0x0000000087859394       0x18 arch/arm/cpu/armv7/start.o
 .rel.text.mxc_serial_initialize
                0x00000000878593ac        0x8 arch/arm/cpu/armv7/start.o
 .rel.text.default_serial_console
                0x00000000878593b4        0x8 arch/arm/cpu/armv7/start.o
 .rel.u_boot_list_2_env_clbk_2_baudrate
                0x00000000878593bc       0x10 arch/arm/cpu/armv7/start.o
 .rel.data.mxc_serial_drv
                0x00000000878593cc       0x30 arch/arm/cpu/armv7/start.o
 .rel.text.fsl_qspi_runcmd
                0x00000000878593fc        0x8 arch/arm/cpu/armv7/start.o
 .rel.text.spi_setup_slave
                0x0000000087859404       0x28 arch/arm/cpu/armv7/start.o
 .rel.text.spi_xfer
                0x000000008785942c       0x10 arch/arm/cpu/armv7/start.o
 .rel.text.usb_host_eth_scan
                0x000000008785943c       0x50 arch/arm/cpu/armv7/start.o
 .rel.text.asix_init
                0x000000008785948c       0x18 arch/arm/cpu/armv7/start.o
 .rel.text.asix_eth_before_probe
                0x00000000878594a4        0x8 arch/arm/cpu/armv7/start.o
 .rel.text.asix_eth_probe
                0x00000000878594ac        0x8 arch/arm/cpu/armv7/start.o
 .rel.text.asix_eth_get_info
                0x00000000878594b4       0x40 arch/arm/cpu/armv7/start.o
 .rel.rodata.prob_dev
                0x00000000878594f4       0x18 arch/arm/cpu/armv7/start.o
 .rel.text.ehci_shutdown
                0x000000008785950c        0x8 arch/arm/cpu/armv7/start.o
 .rel.text.ehci_td_buffer
                0x0000000087859514        0x8 arch/arm/cpu/armv7/start.o
 .rel.text.disable_periodic.isra.2
                0x000000008785951c        0x8 arch/arm/cpu/armv7/start.o
 .rel.text.enable_periodic.isra.3
                0x0000000087859524        0x8 arch/arm/cpu/armv7/start.o
 .rel.text._ehci_destroy_int_queue
                0x000000008785952c        0x8 arch/arm/cpu/armv7/start.o
 .rel.text.ehci_submit_async
                0x0000000087859534       0x30 arch/arm/cpu/armv7/start.o
 .rel.text._ehci_create_int_queue.isra.6
                0x0000000087859564       0x10 arch/arm/cpu/armv7/start.o
 .rel.text.usb_lowlevel_stop
                0x0000000087859574        0x8 arch/arm/cpu/armv7/start.o
 .rel.text.usb_lowlevel_init
                0x000000008785957c       0x28 arch/arm/cpu/armv7/start.o
 .rel.text.submit_control_msg
                0x00000000878595a4       0x28 arch/arm/cpu/armv7/start.o
 .rel.text.submit_int_msg
                0x00000000878595cc        0x8 arch/arm/cpu/armv7/start.o
 .rel.text.usb_phy_mode
                0x00000000878595d4        0x8 arch/arm/cpu/armv7/start.o
 .rel.text.ehci_hcd_init
                0x00000000878595dc        0x8 arch/arm/cpu/armv7/start.o
 .rel.rodata.default_ehci_ops
                0x00000000878595e4       0x20 arch/arm/cpu/armv7/start.o
 .rel.text.fs_probe_unsupported
                0x0000000087859604        0x8 arch/arm/cpu/armv7/start.o
 .rel.text.fs_get_info
                0x000000008785960c        0x8 arch/arm/cpu/armv7/start.o
 .rel.text.fs_close
                0x0000000087859614        0x8 arch/arm/cpu/armv7/start.o
 .rel.text.fs_set_blk_dev
                0x000000008785961c       0x20 arch/arm/cpu/armv7/start.o
 .rel.text.fs_ls
                0x000000008785963c        0x8 arch/arm/cpu/armv7/start.o
 .rel.text.fs_exists
                0x0000000087859644        0x8 arch/arm/cpu/armv7/start.o
 .rel.text.fs_size
                0x000000008785964c        0x8 arch/arm/cpu/armv7/start.o
 .rel.text.fs_read
                0x0000000087859654       0x10 arch/arm/cpu/armv7/start.o
 .rel.text.fs_write
                0x0000000087859664       0x10 arch/arm/cpu/armv7/start.o
 .rel.text.do_size
                0x0000000087859674        0x8 arch/arm/cpu/armv7/start.o
 .rel.text.do_load
                0x000000008785967c       0x50 arch/arm/cpu/armv7/start.o
 .rel.text.do_ls
                0x00000000878596cc        0x8 arch/arm/cpu/armv7/start.o
 .rel.text.do_save
                0x00000000878596d4       0x28 arch/arm/cpu/armv7/start.o
 .rel.text.do_fs_type
                0x00000000878596fc       0x10 arch/arm/cpu/armv7/start.o
 .rel.text.get_fs
                0x000000008785970c        0x8 arch/arm/cpu/armv7/start.o
 .rel.text.ext4fs_free_node
                0x0000000087859714        0x8 arch/arm/cpu/armv7/start.o
 .rel.text.ext4fs_read_file
                0x000000008785971c        0x8 arch/arm/cpu/armv7/start.o
 .rel.text.ext4fs_ls
                0x0000000087859724       0x10 arch/arm/cpu/armv7/start.o
 .rel.text.ext4fs_read
                0x0000000087859734       0x10 arch/arm/cpu/armv7/start.o
 .rel.text.ext4_read_file
                0x0000000087859744       0x10 arch/arm/cpu/armv7/start.o
 .rel.text.ext4fs_uuid
                0x0000000087859754        0x8 arch/arm/cpu/armv7/start.o
 .rel.text.put_ext4
                0x000000008785975c       0x20 arch/arm/cpu/armv7/start.o
 .rel.text.ext4fs_set_block_bmap
                0x000000008785977c        0x8 arch/arm/cpu/armv7/start.o
 .rel.text.ext4fs_reset_block_bmap
                0x0000000087859784        0x8 arch/arm/cpu/armv7/start.o
 .rel.text.ext4fs_set_inode_bmap
                0x000000008785978c        0x8 arch/arm/cpu/armv7/start.o
 .rel.text.ext4fs_reset_inode_bmap
                0x0000000087859794        0x8 arch/arm/cpu/armv7/start.o
 .rel.text.ext4fs_get_new_blk_no
                0x000000008785979c       0x10 arch/arm/cpu/armv7/start.o
 .rel.text.ext4fs_get_new_inode_no
                0x00000000878597ac       0x10 arch/arm/cpu/armv7/start.o
 .rel.text.ext4fs_allocate_blocks
                0x00000000878597bc       0x30 arch/arm/cpu/armv7/start.o
 .rel.text.ext4fs_iget
                0x00000000878597ec        0x8 arch/arm/cpu/armv7/start.o
 .rel.text.read_allocated_block
                0x00000000878597f4       0xb8 arch/arm/cpu/armv7/start.o
 .rel.text.ext4fs_update_parent_dentry
                0x00000000878598ac       0x30 arch/arm/cpu/armv7/start.o
 .rel.text.ext4fs_get_parent_inode_num
                0x00000000878598dc       0x28 arch/arm/cpu/armv7/start.o
 .rel.text.ext4fs_filename_check
                0x0000000087859904       0x10 arch/arm/cpu/armv7/start.o
 .rel.text.ext4fs_reinit_global
                0x0000000087859914       0x48 arch/arm/cpu/armv7/start.o
 .rel.text.ext4fs_close
                0x000000008785995c       0x10 arch/arm/cpu/armv7/start.o
 .rel.text.ext4fs_iterate_dir
                0x000000008785996c       0x30 arch/arm/cpu/armv7/start.o
 .rel.text.ext4fs_find_file1
                0x000000008785999c       0x10 arch/arm/cpu/armv7/start.o
 .rel.text.ext4fs_find_file
                0x00000000878599ac        0x8 arch/arm/cpu/armv7/start.o
 .rel.text.ext4fs_open
                0x00000000878599b4       0x10 arch/arm/cpu/armv7/start.o
 .rel.text.ext4fs_mount
                0x00000000878599c4       0x10 arch/arm/cpu/armv7/start.o
 .rel.text.ext4fs_set_blk_dev
                0x00000000878599d4       0x18 arch/arm/cpu/armv7/start.o
 .rel.text.ext4fs_devread
                0x00000000878599ec       0x40 arch/arm/cpu/armv7/start.o
 .rel.text.ext4fs_update
                0x0000000087859a2c       0x10 arch/arm/cpu/armv7/start.o
 .rel.text.ext4fs_get_bgdtable
                0x0000000087859a3c        0x8 arch/arm/cpu/armv7/start.o
 .rel.text.ext4fs_deinit
                0x0000000087859a44        0x8 arch/arm/cpu/armv7/start.o
 .rel.text.ext4fs_init
                0x0000000087859a4c       0x10 arch/arm/cpu/armv7/start.o
 .rel.text.ext4fs_write
                0x0000000087859a5c       0x58 arch/arm/cpu/armv7/start.o
 .rel.text.ext4_write_file
                0x0000000087859ab4       0x10 arch/arm/cpu/armv7/start.o
 .rel.text.ext4fs_dump_metadata
                0x0000000087859ac4        0x8 arch/arm/cpu/armv7/start.o
 .rel.text.ext4fs_free_journal
                0x0000000087859acc       0x28 arch/arm/cpu/armv7/start.o
 .rel.text.ext4fs_log_gdt
                0x0000000087859af4       0x10 arch/arm/cpu/armv7/start.o
 .rel.text.ext4fs_log_journal
                0x0000000087859b04       0x20 arch/arm/cpu/armv7/start.o
 .rel.text.ext4fs_put_metadata
                0x0000000087859b24       0x20 arch/arm/cpu/armv7/start.o
 .rel.text.ext4fs_push_revoke_blk
                0x0000000087859b44       0x28 arch/arm/cpu/armv7/start.o
 .rel.text.ext4fs_free_revoke_blks
                0x0000000087859b6c       0x18 arch/arm/cpu/armv7/start.o
 .rel.text.check_blknr_for_revoke
                0x0000000087859b84        0x8 arch/arm/cpu/armv7/start.o
 .rel.text.recover_transaction
                0x0000000087859b8c       0x10 arch/arm/cpu/armv7/start.o
 .rel.text.print_jrnl_status
                0x0000000087859b9c       0x10 arch/arm/cpu/armv7/start.o
 .rel.text.ext4fs_check_journal_state
                0x0000000087859bac       0x18 arch/arm/cpu/armv7/start.o
 .rel.text.ext4fs_init_journal
                0x0000000087859bc4       0x38 arch/arm/cpu/armv7/start.o
 .rel.text.ext4fs_update_journal
                0x0000000087859bfc       0x20 arch/arm/cpu/armv7/start.o
 .rel.text.ext2fs_crc16
                0x0000000087859c1c        0x8 arch/arm/cpu/armv7/start.o
 .rel.text.downcase
                0x0000000087859c24        0x8 arch/arm/cpu/armv7/start.o
 .rel.text.disk_read
                0x0000000087859c2c       0x10 arch/arm/cpu/armv7/start.o
 .rel.text.disk_write
                0x0000000087859c3c       0x20 arch/arm/cpu/armv7/start.o
 .rel.text.flush_fat_buffer
                0x0000000087859c5c        0x8 arch/arm/cpu/armv7/start.o
 .rel.text.get_fatent_value
                0x0000000087859c64        0x8 arch/arm/cpu/armv7/start.o
 .rel.text.get_cluster
                0x0000000087859c6c        0x8 arch/arm/cpu/armv7/start.o
 .rel.text.set_cluster
                0x0000000087859c74        0x8 arch/arm/cpu/armv7/start.o
 .rel.text.read_bootsectandvi
                0x0000000087859c7c       0x20 arch/arm/cpu/armv7/start.o
 .rel.text.set_name
                0x0000000087859c9c        0x8 arch/arm/cpu/armv7/start.o
 .rel.text.check_overflow
                0x0000000087859ca4       0x10 arch/arm/cpu/armv7/start.o
 .rel.text.get_vfatname
                0x0000000087859cb4       0x10 arch/arm/cpu/armv7/start.o
 .rel.text.flush_dir_table.constprop.8
                0x0000000087859cc4       0x20 arch/arm/cpu/armv7/start.o
 .rel.text.do_fat_write
                0x0000000087859ce4       0x80 arch/arm/cpu/armv7/start.o
 .rel.text.fat_set_blk_dev
                0x0000000087859d64       0x28 arch/arm/cpu/armv7/start.o
 .rel.text.do_fat_read_at
                0x0000000087859d8c       0x60 arch/arm/cpu/armv7/start.o
 .rel.text.file_fat_detectfs
                0x0000000087859dec       0xb0 arch/arm/cpu/armv7/start.o
 .rel.text.file_fat_read_at
                0x0000000087859e9c        0x8 arch/arm/cpu/armv7/start.o
 .rel.text.fat_read_file
                0x0000000087859ea4        0x8 arch/arm/cpu/armv7/start.o
 .rel.text.file_fat_write
                0x0000000087859eac       0x10 arch/arm/cpu/armv7/start.o
 .rel.data.fstypes
                0x0000000087859ebc       0xd8 arch/arm/cpu/armv7/start.o
 .rel.text.inflate_fast
                0x0000000087859f94       0x18 arch/arm/cpu/armv7/start.o
 .rel.text.inflate_table
                0x0000000087859fac       0x20 arch/arm/cpu/armv7/start.o
 .rel.text.inflateInit2_
                0x0000000087859fcc       0x10 arch/arm/cpu/armv7/start.o
 .rel.text.inflate
                0x0000000087859fdc      0x188 arch/arm/cpu/armv7/start.o
 .rel.text.fdt_next_tag
                0x000000008785a164       0x48 arch/arm/cpu/armv7/start.o
 .rel.text.fdt_get_alias_namelen
                0x000000008785a1ac        0x8 arch/arm/cpu/armv7/start.o
 .rel.text.fdt_strerror
                0x000000008785a1b4       0x20 arch/arm/cpu/armv7/start.o
 .rel.text.fdt_address_cells
                0x000000008785a1d4        0x8 arch/arm/cpu/armv7/start.o
 .rel.text.fdt_size_cells
                0x000000008785a1dc        0x8 arch/arm/cpu/armv7/start.o
 .rel.text.cyg_crc16
                0x000000008785a1e4        0x8 arch/arm/cpu/armv7/start.o
 .rel.text.zunzip
                0x000000008785a1ec       0x28 arch/arm/cpu/armv7/start.o
 .rel.text.gunzip
                0x000000008785a214       0x10 arch/arm/cpu/armv7/start.o
 .rel.text.initcall_run_list
                0x000000008785a224        0x8 arch/arm/cpu/armv7/start.o
 .rel.text.lmb_alloc_base
                0x000000008785a22c        0x8 arch/arm/cpu/armv7/start.o
 .rel.text.match_string
                0x000000008785a234        0x8 arch/arm/cpu/armv7/start.o
 .rel.text.match_entry
                0x000000008785a23c        0x8 arch/arm/cpu/armv7/start.o
 .rel.text.hcreate_r
                0x000000008785a244        0x8 arch/arm/cpu/armv7/start.o
 .rel.text.hdestroy_r
                0x000000008785a24c        0x8 arch/arm/cpu/armv7/start.o
 .rel.text.hmatch_r
                0x000000008785a254        0x8 arch/arm/cpu/armv7/start.o
 .rel.text.hsearch_r
                0x000000008785a25c        0x8 arch/arm/cpu/armv7/start.o
 .rel.text.hdelete_r
                0x000000008785a264        0x8 arch/arm/cpu/armv7/start.o
 .rel.text.hexport_r
                0x000000008785a26c       0x18 arch/arm/cpu/armv7/start.o
 .rel.text.himport_r
                0x000000008785a284       0x20 arch/arm/cpu/armv7/start.o
 .rel.text.display_options
                0x000000008785a2a4       0x10 arch/arm/cpu/armv7/start.o
 .rel.text.print_size
                0x000000008785a2b4       0x28 arch/arm/cpu/armv7/start.o
 .rel.text.print_buffer
                0x000000008785a2dc       0x28 arch/arm/cpu/armv7/start.o
 .rel.text.crc32_no_comp
                0x000000008785a304        0x8 arch/arm/cpu/armv7/start.o
 .rel.text.hang
                0x000000008785a30c        0x8 arch/arm/cpu/armv7/start.o
 .rel.text.skip_spaces
                0x000000008785a314        0x8 arch/arm/cpu/armv7/start.o
 .rel.text.strim
                0x000000008785a31c        0x8 arch/arm/cpu/armv7/start.o
 .rel.text.emit
                0x000000008785a324        0x8 arch/arm/cpu/armv7/start.o
 .rel.text.store_char_in_data
                0x000000008785a32c        0x8 arch/arm/cpu/armv7/start.o
 .rel.text.match
                0x000000008785a334       0x98 arch/arm/cpu/armv7/start.o
 .rel.text.quantifier
                0x000000008785a3cc        0x8 arch/arm/cpu/armv7/start.o
 .rel.text.fixup_branch
                0x000000008785a3d4        0x8 arch/arm/cpu/armv7/start.o
 .rel.text.compile
                0x000000008785a3dc       0x28 arch/arm/cpu/armv7/start.o
 .rel.text.slre_compile
                0x000000008785a404        0x8 arch/arm/cpu/armv7/start.o
 .rel.text.strtok
                0x000000008785a40c        0x8 arch/arm/cpu/armv7/start.o
 .rel.text.string
                0x000000008785a414        0x8 arch/arm/cpu/armv7/start.o
 .rel.text.number
                0x000000008785a41c        0x8 arch/arm/cpu/armv7/start.o
 .rel.text.vsnprintf_internal
                0x000000008785a424       0x10 arch/arm/cpu/armv7/start.o
 .rel.text.simple_itoa
                0x000000008785a434        0x8 arch/arm/cpu/armv7/start.o
 .rel.text.simple_strtoul
                0x000000008785a43c        0x8 arch/arm/cpu/armv7/start.o
 .rel.text.simple_strtoull
                0x000000008785a444        0x8 arch/arm/cpu/armv7/start.o
 .rel.text.trailing_strtoln
                0x000000008785a44c        0x8 arch/arm/cpu/armv7/start.o
 .rel.rodata.fdt_errtable
                0x000000008785a454       0x58 arch/arm/cpu/armv7/start.o
 .rel.text.arp_init
                0x000000008785a4ac       0x30 arch/arm/cpu/armv7/start.o
 .rel.text.arp_raw_request
                0x000000008785a4dc       0x18 arch/arm/cpu/armv7/start.o
 .rel.text.arp_request
                0x000000008785a4f4       0x38 arch/arm/cpu/armv7/start.o
 .rel.text.arp_timeout_check
                0x000000008785a52c       0x28 arch/arm/cpu/armv7/start.o
 .rel.text.arp_receive
                0x000000008785a554       0x40 arch/arm/cpu/armv7/start.o
 .rel.text.dhcp_process_options
                0x000000008785a594       0x68 arch/arm/cpu/armv7/start.o
 .rel.text.dhcp_packet_process_options
                0x000000008785a5fc        0x8 arch/arm/cpu/armv7/start.o
 .rel.text.dhcp_handler
                0x000000008785a604       0x90 arch/arm/cpu/armv7/start.o
 .rel.text.bootp_reset
                0x000000008785a694       0x20 arch/arm/cpu/armv7/start.o
 .rel.text.bootp_request
                0x000000008785a6b4       0x78 arch/arm/cpu/armv7/start.o
 .rel.text.bootp_timeout_handler
                0x000000008785a72c       0x28 arch/arm/cpu/armv7/start.o
 .rel.text.on_ethaddr
                0x000000008785a754        0x8 arch/arm/cpu/armv7/start.o
 .rel.text.eth_set_current_to_next
                0x000000008785a75c        0x8 arch/arm/cpu/armv7/start.o
 .rel.text.eth_set_dev
                0x000000008785a764        0x8 arch/arm/cpu/armv7/start.o
 .rel.text.eth_get_dev_by_name
                0x000000008785a76c       0x28 arch/arm/cpu/armv7/start.o
 .rel.text.eth_get_dev_by_index
                0x000000008785a794        0x8 arch/arm/cpu/armv7/start.o
 .rel.text.eth_get_dev_index
                0x000000008785a79c        0x8 arch/arm/cpu/armv7/start.o
 .rel.text.eth_write_hwaddr
                0x000000008785a7a4       0x30 arch/arm/cpu/armv7/start.o
 .rel.text.eth_register
                0x000000008785a7d4       0x18 arch/arm/cpu/armv7/start.o
 .rel.text.eth_unregister
                0x000000008785a7ec       0x10 arch/arm/cpu/armv7/start.o
 .rel.text.eth_initialize
                0x000000008785a7fc       0x78 arch/arm/cpu/armv7/start.o
 .rel.text.eth_init
                0x000000008785a874       0x10 arch/arm/cpu/armv7/start.o
 .rel.text.eth_halt
                0x000000008785a884        0x8 arch/arm/cpu/armv7/start.o
 .rel.text.eth_send
                0x000000008785a88c        0x8 arch/arm/cpu/armv7/start.o
 .rel.text.eth_rx
                0x000000008785a894        0x8 arch/arm/cpu/armv7/start.o
 .rel.text.eth_setenv_enetaddr
                0x000000008785a89c        0x8 arch/arm/cpu/armv7/start.o
 .rel.text.eth_getenv_enetaddr_by_index
                0x000000008785a8a4       0x10 arch/arm/cpu/armv7/start.o
 .rel.text.eth_setenv_enetaddr_by_index
                0x000000008785a8b4       0x10 arch/arm/cpu/armv7/start.o
 .rel.text.eth_mac_skip
                0x000000008785a8c4       0x10 arch/arm/cpu/armv7/start.o
 .rel.text.eth_get_name
                0x000000008785a8d4       0x10 arch/arm/cpu/armv7/start.o
 .rel.text.eth_current_changed
                0x000000008785a8e4       0x20 arch/arm/cpu/armv7/start.o
 .rel.text.eth_try_another
                0x000000008785a904       0x28 arch/arm/cpu/armv7/start.o
 .rel.text.eth_set_current
                0x000000008785a92c       0x20 arch/arm/cpu/armv7/start.o
 .rel.text.net_clear_handlers
                0x000000008785a94c       0x20 arch/arm/cpu/armv7/start.o
 .rel.text.start_again_timeout_handler
                0x000000008785a96c        0x8 arch/arm/cpu/armv7/start.o
 .rel.text.on_ipaddr
                0x000000008785a974        0x8 arch/arm/cpu/armv7/start.o
 .rel.text.on_gatewayip
                0x000000008785a97c        0x8 arch/arm/cpu/armv7/start.o
 .rel.text.on_netmask
                0x000000008785a984        0x8 arch/arm/cpu/armv7/start.o
 .rel.text.on_serverip
                0x000000008785a98c        0x8 arch/arm/cpu/armv7/start.o
 .rel.text.net_init_loop
                0x000000008785a994       0x10 arch/arm/cpu/armv7/start.o
 .rel.text.net_auto_load
                0x000000008785a9a4       0x18 arch/arm/cpu/armv7/start.o
 .rel.text.net_init
                0x000000008785a9bc       0x20 arch/arm/cpu/armv7/start.o
 .rel.text.net_start_again
                0x000000008785a9dc       0x78 arch/arm/cpu/armv7/start.o
 .rel.text.net_loop
                0x000000008785aa54      0x180 arch/arm/cpu/armv7/start.o
 .rel.text.net_set_udp_handler
                0x000000008785abd4       0x10 arch/arm/cpu/armv7/start.o
 .rel.text.net_get_arp_handler
                0x000000008785abe4        0x8 arch/arm/cpu/armv7/start.o
 .rel.text.net_set_timeout_handler
                0x000000008785abec       0x18 arch/arm/cpu/armv7/start.o
 .rel.text.net_process_received_packet
                0x000000008785ac04       0x38 arch/arm/cpu/armv7/start.o
 .rel.text.net_eth_hdr_size
                0x000000008785ac3c        0x8 arch/arm/cpu/armv7/start.o
 .rel.text.net_set_ether
                0x000000008785ac44       0x10 arch/arm/cpu/armv7/start.o
 .rel.text.net_update_ether
                0x000000008785ac54        0x8 arch/arm/cpu/armv7/start.o
 .rel.text.net_set_ip_header
                0x000000008785ac5c        0x8 arch/arm/cpu/armv7/start.o
 .rel.text.net_set_udp_header
                0x000000008785ac64        0x8 arch/arm/cpu/armv7/start.o
 .rel.text.net_send_udp_packet
                0x000000008785ac6c       0x40 arch/arm/cpu/armv7/start.o
 .rel.text.on_bootfile
                0x000000008785acac        0x8 arch/arm/cpu/armv7/start.o
 .rel.text.ip_to_string
                0x000000008785acb4        0x8 arch/arm/cpu/armv7/start.o
 .rel.text.on_nvlan
                0x000000008785acbc        0x8 arch/arm/cpu/armv7/start.o
 .rel.text.on_vlan
                0x000000008785acc4        0x8 arch/arm/cpu/armv7/start.o
 .rel.text.rpc_lookup_reply
                0x000000008785accc       0x18 arch/arm/cpu/armv7/start.o
 .rel.text.nfs_mount_reply
                0x000000008785ace4       0x18 arch/arm/cpu/armv7/start.o
 .rel.text.nfs_umountall_reply
                0x000000008785acfc       0x18 arch/arm/cpu/armv7/start.o
 .rel.text.nfs_lookup_reply
                0x000000008785ad14       0x10 arch/arm/cpu/armv7/start.o
 .rel.text.nfs_readlink_reply
                0x000000008785ad24       0x18 arch/arm/cpu/armv7/start.o
 .rel.text.rpc_add_credentials
                0x000000008785ad3c        0x8 arch/arm/cpu/armv7/start.o
 .rel.text.rpc_req
                0x000000008785ad44       0x38 arch/arm/cpu/armv7/start.o
 .rel.text.nfs_umountall_req
                0x000000008785ad7c       0x10 arch/arm/cpu/armv7/start.o
 .rel.text.nfs_lookup_req
                0x000000008785ad8c        0x8 arch/arm/cpu/armv7/start.o
 .rel.text.nfs_read_req
                0x000000008785ad94        0x8 arch/arm/cpu/armv7/start.o
 .rel.text.nfs_readlink_req
                0x000000008785ad9c        0x8 arch/arm/cpu/armv7/start.o
 .rel.text.nfs_read_reply.isra.0
                0x000000008785ada4       0x28 arch/arm/cpu/armv7/start.o
 .rel.text.nfs_send
                0x000000008785adcc       0x60 arch/arm/cpu/armv7/start.o
 .rel.text.nfs_handler
                0x000000008785ae2c       0xa8 arch/arm/cpu/armv7/start.o
 .rel.text.nfs_timeout_handler
                0x000000008785aed4       0x20 arch/arm/cpu/armv7/start.o
 .rel.text.nfs_start
                0x000000008785aef4       0xe0 arch/arm/cpu/armv7/start.o
 .rel.text.ping_timeout_handler
                0x000000008785afd4        0x8 arch/arm/cpu/armv7/start.o
 .rel.text.ping_start
                0x000000008785afdc       0x58 arch/arm/cpu/armv7/start.o
 .rel.text.ping_receive
                0x000000008785b034       0x18 arch/arm/cpu/armv7/start.o
 .rel.text.tftp_send
                0x000000008785b04c       0xb8 arch/arm/cpu/armv7/start.o
 .rel.text.tftp_handler
                0x000000008785b104       0xd0 arch/arm/cpu/armv7/start.o
 .rel.text.tftp_timeout_handler
                0x000000008785b1d4       0x40 arch/arm/cpu/armv7/start.o
 .rel.text.tftp_start
                0x000000008785b214      0x140 arch/arm/cpu/armv7/start.o
 .rel.u_boot_list_2_env_clbk_2_ethaddr
                0x000000008785b354       0x10 arch/arm/cpu/armv7/start.o
 .rel.u_boot_list_2_env_clbk_2_bootfile
                0x000000008785b364       0x10 arch/arm/cpu/armv7/start.o
 .rel.u_boot_list_2_env_clbk_2_gatewayip
                0x000000008785b374       0x10 arch/arm/cpu/armv7/start.o
 .rel.u_boot_list_2_env_clbk_2_ipaddr
                0x000000008785b384       0x10 arch/arm/cpu/armv7/start.o
 .rel.u_boot_list_2_env_clbk_2_netmask
                0x000000008785b394       0x10 arch/arm/cpu/armv7/start.o
 .rel.u_boot_list_2_env_clbk_2_nvlan
                0x000000008785b3a4       0x10 arch/arm/cpu/armv7/start.o
 .rel.u_boot_list_2_env_clbk_2_serverip
                0x000000008785b3b4       0x10 arch/arm/cpu/armv7/start.o
 .rel.u_boot_list_2_env_clbk_2_vlan
                0x000000008785b3c4       0x10 arch/arm/cpu/armv7/start.o
 .rel.text.do_dm
                0x000000008785b3d4        0x8 arch/arm/cpu/armv7/start.o
 .rel.data.test_commands
                0x000000008785b3dc       0x60 arch/arm/cpu/armv7/start.o
 .rel.u_boot_list_2_cmd_2_dm
                0x000000008785b43c       0x20 arch/arm/cpu/armv7/start.o
 .rel.text.raise
                0x000000008785b45c        0x8 arch/arm/cpu/armv7/start.o

.rel_dyn_end    0x000000008785b464        0x0
 *(.__rel_dyn_end)
 .__rel_dyn_end
                0x000000008785b464        0x0 arch/arm/lib/built-in.o

.end            0x000000008785b464        0x0
 *(.__end)
 .__end         0x000000008785b464        0x0 arch/arm/lib/built-in.o
                0x000000008785b464                _image_binary_end = .
                0x000000008785c000                . = ALIGN (0x1000)

.mmutable
 *(.mmutable)

.bss_start      0x00000000878527c4        0x0
 *(.__bss_start)
 .__bss_start   0x00000000878527c4        0x0 arch/arm/lib/built-in.o
                0x00000000878527c4                __bss_start
                0x00000000878527c4                __bss_base = .

.bss            0x00000000878527c4    0x4b0f8
 *(.bss*)
 .bss.modes     0x00000000878527c4        0x8 arch/arm/imx-common/built-in.o
 .bss.params    0x00000000878527cc        0x4 arch/arm/lib/built-in.o
 .bss.images    0x00000000878527d0      0x130 cmd/built-in.o
                0x00000000878527d0                images
 .bss.data.8145
                0x0000000087852900      0x400 cmd/built-in.o
 .bss.working_fdt
                0x0000000087852d00        0x4 cmd/built-in.o
                0x0000000087852d00                working_fdt
 .bss.i2c_dp_last_addr
                0x0000000087852d04        0x4 cmd/built-in.o
 .bss.i2c_dp_last_alen
                0x0000000087852d08        0x4 cmd/built-in.o
 .bss.i2c_dp_last_chip
                0x0000000087852d0c        0x4 cmd/built-in.o
 .bss.i2c_mm_last_addr
                0x0000000087852d10        0x4 cmd/built-in.o
 .bss.i2c_mm_last_alen
                0x0000000087852d14        0x4 cmd/built-in.o
 .bss.i2c_mm_last_chip
                0x0000000087852d18        0x4 cmd/built-in.o
 .bss.a_b       0x0000000087852d1c       0x18 cmd/built-in.o
 .bss.bin_start_address
                0x0000000087852d34        0x4 cmd/built-in.o
 .bss.his_eol   0x0000000087852d38        0x1 cmd/built-in.o
 .bss.his_pad_char
                0x0000000087852d39        0x1 cmd/built-in.o
 *fill*         0x0000000087852d3a        0x2 
 .bss.his_pad_count
                0x0000000087852d3c        0x4 cmd/built-in.o
 .bss.his_quote
                0x0000000087852d40        0x1 cmd/built-in.o
 *fill*         0x0000000087852d41        0x3 
 .bss.k_data_escape
                0x0000000087852d44        0x4 cmd/built-in.o
 .bss.k_data_escape_saved
                0x0000000087852d48        0x4 cmd/built-in.o
 .bss.os_data_addr
                0x0000000087852d4c        0x4 cmd/built-in.o
 .bss.os_data_addr_saved
                0x0000000087852d50        0x4 cmd/built-in.o
 .bss.os_data_char
                0x0000000087852d54        0x4 cmd/built-in.o
 .bss.os_data_init
                0x0000000087852d58        0x4 cmd/built-in.o
 .bss.os_data_state
                0x0000000087852d5c        0x4 cmd/built-in.o
 .bss.os_data_state_saved
                0x0000000087852d60        0x4 cmd/built-in.o
 .bss.send_parms
                0x0000000087852d64       0x14 cmd/built-in.o
 .bss.send_ptr  0x0000000087852d78        0x4 cmd/built-in.o
 .bss.base_address
                0x0000000087852d7c        0x4 cmd/built-in.o
 .bss.dp_last_addr
                0x0000000087852d80        0x4 cmd/built-in.o
 .bss.dp_last_size
                0x0000000087852d84        0x4 cmd/built-in.o
 .bss.mm_last_addr
                0x0000000087852d88        0x4 cmd/built-in.o
 .bss.mm_last_size
                0x0000000087852d8c        0x4 cmd/built-in.o
 .bss.last_addr_hi
                0x0000000087852d90        0x8 cmd/built-in.o
 .bss.last_addr_lo
                0x0000000087852d98        0x8 cmd/built-in.o
 .bss.last_data
                0x0000000087852da0        0x8 cmd/built-in.o
 .bss.last_mask
                0x0000000087852da8        0x4 cmd/built-in.o
 .bss.last_op   0x0000000087852dac        0x4 cmd/built-in.o
 .bss.last_reg_hi
                0x0000000087852db0        0x8 cmd/built-in.o
 .bss.last_reg_lo
                0x0000000087852db8        0x8 cmd/built-in.o
 .bss.last_devad_hi
                0x0000000087852dc0        0x4 cmd/built-in.o
 .bss.last_devad_lo
                0x0000000087852dc4        0x4 cmd/built-in.o
 .bss.flash     0x0000000087852dc8        0x4 cmd/built-in.o
 .bss.buf.7758  0x0000000087852dcc       0x28 common/built-in.o
 .bss.do_repeat
                0x0000000087852df4        0x4 common/built-in.o
 .bss.flag_repeat
                0x0000000087852df8        0x4 common/built-in.o
 .bss.ifs       0x0000000087852dfc        0x4 common/built-in.o
 .bss.last_return_code
                0x0000000087852e00        0x4 common/built-in.o
 .bss.map       0x0000000087852e04      0x100 common/built-in.o
 .bss.the_command.7558
                0x0000000087852f04      0x201 common/built-in.o
 *fill*         0x0000000087853105        0x3 
 .bss.top_vars  0x0000000087853108        0x4 common/built-in.o
 .bss.stored_bootdelay
                0x000000008785310c        0x4 common/built-in.o
 .bss.monitor_flash_len
                0x0000000087853110        0x4 common/built-in.o
                0x0000000087853110                monitor_flash_len
 .bss.callback_list
                0x0000000087853114        0x4 common/built-in.o
 .bss.flags_list
                0x0000000087853118        0x4 common/built-in.o
 .bss.env_mmc_orig_hwpart
                0x000000008785311c        0x1 common/built-in.o
 *fill*         0x000000008785311d        0x3 
 .bss.current_mii
                0x0000000087853120        0x4 common/built-in.o
 .bss.mii_devs  0x0000000087853124        0x8 common/built-in.o
 .bss.asynch_allowed
                0x000000008785312c        0x4 common/built-in.o
 .bss.dev_index
                0x0000000087853130        0x4 common/built-in.o
 *fill*         0x0000000087853134        0xc 
 .bss.usb_dev   0x0000000087853140    0x13000 common/built-in.o
 .bss.usb_started
                0x0000000087866140        0x1 common/built-in.o
                0x0000000087866140                usb_started
 *fill*         0x0000000087866141        0x3 
 .bss.hub_dev   0x0000000087866144      0x100 common/built-in.o
 .bss.usb_hub_index
                0x0000000087866244        0x4 common/built-in.o
 .bss.CBWTag    0x0000000087866248        0x4 common/built-in.o
 *fill*         0x000000008786624c       0x34 
 .bss.usb_ccb   0x0000000087866280       0xc0 common/built-in.o
 .bss.usb_dev_desc
                0x0000000087866340      0x32c common/built-in.o
 .bss.usb_max_devs
                0x000000008786666c        0x4 common/built-in.o
 .bss.usb_stor  0x0000000087866670      0x16c common/built-in.o
 .bss.ctrlc_disabled
                0x00000000878667dc        0x4 common/built-in.o
 .bss.ctrlc_was_pressed
                0x00000000878667e0        0x4 common/built-in.o
 .bss.current_mallinfo
                0x00000000878667e4       0x28 common/built-in.o
 .bss.max_sbrked_mem
                0x000000008786680c        0x4 common/built-in.o
 .bss.max_total_mem
                0x0000000087866810        0x4 common/built-in.o
 .bss.mem_malloc_brk
                0x0000000087866814        0x4 common/built-in.o
                0x0000000087866814                mem_malloc_brk
 .bss.mem_malloc_end
                0x0000000087866818        0x4 common/built-in.o
                0x0000000087866818                mem_malloc_end
 .bss.mem_malloc_start
                0x000000008786681c        0x4 common/built-in.o
                0x000000008786681c                mem_malloc_start
 .bss.top_pad   0x0000000087866820        0x4 common/built-in.o
 .bss.devs      0x0000000087866824       0x4c common/built-in.o
 .bss.stdio_devices
                0x0000000087866870        0xc common/built-in.o
                0x0000000087866870                stdio_devices
 .bss.console_buffer
                0x000000008786687c      0x201 common/built-in.o
                0x000000008786687c                console_buffer
 *fill*         0x0000000087866a7d        0x3 
 .bss.hist_add_idx
                0x0000000087866a80        0x4 common/built-in.o
 .bss.hist_lines
                0x0000000087866a84     0x2814 common/built-in.o
 .bss.hist_list
                0x0000000087869298       0x50 common/built-in.o
 .bss.hist_max  0x00000000878692e8        0x4 common/built-in.o
 .bss.hist_num  0x00000000878692ec        0x4 common/built-in.o
 .bss.initted.7406
                0x00000000878692f0        0x4 common/built-in.o
 .bss.tmp_buf   0x00000000878692f4      0x200 common/built-in.o
 .bss.tmp_buf.7315
                0x00000000878694f4      0x200 common/built-in.o
 .bss.xyz       0x00000000878696f4      0x434 common/built-in.o
 .bss.bgx       0x0000000087869b28        0x4 drivers/built-in.o
 .bss.cfb_do_flush_cache
                0x0000000087869b2c        0x4 drivers/built-in.o
 .bss.console_col
                0x0000000087869b30        0x4 drivers/built-in.o
 .bss.console_row
                0x0000000087869b34        0x4 drivers/built-in.o
 .bss.cursor_state
                0x0000000087869b38        0x4 drivers/built-in.o
 .bss.eorx      0x0000000087869b3c        0x4 drivers/built-in.o
 .bss.fgx       0x0000000087869b40        0x4 drivers/built-in.o
 .bss.old_col   0x0000000087869b44        0x4 drivers/built-in.o
 .bss.old_row   0x0000000087869b48        0x4 drivers/built-in.o
 .bss.pGD       0x0000000087869b4c        0x4 drivers/built-in.o
 .bss.video_console_address
                0x0000000087869b50        0x4 drivers/built-in.o
 .bss.video_fb_address
                0x0000000087869b54        0x4 drivers/built-in.o
 .bss.depth     0x0000000087869b58        0x4 drivers/built-in.o
 .bss.fbmode    0x0000000087869b5c       0x38 drivers/built-in.o
 .bss.panel     0x0000000087869b94       0x90 drivers/built-in.o
 .bss.setup     0x0000000087869c24        0x4 drivers/built-in.o
 .bss.initialized.9537
                0x0000000087869c28        0x4 drivers/mmc/built-in.o
 .bss.mmc_devices
                0x0000000087869c2c        0x8 drivers/mmc/built-in.o
 .bss.lan8720_flag.9398
                0x0000000087869c34        0x4 drivers/net/phy/built-in.o
 .bss.serial_current
                0x0000000087869c38        0x4 drivers/serial/built-in.o
 .bss.serial_devices
                0x0000000087869c3c        0x4 drivers/serial/built-in.o
 .bss.addr.7916
                0x0000000087869c40        0x4 drivers/spi/built-in.o
 .bss.opcode.7915
                0x0000000087869c44        0x1 drivers/spi/built-in.o
 *fill*         0x0000000087869c45        0x3 
 .bss.usb_eth   0x0000000087869c48      0x1a4 drivers/usb/eth/built-in.o
 .bss.usb_max_eth_dev
                0x0000000087869dec        0x4 drivers/usb/eth/built-in.o
 .bss.curr_eth_dev
                0x0000000087869df0        0x4 drivers/usb/eth/built-in.o
 *fill*         0x0000000087869df4        0xc 
 .bss.ehcic     0x0000000087869e00      0x280 drivers/usb/host/built-in.o
 .bss.fs_dev_desc
                0x000000008786a080        0x4 fs/built-in.o
 .bss.fs_partition
                0x000000008786a084       0x50 fs/built-in.o
 .bss.fs_type   0x000000008786a0d4        0x4 fs/built-in.o
 .bss.ext_fs    0x000000008786a0d8       0x48 fs/built-in.o
                0x000000008786a0d8                ext_fs
 .bss.ext4fs_file
                0x000000008786a120        0x4 fs/built-in.o
                0x000000008786a120                ext4fs_file
 .bss.ext4fs_indir1_block
                0x000000008786a124        0x4 fs/built-in.o
                0x000000008786a124                ext4fs_indir1_block
 .bss.ext4fs_indir1_size
                0x000000008786a128        0x4 fs/built-in.o
                0x000000008786a128                ext4fs_indir1_size
 .bss.ext4fs_indir2_block
                0x000000008786a12c        0x4 fs/built-in.o
                0x000000008786a12c                ext4fs_indir2_block
 .bss.ext4fs_indir2_size
                0x000000008786a130        0x4 fs/built-in.o
                0x000000008786a130                ext4fs_indir2_size
 .bss.ext4fs_indir3_block
                0x000000008786a134        0x4 fs/built-in.o
                0x000000008786a134                ext4fs_indir3_block
 .bss.ext4fs_indir3_size
                0x000000008786a138        0x4 fs/built-in.o
                0x000000008786a138                ext4fs_indir3_size
 .bss.ext4fs_root
                0x000000008786a13c        0x4 fs/built-in.o
                0x000000008786a13c                ext4fs_root
 .bss.g_parent_inode
                0x000000008786a140        0x4 fs/built-in.o
                0x000000008786a140                g_parent_inode
 .bss.symlinknest
                0x000000008786a144        0x4 fs/built-in.o
 .bss.ext4fs_block_dev_desc
                0x000000008786a148        0x4 fs/built-in.o
 .bss.part_info
                0x000000008786a14c        0x4 fs/built-in.o
 .bss.part_offset
                0x000000008786a150        0x4 fs/built-in.o
                0x000000008786a150                part_offset
 .bss.dirty_block_ptr
                0x000000008786a154      0x190 fs/built-in.o
                0x000000008786a154                dirty_block_ptr
 .bss.gd_index  0x000000008786a2e4        0x4 fs/built-in.o
                0x000000008786a2e4                gd_index
 .bss.gindex    0x000000008786a2e8        0x4 fs/built-in.o
                0x000000008786a2e8                gindex
 .bss.journal_ptr
                0x000000008786a2ec      0x190 fs/built-in.o
                0x000000008786a2ec                journal_ptr
 .bss.jrnl_blk_idx
                0x000000008786a47c        0x4 fs/built-in.o
                0x000000008786a47c                jrnl_blk_idx
 .bss.prev_node
                0x000000008786a480        0x4 fs/built-in.o
 .bss.revk_blk_list
                0x000000008786a484        0x4 fs/built-in.o
 .bss.cur_dev   0x000000008786a488        0x4 fs/built-in.o
 .bss.cur_part_info
                0x000000008786a48c       0x50 fs/built-in.o
 .bss.dir_curclust
                0x000000008786a4dc        0x4 fs/built-in.o
 *fill*         0x000000008786a4e0       0x20 
 .bss.do_fat_read_at_block
                0x000000008786a500    0x10000 fs/built-in.o
                0x000000008786a500                do_fat_read_at_block
 .bss.empty_dentptr
                0x000000008787a500        0x4 fs/built-in.o
 *fill*         0x000000008787a504       0x3c 
 .bss.get_contents_vfatname_block
                0x000000008787a540    0x10000 fs/built-in.o
                0x000000008787a540                get_contents_vfatname_block
 .bss.get_dentfromdir_block
                0x000000008788a540    0x10000 fs/built-in.o
                0x000000008788a540                get_dentfromdir_block
 .bss.num_of_fats
                0x000000008789a540        0x1 fs/built-in.o
 *fill*         0x000000008789a541        0x3 
 .bss.total_sector
                0x000000008789a544        0x4 fs/built-in.o
 .bss.errno     0x000000008789a548        0x4 lib/built-in.o
                0x000000008789a548                errno
 .bss.___strtok
                0x000000008789a54c        0x4 lib/built-in.o
                0x000000008789a54c                ___strtok
 .bss.local.7496
                0x000000008789a550       0x16 lib/built-in.o
 *fill*         0x000000008789a566        0x2 
 .bss.arp_tx_packet
                0x000000008789a568        0x4 net/built-in.o
 .bss.arp_tx_packet_buf
                0x000000008789a56c      0x640 net/built-in.o
 .bss.arp_wait_packet_ethaddr
                0x000000008789abac        0x4 net/built-in.o
                0x000000008789abac                arp_wait_packet_ethaddr
 .bss.arp_wait_timer_start
                0x000000008789abb0        0x4 net/built-in.o
                0x000000008789abb0                arp_wait_timer_start
 .bss.arp_wait_try
                0x000000008789abb4        0x4 net/built-in.o
                0x000000008789abb4                arp_wait_try
 .bss.arp_wait_tx_packet_size
                0x000000008789abb8        0x4 net/built-in.o
                0x000000008789abb8                arp_wait_tx_packet_size
 .bss.net_arp_wait_packet_ip
                0x000000008789abbc        0x4 net/built-in.o
                0x000000008789abbc                net_arp_wait_packet_ip
 .bss.net_arp_wait_reply_ip
                0x000000008789abc0        0x4 net/built-in.o
 .bss.bootp_ids
                0x000000008789abc4       0x10 net/built-in.o
                0x000000008789abc4                bootp_ids
 .bss.bootp_num_ids
                0x000000008789abd4        0x4 net/built-in.o
                0x000000008789abd4                bootp_num_ids
 .bss.bootp_start
                0x000000008789abd8        0x4 net/built-in.o
                0x000000008789abd8                bootp_start
 .bss.bootp_timeout
                0x000000008789abdc        0x4 net/built-in.o
                0x000000008789abdc                bootp_timeout
 .bss.bootp_try
                0x000000008789abe0        0x4 net/built-in.o
                0x000000008789abe0                bootp_try
 .bss.dhcp_leasetime
                0x000000008789abe4        0x4 net/built-in.o
 .bss.dhcp_option_overload
                0x000000008789abe8        0x1 net/built-in.o
 *fill*         0x000000008789abe9        0x3 
 .bss.dhcp_server_ip
                0x000000008789abec        0x4 net/built-in.o
 .bss.dhcp_state
                0x000000008789abf0        0x4 net/built-in.o
 .bss.net_hostname
                0x000000008789abf4       0x20 net/built-in.o
                0x000000008789abf4                net_hostname
 .bss.net_nis_domain
                0x000000008789ac14       0x20 net/built-in.o
                0x000000008789ac14                net_nis_domain
 .bss.net_root_path
                0x000000008789ac34       0x40 net/built-in.o
                0x000000008789ac34                net_root_path
 .bss.time_taken_max
                0x000000008789ac74        0x4 net/built-in.o
 .bss.eth_current
                0x000000008789ac78        0x4 net/built-in.o
                0x000000008789ac78                eth_current
 .bss.eth_devices
                0x000000008789ac7c        0x4 net/built-in.o
 .bss.index.8052
                0x000000008789ac80        0x4 net/built-in.o
 .bss.act.9410  0x000000008789ac84        0x4 net/built-in.o
 .bss.env_changed_id.9411
                0x000000008789ac88        0x4 net/built-in.o
 .bss.first_failed.9405
                0x000000008789ac8c        0x4 net/built-in.o
 .bss.arp_packet_handler
                0x000000008789ac90        0x4 net/built-in.o
 .bss.net_boot_file_expected_size_in_blocks
                0x000000008789ac94        0x4 net/built-in.o
                0x000000008789ac94                net_boot_file_expected_size_in_blocks
 .bss.net_boot_file_name
                0x000000008789ac98      0x400 net/built-in.o
                0x000000008789ac98                net_boot_file_name
 .bss.net_boot_file_size
                0x000000008789b098        0x4 net/built-in.o
                0x000000008789b098                net_boot_file_size
 .bss.net_dev_exists
                0x000000008789b09c        0x4 net/built-in.o
 .bss.net_dns_server
                0x000000008789b0a0        0x4 net/built-in.o
                0x000000008789b0a0                net_dns_server
 .bss.net_ethaddr
                0x000000008789b0a4        0x6 net/built-in.o
                0x000000008789b0a4                net_ethaddr
 *fill*         0x000000008789b0aa        0x2 
 .bss.net_gateway
                0x000000008789b0ac        0x4 net/built-in.o
                0x000000008789b0ac                net_gateway
 .bss.net_ip    0x000000008789b0b0        0x4 net/built-in.o
                0x000000008789b0b0                net_ip
 .bss.net_ip_id
                0x000000008789b0b4        0x4 net/built-in.o
 .bss.net_netmask
                0x000000008789b0b8        0x4 net/built-in.o
                0x000000008789b0b8                net_netmask
 .bss.net_null_ethaddr
                0x000000008789b0bc        0x6 net/built-in.o
                0x000000008789b0bc                net_null_ethaddr
 .bss.net_pkt_buf
                0x000000008789b0c2     0x1e40 net/built-in.o
 *fill*         0x000000008789cf02        0x2 
 .bss.net_restart_wrap
                0x000000008789cf04        0x4 net/built-in.o
                0x000000008789cf04                net_restart_wrap
 .bss.net_restarted
                0x000000008789cf08        0x4 net/built-in.o
 .bss.net_rx_packet
                0x000000008789cf0c        0x4 net/built-in.o
                0x000000008789cf0c                net_rx_packet
 .bss.net_rx_packet_len
                0x000000008789cf10        0x4 net/built-in.o
                0x000000008789cf10                net_rx_packet_len
 .bss.net_rx_packets
                0x000000008789cf14       0x10 net/built-in.o
                0x000000008789cf14                net_rx_packets
 .bss.net_server_ethaddr
                0x000000008789cf24        0x6 net/built-in.o
                0x000000008789cf24                net_server_ethaddr
 *fill*         0x000000008789cf2a        0x2 
 .bss.net_server_ip
                0x000000008789cf2c        0x4 net/built-in.o
                0x000000008789cf2c                net_server_ip
 .bss.net_state
                0x000000008789cf30        0x4 net/built-in.o
                0x000000008789cf30                net_state
 .bss.net_try_count
                0x000000008789cf34        0x4 net/built-in.o
 .bss.net_tx_packet
                0x000000008789cf38        0x4 net/built-in.o
                0x000000008789cf38                net_tx_packet
 .bss.time_delta
                0x000000008789cf3c        0x4 net/built-in.o
 .bss.time_handler
                0x000000008789cf40        0x4 net/built-in.o
 .bss.time_start
                0x000000008789cf44        0x8 net/built-in.o
 .bss.udp_packet_handler
                0x000000008789cf4c        0x4 net/built-in.o
 .bss.default_filename
                0x000000008789cf50       0x4d net/built-in.o
 .bss.dirfh     0x000000008789cf9d       0x20 net/built-in.o
 .bss.filefh    0x000000008789cfbd       0x20 net/built-in.o
 *fill*         0x000000008789cfdd        0x3 
 .bss.fs_mounted
                0x000000008789cfe0        0x4 net/built-in.o
 .bss.nfs_download_state
                0x000000008789cfe4        0x4 net/built-in.o
 .bss.nfs_filename
                0x000000008789cfe8        0x4 net/built-in.o
 .bss.nfs_len   0x000000008789cfec        0x4 net/built-in.o
 .bss.nfs_our_port
                0x000000008789cff0        0x4 net/built-in.o
 .bss.nfs_path  0x000000008789cff4        0x4 net/built-in.o
 .bss.nfs_path_buff
                0x000000008789cff8      0x800 net/built-in.o
 .bss.nfs_server_ip
                0x000000008789d7f8        0x4 net/built-in.o
 .bss.nfs_server_mount_port
                0x000000008789d7fc        0x4 net/built-in.o
 .bss.nfs_server_port
                0x000000008789d800        0x4 net/built-in.o
 .bss.nfs_state
                0x000000008789d804        0x4 net/built-in.o
 .bss.nfs_timeout_count
                0x000000008789d808        0x4 net/built-in.o
 .bss.rpc_id    0x000000008789d80c        0x4 net/built-in.o
 .bss.net_ping_ip
                0x000000008789d810        0x4 net/built-in.o
                0x000000008789d810                net_ping_ip
 .bss.ping_seq_number
                0x000000008789d814        0x2 net/built-in.o
 *fill*         0x000000008789d816        0x2 
 .bss.tftp_block_wrap
                0x000000008789d818        0x4 net/built-in.o
 .bss.tftp_block_wrap_offset
                0x000000008789d81c        0x4 net/built-in.o
 .bss.tftp_cur_block
                0x000000008789d820        0x4 net/built-in.o
 .bss.tftp_filename
                0x000000008789d824       0x80 net/built-in.o
 .bss.tftp_our_port
                0x000000008789d8a4        0x4 net/built-in.o
 .bss.tftp_prev_block
                0x000000008789d8a8        0x4 net/built-in.o
 .bss.tftp_remote_ip
                0x000000008789d8ac        0x4 net/built-in.o
 .bss.tftp_remote_port
                0x000000008789d8b0        0x4 net/built-in.o
 .bss.tftp_state
                0x000000008789d8b4        0x4 net/built-in.o
 .bss.timeout_count
                0x000000008789d8b8        0x4 net/built-in.o
                0x000000008789d8bc                . = ALIGN (0x4)
                0x000000008789d8bc                __bss_limit = .

.bss_end        0x000000008789d8bc        0x0
 *(.__bss_end)
 .__bss_end     0x000000008789d8bc        0x0 arch/arm/lib/built-in.o
                0x000000008789d8bc                __bss_end

.dynsym         0x000000008785b464       0x30
 *(.dynsym)
 .dynsym        0x000000008785b464       0x30 arch/arm/cpu/armv7/start.o

.dynbss         0x000000008785b494        0x0
 *(.dynbss)
 .dynbss        0x000000008785b494        0x0 arch/arm/cpu/armv7/start.o

.dynstr         0x000000008785b494        0x1
 *(.dynstr*)
 .dynstr        0x000000008785b494        0x1 arch/arm/cpu/armv7/start.o

.dynamic        0x000000008785b498       0x98
 *(.dynamic*)
 .dynamic       0x000000008785b498       0x98 arch/arm/cpu/armv7/start.o
                0x000000008785b498                _DYNAMIC

.plt            0x000000008785b530        0x0
 *(.plt*)
 .plt           0x000000008785b530        0x0 arch/arm/cpu/armv7/start.o

.interp         0x000000008785b530       0x11
 *(.interp*)
 .interp        0x000000008785b530       0x11 arch/arm/cpu/armv7/start.o

.gnu.hash       0x000000008785b544       0x18
 *(.gnu.hash)
 .gnu.hash      0x000000008785b544       0x18 arch/arm/cpu/armv7/start.o

.gnu            0x000000008785b55c        0x0
 *(.gnu*)
 .gnu.version_d
                0x000000008785b55c        0x0 arch/arm/cpu/armv7/start.o
 .gnu.version   0x000000008785b55c        0x0 arch/arm/cpu/armv7/start.o
 .gnu.version_r
                0x000000008785b55c        0x0 arch/arm/cpu/armv7/start.o

.ARM.exidx
 *(.ARM.exidx*)

.gnu.linkonce.armexidx
 *(.gnu.linkonce.armexidx.*)
LOAD arch/arm/cpu/armv7/start.o
START GROUP
LOAD arch/arm/cpu/built-in.o
LOAD arch/arm/cpu/armv7/built-in.o
LOAD arch/arm/imx-common/built-in.o
LOAD arch/arm/lib/built-in.o
LOAD board/freescale/common/built-in.o
LOAD board/freescale/mx6ullevk/built-in.o
LOAD cmd/built-in.o
LOAD common/built-in.o
LOAD disk/built-in.o
LOAD drivers/built-in.o
LOAD drivers/dma/built-in.o
LOAD drivers/gpio/built-in.o
LOAD drivers/i2c/built-in.o
LOAD drivers/mmc/built-in.o
LOAD drivers/mtd/built-in.o
LOAD drivers/mtd/onenand/built-in.o
LOAD drivers/mtd/spi/built-in.o
LOAD drivers/net/built-in.o
LOAD drivers/net/phy/built-in.o
LOAD drivers/pci/built-in.o
LOAD drivers/power/built-in.o
LOAD drivers/power/battery/built-in.o
LOAD drivers/power/fuel_gauge/built-in.o
LOAD drivers/power/mfd/built-in.o
LOAD drivers/power/pmic/built-in.o
LOAD drivers/power/regulator/built-in.o
LOAD drivers/serial/built-in.o
LOAD drivers/spi/built-in.o
LOAD drivers/usb/dwc3/built-in.o
LOAD drivers/usb/emul/built-in.o
LOAD drivers/usb/eth/built-in.o
LOAD drivers/usb/gadget/built-in.o
LOAD drivers/usb/gadget/udc/built-in.o
LOAD drivers/usb/host/built-in.o
LOAD drivers/usb/musb-new/built-in.o
LOAD drivers/usb/musb/built-in.o
LOAD drivers/usb/phy/built-in.o
LOAD drivers/usb/ulpi/built-in.o
LOAD fs/built-in.o
LOAD lib/built-in.o
LOAD net/built-in.o
LOAD test/built-in.o
LOAD test/dm/built-in.o
END GROUP
LOAD arch/arm/lib/eabi_compat.o
LOAD /usr/lib/gcc-cross/arm-linux-gnueabihf/7/libgcc.a
OUTPUT(u-boot elf32-littlearm)

.ARM.attributes
                0x0000000000000000       0x2b
 .ARM.attributes
                0x0000000000000000       0x1f arch/arm/cpu/armv7/start.o
 .ARM.attributes
                0x000000000000001f       0x2d arch/arm/cpu/armv7/built-in.o
 .ARM.attributes
                0x000000000000004c       0x2d arch/arm/imx-common/built-in.o
 .ARM.attributes
                0x0000000000000079       0x2b arch/arm/lib/built-in.o
 .ARM.attributes
                0x00000000000000a4       0x2d board/freescale/common/built-in.o
 .ARM.attributes
                0x00000000000000d1       0x2d board/freescale/mx6ullevk/built-in.o
 .ARM.attributes
                0x00000000000000fe       0x2f cmd/built-in.o
 .ARM.attributes
                0x000000000000012d       0x2f common/built-in.o
 .ARM.attributes
                0x000000000000015c       0x2d disk/built-in.o
 .ARM.attributes
                0x0000000000000189       0x2f drivers/built-in.o
 .ARM.attributes
                0x00000000000001b8       0x2d drivers/gpio/built-in.o
 .ARM.attributes
                0x00000000000001e5       0x2d drivers/i2c/built-in.o
 .ARM.attributes
                0x0000000000000212       0x2d drivers/mmc/built-in.o
 .ARM.attributes
                0x000000000000023f       0x2d drivers/mtd/built-in.o
 .ARM.attributes
                0x000000000000026c       0x2f drivers/mtd/spi/built-in.o
 .ARM.attributes
                0x000000000000029b       0x2d drivers/net/built-in.o
 .ARM.attributes
                0x00000000000002c8       0x2d drivers/net/phy/built-in.o
 .ARM.attributes
                0x00000000000002f5       0x2d drivers/power/built-in.o
 .ARM.attributes
                0x0000000000000322       0x2d drivers/serial/built-in.o
 .ARM.attributes
                0x000000000000034f       0x2d drivers/spi/built-in.o
 .ARM.attributes
                0x000000000000037c       0x2d drivers/usb/eth/built-in.o
 .ARM.attributes
                0x00000000000003a9       0x2d drivers/usb/host/built-in.o
 .ARM.attributes
                0x00000000000003d6       0x2d fs/built-in.o
 .ARM.attributes
                0x0000000000000403       0x2f lib/built-in.o
 .ARM.attributes
                0x0000000000000432       0x2d net/built-in.o
 .ARM.attributes
                0x000000000000045f       0x2d test/dm/built-in.o
 .ARM.attributes
                0x000000000000048c       0x2d arch/arm/lib/eabi_compat.o
 .ARM.attributes
                0x00000000000004b9       0x21 /usr/lib/gcc-cross/arm-linux-gnueabihf/7/libgcc.a(_udivsi3.o)
 .ARM.attributes
                0x00000000000004da       0x21 /usr/lib/gcc-cross/arm-linux-gnueabihf/7/libgcc.a(_divsi3.o)
 .ARM.attributes
                0x00000000000004fb       0x21 /usr/lib/gcc-cross/arm-linux-gnueabihf/7/libgcc.a(_dvmd_lnx.o)

.comment        0x0000000000000000       0x30
 .comment       0x0000000000000000       0x30 arch/arm/cpu/armv7/built-in.o
                                        0x126 (size before relaxing)
 .comment       0x0000000000000030      0x1ea arch/arm/imx-common/built-in.o
 .comment       0x0000000000000030      0x188 arch/arm/lib/built-in.o
 .comment       0x0000000000000030       0x31 board/freescale/common/built-in.o
 .comment       0x0000000000000030       0x31 board/freescale/mx6ullevk/built-in.o
 .comment       0x0000000000000030      0x715 cmd/built-in.o
 .comment       0x0000000000000030      0x715 common/built-in.o
 .comment       0x0000000000000030       0x62 disk/built-in.o
 .comment       0x0000000000000030      0x3a3 drivers/built-in.o
 .comment       0x0000000000000030       0x31 drivers/gpio/built-in.o
 .comment       0x0000000000000030       0x62 drivers/i2c/built-in.o
 .comment       0x0000000000000030       0x93 drivers/mmc/built-in.o
 .comment       0x0000000000000030       0x62 drivers/mtd/built-in.o
 .comment       0x0000000000000030       0xc4 drivers/mtd/spi/built-in.o
 .comment       0x0000000000000030       0x31 drivers/net/built-in.o
 .comment       0x0000000000000030       0x62 drivers/net/phy/built-in.o
 .comment       0x0000000000000030       0x62 drivers/power/built-in.o
 .comment       0x0000000000000030       0x62 drivers/serial/built-in.o
 .comment       0x0000000000000030       0x62 drivers/spi/built-in.o
 .comment       0x0000000000000030       0x62 drivers/usb/eth/built-in.o
 .comment       0x0000000000000030       0x62 drivers/usb/host/built-in.o
 .comment       0x0000000000000030      0x1b9 fs/built-in.o
 .comment       0x0000000000000030      0x746 lib/built-in.o
 .comment       0x0000000000000030      0x1b9 net/built-in.o
 .comment       0x0000000000000030       0x31 test/dm/built-in.o
 .comment       0x0000000000000030       0x31 arch/arm/lib/eabi_compat.o

.note.GNU-stack
                0x0000000000000000        0x0
 .note.GNU-stack
                0x0000000000000000        0x0 arch/arm/cpu/armv7/built-in.o
 .note.GNU-stack
                0x0000000000000000        0x0 arch/arm/imx-common/built-in.o
 .note.GNU-stack
                0x0000000000000000        0x0 arch/arm/lib/built-in.o
 .note.GNU-stack
                0x0000000000000000        0x0 board/freescale/common/built-in.o
 .note.GNU-stack
                0x0000000000000000        0x0 board/freescale/mx6ullevk/built-in.o
 .note.GNU-stack
                0x0000000000000000        0x0 cmd/built-in.o
 .note.GNU-stack
                0x0000000000000000        0x0 common/built-in.o
 .note.GNU-stack
                0x0000000000000000        0x0 disk/built-in.o
 .note.GNU-stack
                0x0000000000000000        0x0 drivers/built-in.o
 .note.GNU-stack
                0x0000000000000000        0x0 drivers/gpio/built-in.o
 .note.GNU-stack
                0x0000000000000000        0x0 drivers/i2c/built-in.o
 .note.GNU-stack
                0x0000000000000000        0x0 drivers/mmc/built-in.o
 .note.GNU-stack
                0x0000000000000000        0x0 drivers/mtd/built-in.o
 .note.GNU-stack
                0x0000000000000000        0x0 drivers/mtd/spi/built-in.o
 .note.GNU-stack
                0x0000000000000000        0x0 drivers/net/built-in.o
 .note.GNU-stack
                0x0000000000000000        0x0 drivers/net/phy/built-in.o
 .note.GNU-stack
                0x0000000000000000        0x0 drivers/power/built-in.o
 .note.GNU-stack
                0x0000000000000000        0x0 drivers/serial/built-in.o
 .note.GNU-stack
                0x0000000000000000        0x0 drivers/spi/built-in.o
 .note.GNU-stack
                0x0000000000000000        0x0 drivers/usb/eth/built-in.o
 .note.GNU-stack
                0x0000000000000000        0x0 drivers/usb/host/built-in.o
 .note.GNU-stack
                0x0000000000000000        0x0 fs/built-in.o
 .note.GNU-stack
                0x0000000000000000        0x0 lib/built-in.o
 .note.GNU-stack
                0x0000000000000000        0x0 net/built-in.o
 .note.GNU-stack
                0x0000000000000000        0x0 test/dm/built-in.o
 .note.GNU-stack
                0x0000000000000000        0x0 arch/arm/lib/eabi_compat.o
 .note.GNU-stack
                0x0000000000000000        0x0 /usr/lib/gcc-cross/arm-linux-gnueabihf/7/libgcc.a(_udivsi3.o)
 .note.GNU-stack
                0x0000000000000000        0x0 /usr/lib/gcc-cross/arm-linux-gnueabihf/7/libgcc.a(_divsi3.o)
 .note.GNU-stack
                0x0000000000000000        0x0 /usr/lib/gcc-cross/arm-linux-gnueabihf/7/libgcc.a(_dvmd_lnx.o)

.debug_line     0x0000000000000000    0x266b4
 .debug_line    0x0000000000000000       0x87 arch/arm/cpu/armv7/start.o
 .debug_line    0x0000000000000087     0x1525 arch/arm/cpu/armv7/built-in.o
 .debug_line    0x00000000000015ac     0x1388 arch/arm/imx-common/built-in.o
 .debug_line    0x0000000000002934      0xfa8 arch/arm/lib/built-in.o
 .debug_line    0x00000000000038dc      0x181 board/freescale/common/built-in.o
 .debug_line    0x0000000000003a5d      0x51a board/freescale/mx6ullevk/built-in.o
 .debug_line    0x0000000000003f77     0x5c24 cmd/built-in.o
 .debug_line    0x0000000000009b9b     0x811b common/built-in.o
 .debug_line    0x0000000000011cb6      0x6a0 disk/built-in.o
 .debug_line    0x0000000000012356     0x3684 drivers/built-in.o
 .debug_line    0x00000000000159da      0x230 drivers/gpio/built-in.o
 .debug_line    0x0000000000015c0a      0x700 drivers/i2c/built-in.o
 .debug_line    0x000000000001630a     0x1152 drivers/mmc/built-in.o
 .debug_line    0x000000000001745c      0x809 drivers/mtd/built-in.o
 .debug_line    0x0000000000017c65      0xafe drivers/mtd/spi/built-in.o
 .debug_line    0x0000000000018763      0x5cd drivers/net/built-in.o
 .debug_line    0x0000000000018d30      0x892 drivers/net/phy/built-in.o
 .debug_line    0x00000000000195c2      0x43f drivers/power/built-in.o
 .debug_line    0x0000000000019a01      0x637 drivers/serial/built-in.o
 .debug_line    0x000000000001a038      0x4c8 drivers/spi/built-in.o
 .debug_line    0x000000000001a500      0x680 drivers/usb/eth/built-in.o
 .debug_line    0x000000000001ab80      0xb38 drivers/usb/host/built-in.o
 .debug_line    0x000000000001b6b8     0x33e9 fs/built-in.o
 .debug_line    0x000000000001eaa1     0x571e lib/built-in.o
 .debug_line    0x00000000000241bf     0x21d1 net/built-in.o
 .debug_line    0x0000000000026390      0x1bd test/dm/built-in.o
 .debug_line    0x000000000002654d      0x167 arch/arm/lib/eabi_compat.o

.debug_info     0x0000000000000000   0x11f438
 .debug_info    0x0000000000000000       0x26 arch/arm/cpu/armv7/start.o
 .debug_info    0x0000000000000026     0xae16 arch/arm/cpu/armv7/built-in.o
 .debug_info    0x000000000000ae3c     0x9ff7 arch/arm/imx-common/built-in.o
 .debug_info    0x0000000000014e33     0x72a7 arch/arm/lib/built-in.o
 .debug_info    0x000000000001c0da      0xbc0 board/freescale/common/built-in.o
 .debug_info    0x000000000001cc9a     0x5e0b board/freescale/mx6ullevk/built-in.o
 .debug_info    0x0000000000022aa5    0x31608 cmd/built-in.o
 .debug_info    0x00000000000540ad    0x3c7e7 common/built-in.o
 .debug_info    0x0000000000090894     0x2f83 disk/built-in.o
 .debug_info    0x0000000000093817    0x1aca8 drivers/built-in.o
 .debug_info    0x00000000000ae4bf      0xeb1 drivers/gpio/built-in.o
 .debug_info    0x00000000000af370     0x3f9e drivers/i2c/built-in.o
 .debug_info    0x00000000000b330e     0x6d41 drivers/mmc/built-in.o
 .debug_info    0x00000000000ba04f     0x3a0a drivers/mtd/built-in.o
 .debug_info    0x00000000000bda59     0x57b4 drivers/mtd/spi/built-in.o
 .debug_info    0x00000000000c320d     0x378e drivers/net/built-in.o
 .debug_info    0x00000000000c699b     0x3fa7 drivers/net/phy/built-in.o
 .debug_info    0x00000000000ca942     0x2658 drivers/power/built-in.o
 .debug_info    0x00000000000ccf9a     0x2c61 drivers/serial/built-in.o
 .debug_info    0x00000000000cfbfb     0x2c3c drivers/spi/built-in.o
 .debug_info    0x00000000000d2837     0x39cf drivers/usb/eth/built-in.o
 .debug_info    0x00000000000d6206     0x56d0 drivers/usb/host/built-in.o
 .debug_info    0x00000000000db8d6    0x16276 fs/built-in.o
 .debug_info    0x00000000000f1b4c    0x1d3b4 lib/built-in.o
 .debug_info    0x000000000010ef00     0xebd3 net/built-in.o
 .debug_info    0x000000000011dad3      0xe1a test/dm/built-in.o
 .debug_info    0x000000000011e8ed      0xb4b arch/arm/lib/eabi_compat.o

.debug_abbrev   0x0000000000000000    0x2a818
 .debug_abbrev  0x0000000000000000       0x14 arch/arm/cpu/armv7/start.o
 .debug_abbrev  0x0000000000000014     0x15a2 arch/arm/cpu/armv7/built-in.o
 .debug_abbrev  0x00000000000015b6     0x1b50 arch/arm/imx-common/built-in.o
 .debug_abbrev  0x0000000000003106     0x1437 arch/arm/lib/built-in.o
 .debug_abbrev  0x000000000000453d      0x2a6 board/freescale/common/built-in.o
 .debug_abbrev  0x00000000000047e3      0x565 board/freescale/mx6ullevk/built-in.o
 .debug_abbrev  0x0000000000004d48     0x7812 cmd/built-in.o
 .debug_abbrev  0x000000000000c55a     0x8c14 common/built-in.o
 .debug_abbrev  0x000000000001516e      0x8a6 disk/built-in.o
 .debug_abbrev  0x0000000000015a14     0x3dfd drivers/built-in.o
 .debug_abbrev  0x0000000000019811      0x2e5 drivers/gpio/built-in.o
 .debug_abbrev  0x0000000000019af6      0x9ee drivers/i2c/built-in.o
 .debug_abbrev  0x000000000001a4e4      0xeac drivers/mmc/built-in.o
 .debug_abbrev  0x000000000001b390      0x7cf drivers/mtd/built-in.o
 .debug_abbrev  0x000000000001bb5f      0xcec drivers/mtd/spi/built-in.o
 .debug_abbrev  0x000000000001c84b      0x5a1 drivers/net/built-in.o
 .debug_abbrev  0x000000000001cdec      0x82b drivers/net/phy/built-in.o
 .debug_abbrev  0x000000000001d617      0x6de drivers/power/built-in.o
 .debug_abbrev  0x000000000001dcf5      0x799 drivers/serial/built-in.o
 .debug_abbrev  0x000000000001e48e      0x685 drivers/spi/built-in.o
 .debug_abbrev  0x000000000001eb13      0x820 drivers/usb/eth/built-in.o
 .debug_abbrev  0x000000000001f333      0xa4b drivers/usb/host/built-in.o
 .debug_abbrev  0x000000000001fd7e     0x256a fs/built-in.o
 .debug_abbrev  0x00000000000222e8     0x5ad4 lib/built-in.o
 .debug_abbrev  0x0000000000027dbc     0x2557 net/built-in.o
 .debug_abbrev  0x000000000002a313      0x295 test/dm/built-in.o
 .debug_abbrev  0x000000000002a5a8      0x270 arch/arm/lib/eabi_compat.o

.debug_aranges  0x0000000000000000     0x45e8
 .debug_aranges
                0x0000000000000000       0x20 arch/arm/cpu/armv7/start.o
 .debug_aranges
                0x0000000000000020      0x288 arch/arm/cpu/armv7/built-in.o
 .debug_aranges
                0x00000000000002a8      0x200 arch/arm/imx-common/built-in.o
 .debug_aranges
                0x00000000000004a8      0x268 arch/arm/lib/built-in.o
 .debug_aranges
                0x0000000000000710       0x28 board/freescale/common/built-in.o
 .debug_aranges
                0x0000000000000738       0xa8 board/freescale/mx6ullevk/built-in.o
 .debug_aranges
                0x00000000000007e0      0x8e0 cmd/built-in.o
 .debug_aranges
                0x00000000000010c0      0xfd8 common/built-in.o
 .debug_aranges
                0x0000000000002098       0xa0 disk/built-in.o
 .debug_aranges
                0x0000000000002138      0x5d8 drivers/built-in.o
 .debug_aranges
                0x0000000000002710       0x48 drivers/gpio/built-in.o
 .debug_aranges
                0x0000000000002758      0x120 drivers/i2c/built-in.o
 .debug_aranges
                0x0000000000002878      0x1b0 drivers/mmc/built-in.o
 .debug_aranges
                0x0000000000002a28      0x130 drivers/mtd/built-in.o
 .debug_aranges
                0x0000000000002b58      0x100 drivers/mtd/spi/built-in.o
 .debug_aranges
                0x0000000000002c58       0x80 drivers/net/built-in.o
 .debug_aranges
                0x0000000000002cd8       0xf0 drivers/net/phy/built-in.o
 .debug_aranges
                0x0000000000002dc8       0x78 drivers/power/built-in.o
 .debug_aranges
                0x0000000000002e40      0x110 drivers/serial/built-in.o
 .debug_aranges
                0x0000000000002f50       0x78 drivers/spi/built-in.o
 .debug_aranges
                0x0000000000002fc8       0xc0 drivers/usb/eth/built-in.o
 .debug_aranges
                0x0000000000003088      0x120 drivers/usb/host/built-in.o
 .debug_aranges
                0x00000000000031a8      0x488 fs/built-in.o
 .debug_aranges
                0x0000000000003630      0xb50 lib/built-in.o
 .debug_aranges
                0x0000000000004180      0x3f8 net/built-in.o
 .debug_aranges
                0x0000000000004578       0x38 test/dm/built-in.o
 .debug_aranges
                0x00000000000045b0       0x38 arch/arm/lib/eabi_compat.o

.debug_str      0x0000000000000000    0x1d959
 .debug_str     0x0000000000000000       0x44 arch/arm/cpu/armv7/start.o
 .debug_str     0x0000000000000044     0x2484 arch/arm/cpu/armv7/built-in.o
                                       0x6527 (size before relaxing)
 .debug_str     0x00000000000024c8      0xe38 arch/arm/imx-common/built-in.o
                                       0x773a (size before relaxing)
 .debug_str     0x0000000000003300     0x1067 arch/arm/lib/built-in.o
                                       0x5ac9 (size before relaxing)
 .debug_str     0x0000000000004367       0x8a board/freescale/common/built-in.o
                                        0x928 (size before relaxing)
 .debug_str     0x00000000000043f1     0x82c1 board/freescale/mx6ullevk/built-in.o
                                       0x951b (size before relaxing)
 .debug_str     0x000000000000c6b2     0x35f1 cmd/built-in.o
                                      0x1d40b (size before relaxing)
 .debug_str     0x000000000000fca3     0x3a57 common/built-in.o
                                      0x253bb (size before relaxing)
 .debug_str     0x00000000000136fa      0x265 disk/built-in.o
                                       0x1871 (size before relaxing)
 .debug_str     0x000000000001395f     0x2bea drivers/built-in.o
                                      0x130cb (size before relaxing)
 .debug_str     0x0000000000016549       0x87 drivers/gpio/built-in.o
                                        0xa5c (size before relaxing)
 .debug_str     0x00000000000165d0      0x255 drivers/i2c/built-in.o
                                       0x20b2 (size before relaxing)
 .debug_str     0x0000000000016825      0x591 drivers/mmc/built-in.o
                                       0x3048 (size before relaxing)
 .debug_str     0x0000000000016db6      0x906 drivers/mtd/built-in.o
                                       0x2027 (size before relaxing)
 .debug_str     0x00000000000176bc      0x501 drivers/mtd/spi/built-in.o
                                       0x3636 (size before relaxing)
 .debug_str     0x0000000000017bbd      0x748 drivers/net/built-in.o
                                       0x15e2 (size before relaxing)
 .debug_str     0x0000000000018305      0x28f drivers/net/phy/built-in.o
                                       0x22b0 (size before relaxing)
 .debug_str     0x0000000000018594      0x149 drivers/power/built-in.o
                                       0x1602 (size before relaxing)
 .debug_str     0x00000000000186dd      0x1e1 drivers/serial/built-in.o
                                       0x1fe8 (size before relaxing)
 .debug_str     0x00000000000188be      0x209 drivers/spi/built-in.o
                                       0x1581 (size before relaxing)
 .debug_str     0x0000000000018ac7      0x34f drivers/usb/eth/built-in.o
                                       0x1fda (size before relaxing)
 .debug_str     0x0000000000018e16      0x7a2 drivers/usb/host/built-in.o
                                       0x2d46 (size before relaxing)
 .debug_str     0x00000000000195b8     0x1a30 fs/built-in.o
                                       0x964d (size before relaxing)
 .debug_str     0x000000000001afe8     0x16ca lib/built-in.o
                                      0x116f4 (size before relaxing)
 .debug_str     0x000000000001c6b2     0x11ba net/built-in.o
                                       0x9b9b (size before relaxing)
 .debug_str     0x000000000001d86c       0x79 test/dm/built-in.o
                                        0xa9e (size before relaxing)
 .debug_str     0x000000000001d8e5       0x74 arch/arm/lib/eabi_compat.o
                                        0x90a (size before relaxing)

.debug_frame    0x0000000000000000     0xc4b4
 .debug_frame   0x0000000000000000      0x648 arch/arm/cpu/armv7/built-in.o
 .debug_frame   0x0000000000000648      0x414 arch/arm/imx-common/built-in.o
 .debug_frame   0x0000000000000a5c      0x410 arch/arm/lib/built-in.o
 .debug_frame   0x0000000000000e6c       0x40 board/freescale/common/built-in.o
 .debug_frame   0x0000000000000eac      0x1e8 board/freescale/mx6ullevk/built-in.o
 .debug_frame   0x0000000000001094     0x17d8 cmd/built-in.o
 .debug_frame   0x000000000000286c     0x2f28 common/built-in.o
 .debug_frame   0x0000000000005794      0x218 disk/built-in.o
 .debug_frame   0x00000000000059ac      0xf50 drivers/built-in.o
 .debug_frame   0x00000000000068fc       0x78 drivers/gpio/built-in.o
 .debug_frame   0x0000000000006974      0x334 drivers/i2c/built-in.o
 .debug_frame   0x0000000000006ca8      0x5b0 drivers/mmc/built-in.o
 .debug_frame   0x0000000000007258      0x484 drivers/mtd/built-in.o
 .debug_frame   0x00000000000076dc      0x2d4 drivers/mtd/spi/built-in.o
 .debug_frame   0x00000000000079b0      0x184 drivers/net/built-in.o
 .debug_frame   0x0000000000007b34      0x2c4 drivers/net/phy/built-in.o
 .debug_frame   0x0000000000007df8      0x130 drivers/power/built-in.o
 .debug_frame   0x0000000000007f28      0x298 drivers/serial/built-in.o
 .debug_frame   0x00000000000081c0      0x114 drivers/spi/built-in.o
 .debug_frame   0x00000000000082d4      0x260 drivers/usb/eth/built-in.o
 .debug_frame   0x0000000000008534      0x328 drivers/usb/host/built-in.o
 .debug_frame   0x000000000000885c     0x101c fs/built-in.o
 .debug_frame   0x0000000000009878     0x1f28 lib/built-in.o
 .debug_frame   0x000000000000b7a0      0xc30 net/built-in.o
 .debug_frame   0x000000000000c3d0       0x7c test/dm/built-in.o
 .debug_frame   0x000000000000c44c       0x68 arch/arm/lib/eabi_compat.o

.debug_loc      0x0000000000000000    0x62fb5
 .debug_loc     0x0000000000000000     0x2e67 arch/arm/cpu/armv7/built-in.o
 .debug_loc     0x0000000000002e67      0xeb5 arch/arm/imx-common/built-in.o
 .debug_loc     0x0000000000003d1c      0x97d arch/arm/lib/built-in.o
 .debug_loc     0x0000000000004699       0x31 board/freescale/common/built-in.o
 .debug_loc     0x00000000000046ca      0x383 board/freescale/mx6ullevk/built-in.o
 .debug_loc     0x0000000000004a4d     0xef96 cmd/built-in.o
 .debug_loc     0x00000000000139e3    0x131ce common/built-in.o
 .debug_loc     0x0000000000026bb1      0xf67 disk/built-in.o
 .debug_loc     0x0000000000027b18     0x7581 drivers/built-in.o
 .debug_loc     0x000000000002f099      0x516 drivers/gpio/built-in.o
 .debug_loc     0x000000000002f5af     0x1264 drivers/i2c/built-in.o
 .debug_loc     0x0000000000030813     0x30de drivers/mmc/built-in.o
 .debug_loc     0x00000000000338f1     0x18bd drivers/mtd/built-in.o
 .debug_loc     0x00000000000351ae     0x1b4b drivers/mtd/spi/built-in.o
 .debug_loc     0x0000000000036cf9     0x1747 drivers/net/built-in.o
 .debug_loc     0x0000000000038440     0x1f04 drivers/net/phy/built-in.o
 .debug_loc     0x000000000003a344      0x763 drivers/power/built-in.o
 .debug_loc     0x000000000003aaa7      0x561 drivers/serial/built-in.o
 .debug_loc     0x000000000003b008      0xeae drivers/spi/built-in.o
 .debug_loc     0x000000000003beb6      0xe09 drivers/usb/eth/built-in.o
 .debug_loc     0x000000000003ccbf     0x265a drivers/usb/host/built-in.o
 .debug_loc     0x000000000003f319     0xe9ee fs/built-in.o
 .debug_loc     0x000000000004dd07    0x10270 lib/built-in.o
 .debug_loc     0x000000000005df77     0x4cac net/built-in.o
 .debug_loc     0x0000000000062c23      0x28a test/dm/built-in.o
 .debug_loc     0x0000000000062ead      0x108 arch/arm/lib/eabi_compat.o

.debug_ranges   0x0000000000000000     0x9480
 .debug_ranges  0x0000000000000000      0x598 arch/arm/cpu/armv7/built-in.o
 .debug_ranges  0x0000000000000598      0x2d0 arch/arm/imx-common/built-in.o
 .debug_ranges  0x0000000000000868      0x238 arch/arm/lib/built-in.o
 .debug_ranges  0x0000000000000aa0       0x18 board/freescale/common/built-in.o
 .debug_ranges  0x0000000000000ab8       0xc8 board/freescale/mx6ullevk/built-in.o
 .debug_ranges  0x0000000000000b80     0x1378 cmd/built-in.o
 .debug_ranges  0x0000000000001ef8     0x1e00 common/built-in.o
 .debug_ranges  0x0000000000003cf8      0x158 disk/built-in.o
 .debug_ranges  0x0000000000003e50      0xcd0 drivers/built-in.o
 .debug_ranges  0x0000000000004b20       0x50 drivers/gpio/built-in.o
 .debug_ranges  0x0000000000004b70      0x2a8 drivers/i2c/built-in.o
 .debug_ranges  0x0000000000004e18      0x510 drivers/mmc/built-in.o
 .debug_ranges  0x0000000000005328      0x128 drivers/mtd/built-in.o
 .debug_ranges  0x0000000000005450      0x280 drivers/mtd/spi/built-in.o
 .debug_ranges  0x00000000000056d0      0x408 drivers/net/built-in.o
 .debug_ranges  0x0000000000005ad8      0x438 drivers/net/phy/built-in.o
 .debug_ranges  0x0000000000005f10       0xe8 drivers/power/built-in.o
 .debug_ranges  0x0000000000005ff8      0x110 drivers/serial/built-in.o
 .debug_ranges  0x0000000000006108      0x178 drivers/spi/built-in.o
 .debug_ranges  0x0000000000006280      0x208 drivers/usb/eth/built-in.o
 .debug_ranges  0x0000000000006488      0x350 drivers/usb/host/built-in.o
 .debug_ranges  0x00000000000067d8     0x1078 fs/built-in.o
 .debug_ranges  0x0000000000007850     0x12a0 lib/built-in.o
 .debug_ranges  0x0000000000008af0      0x940 net/built-in.o
 .debug_ranges  0x0000000000009430       0x28 test/dm/built-in.o
 .debug_ranges  0x0000000000009458       0x28 arch/arm/lib/eabi_compat.o
