
ap3216c.elf:     file format elf32-littlearm


Disassembly of section .text:

87800000 <_start>:
87800000:	e59ff100 	ldr	pc, [pc, #256]	; 87800108 <FIQ_Handler+0x8>
87800004:	e59ff100 	ldr	pc, [pc, #256]	; 8780010c <FIQ_Handler+0xc>
87800008:	e59ff100 	ldr	pc, [pc, #256]	; 87800110 <FIQ_Handler+0x10>
8780000c:	e59ff100 	ldr	pc, [pc, #256]	; 87800114 <FIQ_Handler+0x14>
87800010:	e59ff100 	ldr	pc, [pc, #256]	; 87800118 <FIQ_Handler+0x18>
87800014:	e59ff100 	ldr	pc, [pc, #256]	; 8780011c <FIQ_Handler+0x1c>
87800018:	e59ff100 	ldr	pc, [pc, #256]	; 87800120 <FIQ_Handler+0x20>
8780001c:	e59ff100 	ldr	pc, [pc, #256]	; 87800124 <FIQ_Handler+0x24>

87800020 <Reset_Handler>:
87800020:	f10c0080 	cpsid	i
87800024:	ee110f10 	mrc	15, 0, r0, cr1, cr0, {0}
87800028:	e3c00a01 	bic	r0, r0, #4096	; 0x1000
8780002c:	e3c00004 	bic	r0, r0, #4
87800030:	e3c00002 	bic	r0, r0, #2
87800034:	e3c00b02 	bic	r0, r0, #2048	; 0x800
87800038:	e3c00001 	bic	r0, r0, #1
8780003c:	ee010f10 	mcr	15, 0, r0, cr1, cr0, {0}
87800040:	e10f0000 	mrs	r0, CPSR
87800044:	e3c0001f 	bic	r0, r0, #31
87800048:	e3800012 	orr	r0, r0, #18
8780004c:	e129f000 	msr	CPSR_fc, r0
87800050:	e59fd0d0 	ldr	sp, [pc, #208]	; 87800128 <FIQ_Handler+0x28>
87800054:	e10f0000 	mrs	r0, CPSR
87800058:	e3c0001f 	bic	r0, r0, #31
8780005c:	e380001f 	orr	r0, r0, #31
87800060:	e129f000 	msr	CPSR_fc, r0
87800064:	e59fd0c0 	ldr	sp, [pc, #192]	; 8780012c <FIQ_Handler+0x2c>
87800068:	e10f0000 	mrs	r0, CPSR
8780006c:	e3c0001f 	bic	r0, r0, #31
87800070:	e3800013 	orr	r0, r0, #19
87800074:	e129f000 	msr	CPSR_fc, r0
87800078:	e59fd0b0 	ldr	sp, [pc, #176]	; 87800130 <FIQ_Handler+0x30>
8780007c:	f1080080 	cpsie	i
87800080:	ea000f46 	b	87803da0 <__main_from_arm>

87800084 <Undefined_Handler>:
87800084:	e59f0080 	ldr	r0, [pc, #128]	; 8780010c <FIQ_Handler+0xc>
87800088:	e12fff10 	bx	r0

8780008c <SVC_Handler>:
8780008c:	e59f007c 	ldr	r0, [pc, #124]	; 87800110 <FIQ_Handler+0x10>
87800090:	e12fff10 	bx	r0

87800094 <PrefAbort_Handler>:
87800094:	e59f0078 	ldr	r0, [pc, #120]	; 87800114 <FIQ_Handler+0x14>
87800098:	e12fff10 	bx	r0

8780009c <DataAbort_Handler>:
8780009c:	e59f0074 	ldr	r0, [pc, #116]	; 87800118 <FIQ_Handler+0x18>
878000a0:	e12fff10 	bx	r0

878000a4 <NotUsed_Handler>:
878000a4:	e59f0070 	ldr	r0, [pc, #112]	; 8780011c <FIQ_Handler+0x1c>
878000a8:	e12fff10 	bx	r0

878000ac <IRQ_Handler>:
878000ac:	e52de004 	push	{lr}		; (str lr, [sp, #-4]!)
878000b0:	e92d100f 	push	{r0, r1, r2, r3, ip}
878000b4:	e14f0000 	mrs	r0, SPSR
878000b8:	e52d0004 	push	{r0}		; (str r0, [sp, #-4]!)
878000bc:	ee9f1f10 	mrc	15, 4, r1, cr15, cr0, {0}
878000c0:	e2811a02 	add	r1, r1, #8192	; 0x2000
878000c4:	e591000c 	ldr	r0, [r1, #12]
878000c8:	e92d0003 	push	{r0, r1}
878000cc:	f1020013 	cps	#19
878000d0:	e52de004 	push	{lr}		; (str lr, [sp, #-4]!)
878000d4:	e59f2058 	ldr	r2, [pc, #88]	; 87800134 <FIQ_Handler+0x34>
878000d8:	e12fff32 	blx	r2
878000dc:	e49de004 	pop	{lr}		; (ldr lr, [sp], #4)
878000e0:	f1020012 	cps	#18
878000e4:	e8bd0003 	pop	{r0, r1}
878000e8:	e5810010 	str	r0, [r1, #16]
878000ec:	e49d0004 	pop	{r0}		; (ldr r0, [sp], #4)
878000f0:	e16ff000 	msr	SPSR_fsxc, r0
878000f4:	e8bd100f 	pop	{r0, r1, r2, r3, ip}
878000f8:	e49de004 	pop	{lr}		; (ldr lr, [sp], #4)
878000fc:	e25ef004 	subs	pc, lr, #4

87800100 <FIQ_Handler>:
87800100:	e59f001c 	ldr	r0, [pc, #28]	; 87800124 <FIQ_Handler+0x24>
87800104:	e12fff10 	bx	r0
87800108:	87800020 	strhi	r0, [r0, r0, lsr #32]
8780010c:	87800084 	strhi	r0, [r0, r4, lsl #1]
87800110:	8780008c 	strhi	r0, [r0, ip, lsl #1]
87800114:	87800094 			; <UNDEFINED> instruction: 0x87800094
87800118:	8780009c 			; <UNDEFINED> instruction: 0x8780009c
8780011c:	878000a4 	strhi	r0, [r0, r4, lsr #1]
87800120:	878000ac 	strhi	r0, [r0, ip, lsr #1]
87800124:	87800100 	strhi	r0, [r0, r0, lsl #2]
87800128:	80600000 	rsbhi	r0, r0, r0
8780012c:	80400000 	subhi	r0, r0, r0
87800130:	80200000 	eorhi	r0, r0, r0
87800134:	878020e9 	strhi	r2, [r0, r9, ror #1]
87800138:	00001e41 	andeq	r1, r0, r1, asr #28
8780013c:	61656100 	cmnvs	r5, r0, lsl #2
87800140:	01006962 	tsteq	r0, r2, ror #18
87800144:	00000014 	andeq	r0, r0, r4, lsl r0
87800148:	412d3705 			; <UNDEFINED> instruction: 0x412d3705
8780014c:	070a0600 	streq	r0, [sl, -r0, lsl #12]
87800150:	09010841 	stmdbeq	r1, {r0, r6, fp}
87800154:	00040a02 	andeq	r0, r4, r2, lsl #20
87800158:	878095a4 	strhi	r9, [r0, r4, lsr #11]
8780015c:	87808794 			; <UNDEFINED> instruction: 0x87808794
87800160:	878095a8 	strhi	r9, [r0, r8, lsr #11]

87800164 <_GLOBAL_OFFSET_TABLE_>:
	...

87800170 <__umodsi3>:
87800170:	e2512001 	subs	r2, r1, #1
87800174:	3a000062 	bcc	87800304 <Ldiv0>
87800178:	11500001 	cmpne	r0, r1
8780017c:	03a00000 	moveq	r0, #0
87800180:	81110002 	tsthi	r1, r2
87800184:	00000002 	andeq	r0, r0, r2
87800188:	91a0f00e 	movls	pc, lr
8780018c:	e3a02000 	mov	r2, #0
87800190:	e3510201 	cmp	r1, #268435456	; 0x10000000
87800194:	31510000 	cmpcc	r1, r0
87800198:	31a01201 	lslcc	r1, r1, #4
8780019c:	32822004 	addcc	r2, r2, #4
878001a0:	3afffffa 	bcc	87800190 <__umodsi3+0x20>
878001a4:	e3510102 	cmp	r1, #-2147483648	; 0x80000000
878001a8:	31510000 	cmpcc	r1, r0
878001ac:	31a01081 	lslcc	r1, r1, #1
878001b0:	32822001 	addcc	r2, r2, #1
878001b4:	3afffffa 	bcc	878001a4 <__umodsi3+0x34>
878001b8:	e2522003 	subs	r2, r2, #3
878001bc:	ba00000e 	blt	878001fc <__umodsi3+0x8c>
878001c0:	e1500001 	cmp	r0, r1
878001c4:	20400001 	subcs	r0, r0, r1
878001c8:	e15000a1 	cmp	r0, r1, lsr #1
878001cc:	204000a1 	subcs	r0, r0, r1, lsr #1
878001d0:	e1500121 	cmp	r0, r1, lsr #2
878001d4:	20400121 	subcs	r0, r0, r1, lsr #2
878001d8:	e15001a1 	cmp	r0, r1, lsr #3
878001dc:	204001a1 	subcs	r0, r0, r1, lsr #3
878001e0:	e3500001 	cmp	r0, #1
878001e4:	e1a01221 	lsr	r1, r1, #4
878001e8:	a2522004 	subsge	r2, r2, #4
878001ec:	aafffff3 	bge	878001c0 <__umodsi3+0x50>
878001f0:	e3120003 	tst	r2, #3
878001f4:	13300000 	teqne	r0, #0
878001f8:	0a00000a 	beq	87800228 <__umodsi3+0xb8>
878001fc:	e3720002 	cmn	r2, #2
87800200:	ba000006 	blt	87800220 <__umodsi3+0xb0>
87800204:	0a000002 	beq	87800214 <__umodsi3+0xa4>
87800208:	e1500001 	cmp	r0, r1
8780020c:	20400001 	subcs	r0, r0, r1
87800210:	e1a010a1 	lsr	r1, r1, #1
87800214:	e1500001 	cmp	r0, r1
87800218:	20400001 	subcs	r0, r0, r1
8780021c:	e1a010a1 	lsr	r1, r1, #1
87800220:	e1500001 	cmp	r0, r1
87800224:	20400001 	subcs	r0, r0, r1
87800228:	e1a0f00e 	mov	pc, lr
8780022c:	90909090 	umullsls	r9, r0, r0, r0

87800230 <__modsi3>:
87800230:	e3510000 	cmp	r1, #0
87800234:	0a000032 	beq	87800304 <Ldiv0>
87800238:	42611000 	rsbmi	r1, r1, #0
8780023c:	e1b0c000 	movs	ip, r0
87800240:	42600000 	rsbmi	r0, r0, #0
87800244:	e2512001 	subs	r2, r1, #1
87800248:	11500001 	cmpne	r0, r1
8780024c:	03a00000 	moveq	r0, #0
87800250:	81110002 	tsthi	r1, r2
87800254:	00000002 	andeq	r0, r0, r2
87800258:	9a000026 	bls	878002f8 <__modsi3+0xc8>
8780025c:	e3a02000 	mov	r2, #0
87800260:	e3510201 	cmp	r1, #268435456	; 0x10000000
87800264:	31510000 	cmpcc	r1, r0
87800268:	31a01201 	lslcc	r1, r1, #4
8780026c:	32822004 	addcc	r2, r2, #4
87800270:	3afffffa 	bcc	87800260 <__modsi3+0x30>
87800274:	e3510102 	cmp	r1, #-2147483648	; 0x80000000
87800278:	31510000 	cmpcc	r1, r0
8780027c:	31a01081 	lslcc	r1, r1, #1
87800280:	32822001 	addcc	r2, r2, #1
87800284:	3afffffa 	bcc	87800274 <__modsi3+0x44>
87800288:	e2522003 	subs	r2, r2, #3
8780028c:	ba00000e 	blt	878002cc <__modsi3+0x9c>
87800290:	e1500001 	cmp	r0, r1
87800294:	20400001 	subcs	r0, r0, r1
87800298:	e15000a1 	cmp	r0, r1, lsr #1
8780029c:	204000a1 	subcs	r0, r0, r1, lsr #1
878002a0:	e1500121 	cmp	r0, r1, lsr #2
878002a4:	20400121 	subcs	r0, r0, r1, lsr #2
878002a8:	e15001a1 	cmp	r0, r1, lsr #3
878002ac:	204001a1 	subcs	r0, r0, r1, lsr #3
878002b0:	e3500001 	cmp	r0, #1
878002b4:	e1a01221 	lsr	r1, r1, #4
878002b8:	a2522004 	subsge	r2, r2, #4
878002bc:	aafffff3 	bge	87800290 <__modsi3+0x60>
878002c0:	e3120003 	tst	r2, #3
878002c4:	13300000 	teqne	r0, #0
878002c8:	0a00000a 	beq	878002f8 <__modsi3+0xc8>
878002cc:	e3720002 	cmn	r2, #2
878002d0:	ba000006 	blt	878002f0 <__modsi3+0xc0>
878002d4:	0a000002 	beq	878002e4 <__modsi3+0xb4>
878002d8:	e1500001 	cmp	r0, r1
878002dc:	20400001 	subcs	r0, r0, r1
878002e0:	e1a010a1 	lsr	r1, r1, #1
878002e4:	e1500001 	cmp	r0, r1
878002e8:	20400001 	subcs	r0, r0, r1
878002ec:	e1a010a1 	lsr	r1, r1, #1
878002f0:	e1500001 	cmp	r0, r1
878002f4:	20400001 	subcs	r0, r0, r1
878002f8:	e35c0000 	cmp	ip, #0
878002fc:	42600000 	rsbmi	r0, r0, #0
87800300:	e1a0f00e 	mov	pc, lr

87800304 <Ldiv0>:
87800304:	e52de004 	push	{lr}		; (str lr, [sp, #-4]!)
87800308:	e3a00000 	mov	r0, #0
8780030c:	e49df004 	pop	{pc}		; (ldr pc, [sp], #4)

87800310 <__muldi3>:
87800310:	b4f0      	push	{r4, r5, r6, r7}
87800312:	4604      	mov	r4, r0
87800314:	ea4f 4610 	mov.w	r6, r0, lsr #16
87800318:	ea4f 4512 	mov.w	r5, r2, lsr #16
8780031c:	ea20 4706 	bic.w	r7, r0, r6, lsl #16
87800320:	ea22 4c05 	bic.w	ip, r2, r5, lsl #16
87800324:	fb07 f00c 	mul.w	r0, r7, ip
87800328:	fb06 fc0c 	mul.w	ip, r6, ip
8780032c:	fb05 f707 	mul.w	r7, r5, r7
87800330:	fb06 f505 	mul.w	r5, r6, r5
87800334:	eb1c 0707 	adds.w	r7, ip, r7
87800338:	bf28      	it	cs
8780033a:	f505 3580 	addcs.w	r5, r5, #65536	; 0x10000
8780033e:	eb10 4007 	adds.w	r0, r0, r7, lsl #16
87800342:	eb45 4517 	adc.w	r5, r5, r7, lsr #16
87800346:	fb03 5304 	mla	r3, r3, r4, r5
8780034a:	bcf0      	pop	{r4, r5, r6, r7}
8780034c:	fb02 3101 	mla	r1, r2, r1, r3
87800350:	4770      	bx	lr
87800352:	bf00      	nop

87800354 <printf>:
87800354:	b40f      	push	{r0, r1, r2, r3}
87800356:	480e      	ldr	r0, [pc, #56]	; (87800390 <printf+0x3c>)
87800358:	b5f8      	push	{r3, r4, r5, r6, r7, lr}
8780035a:	4478      	add	r0, pc
8780035c:	aa07      	add	r2, sp, #28
8780035e:	9906      	ldr	r1, [sp, #24]
87800360:	1e45      	subs	r5, r0, #1
87800362:	4606      	mov	r6, r0
87800364:	f001 f924 	bl	878015b0 <vsprintf>
87800368:	2400      	movs	r4, #0
8780036a:	4607      	mov	r7, r0
8780036c:	e003      	b.n	87800376 <printf+0x22>
8780036e:	f815 0f01 	ldrb.w	r0, [r5, #1]!
87800372:	f002 f953 	bl	8780261c <putc>
87800376:	4630      	mov	r0, r6
87800378:	f000 f956 	bl	87800628 <strlen>
8780037c:	42a0      	cmp	r0, r4
8780037e:	f104 0401 	add.w	r4, r4, #1
87800382:	d8f4      	bhi.n	8780036e <printf+0x1a>
87800384:	4638      	mov	r0, r7
87800386:	e8bd 40f8 	ldmia.w	sp!, {r3, r4, r5, r6, r7, lr}
8780038a:	b004      	add	sp, #16
8780038c:	4770      	bx	lr
8780038e:	bf00      	nop
87800390:	0000853a 	andeq	r8, r0, sl, lsr r5

87800394 <scanf>:
87800394:	b40f      	push	{r0, r1, r2, r3}
87800396:	b570      	push	{r4, r5, r6, lr}
87800398:	2600      	movs	r6, #0
8780039a:	4d10      	ldr	r5, [pc, #64]	; (878003dc <scanf+0x48>)
8780039c:	447d      	add	r5, pc
8780039e:	f205 35ff 	addw	r5, r5, #1023	; 0x3ff
878003a2:	e002      	b.n	878003aa <scanf+0x16>
878003a4:	3601      	adds	r6, #1
878003a6:	f805 4f01 	strb.w	r4, [r5, #1]!
878003aa:	f002 f951 	bl	87802650 <getc>
878003ae:	4604      	mov	r4, r0
878003b0:	f002 f934 	bl	8780261c <putc>
878003b4:	2c0a      	cmp	r4, #10
878003b6:	bf18      	it	ne
878003b8:	2c0d      	cmpne	r4, #13
878003ba:	d1f3      	bne.n	878003a4 <scanf+0x10>
878003bc:	4808      	ldr	r0, [pc, #32]	; (878003e0 <scanf+0x4c>)
878003be:	aa05      	add	r2, sp, #20
878003c0:	9904      	ldr	r1, [sp, #16]
878003c2:	2300      	movs	r3, #0
878003c4:	4478      	add	r0, pc
878003c6:	4406      	add	r6, r0
878003c8:	f500 6080 	add.w	r0, r0, #1024	; 0x400
878003cc:	f886 3400 	strb.w	r3, [r6, #1024]	; 0x400
878003d0:	f001 f900 	bl	878015d4 <vsscanf>
878003d4:	e8bd 4070 	ldmia.w	sp!, {r4, r5, r6, lr}
878003d8:	b004      	add	sp, #16
878003da:	4770      	bx	lr
878003dc:	000084f8 	strdeq	r8, [r0], -r8	; <UNPREDICTABLE>
878003e0:	000084d0 	ldrdeq	r8, [r0], -r0

878003e4 <__div64_32>:
878003e4:	e92d 43f8 	stmdb	sp!, {r3, r4, r5, r6, r7, r8, r9, lr}
878003e8:	4680      	mov	r8, r0
878003ea:	e9d0 6700 	ldrd	r6, r7, [r0]
878003ee:	4689      	mov	r9, r1
878003f0:	460c      	mov	r4, r1
878003f2:	2500      	movs	r5, #0
878003f4:	42b9      	cmp	r1, r7
878003f6:	bf84      	itt	hi
878003f8:	f04f 0c00 	movhi.w	ip, #0
878003fc:	46e6      	movhi	lr, ip
878003fe:	d80c      	bhi.n	8780041a <__div64_32+0x36>
87800400:	4638      	mov	r0, r7
87800402:	f003 fa95 	bl	87803930 <__udivsi3>
87800406:	f04f 0c00 	mov.w	ip, #0
8780040a:	ebb6 060c 	subs.w	r6, r6, ip
8780040e:	4663      	mov	r3, ip
87800410:	fb00 f209 	mul.w	r2, r0, r9
87800414:	4686      	mov	lr, r0
87800416:	eb67 0702 	sbc.w	r7, r7, r2
8780041a:	42bd      	cmp	r5, r7
8780041c:	f04f 0201 	mov.w	r2, #1
87800420:	bf08      	it	eq
87800422:	42b4      	cmpeq	r4, r6
87800424:	bf34      	ite	cc
87800426:	2301      	movcc	r3, #1
87800428:	2300      	movcs	r3, #0
8780042a:	f1b9 0f00 	cmp.w	r9, #0
8780042e:	bf08      	it	eq
87800430:	2300      	moveq	r3, #0
87800432:	b373      	cbz	r3, 87800492 <__div64_32+0xae>
87800434:	2300      	movs	r3, #0
87800436:	1924      	adds	r4, r4, r4
87800438:	416d      	adcs	r5, r5
8780043a:	1892      	adds	r2, r2, r2
8780043c:	415b      	adcs	r3, r3
8780043e:	2c01      	cmp	r4, #1
87800440:	f175 0100 	sbcs.w	r1, r5, #0
87800444:	bfac      	ite	ge
87800446:	2101      	movge	r1, #1
87800448:	2100      	movlt	r1, #0
8780044a:	42bd      	cmp	r5, r7
8780044c:	f001 0101 	and.w	r1, r1, #1
87800450:	bf08      	it	eq
87800452:	42b4      	cmpeq	r4, r6
87800454:	bf28      	it	cs
87800456:	2100      	movcs	r1, #0
87800458:	2900      	cmp	r1, #0
8780045a:	d1ec      	bne.n	87800436 <__div64_32+0x52>
8780045c:	42af      	cmp	r7, r5
8780045e:	bf08      	it	eq
87800460:	42a6      	cmpeq	r6, r4
87800462:	d306      	bcc.n	87800472 <__div64_32+0x8e>
87800464:	1b36      	subs	r6, r6, r4
87800466:	eb67 0705 	sbc.w	r7, r7, r5
8780046a:	eb1c 0c02 	adds.w	ip, ip, r2
8780046e:	eb4e 0e03 	adc.w	lr, lr, r3
87800472:	085b      	lsrs	r3, r3, #1
87800474:	ea4f 0232 	mov.w	r2, r2, rrx
87800478:	086d      	lsrs	r5, r5, #1
8780047a:	ea4f 0434 	mov.w	r4, r4, rrx
8780047e:	ea52 0103 	orrs.w	r1, r2, r3
87800482:	d1eb      	bne.n	8780045c <__div64_32+0x78>
87800484:	f8c8 c000 	str.w	ip, [r8]
87800488:	4630      	mov	r0, r6
8780048a:	f8c8 e004 	str.w	lr, [r8, #4]
8780048e:	e8bd 83f8 	ldmia.w	sp!, {r3, r4, r5, r6, r7, r8, r9, pc}
87800492:	2300      	movs	r3, #0
87800494:	e7e2      	b.n	8780045c <__div64_32+0x78>
87800496:	bf00      	nop

87800498 <strnicmp>:
87800498:	b5f0      	push	{r4, r5, r6, r7, lr}
8780049a:	4e15      	ldr	r6, [pc, #84]	; (878004f0 <strnicmp+0x58>)
8780049c:	447e      	add	r6, pc
8780049e:	b30a      	cbz	r2, 878004e4 <strnicmp+0x4c>
878004a0:	1e44      	subs	r4, r0, #1
878004a2:	eb01 0e02 	add.w	lr, r1, r2
878004a6:	e006      	b.n	878004b6 <strnicmp+0x1e>
878004a8:	fa5f f08c 	uxtb.w	r0, ip
878004ac:	b9c3      	cbnz	r3, 878004e0 <strnicmp+0x48>
878004ae:	4282      	cmp	r2, r0
878004b0:	d11c      	bne.n	878004ec <strnicmp+0x54>
878004b2:	4571      	cmp	r1, lr
878004b4:	d016      	beq.n	878004e4 <strnicmp+0x4c>
878004b6:	f814 0f01 	ldrb.w	r0, [r4, #1]!
878004ba:	4b0e      	ldr	r3, [pc, #56]	; (878004f4 <strnicmp+0x5c>)
878004bc:	f811 2b01 	ldrb.w	r2, [r1], #1
878004c0:	b190      	cbz	r0, 878004e8 <strnicmp+0x50>
878004c2:	b182      	cbz	r2, 878004e6 <strnicmp+0x4e>
878004c4:	4290      	cmp	r0, r2
878004c6:	d0f4      	beq.n	878004b2 <strnicmp+0x1a>
878004c8:	58f5      	ldr	r5, [r6, r3]
878004ca:	f102 0720 	add.w	r7, r2, #32
878004ce:	f100 0c20 	add.w	ip, r0, #32
878004d2:	5cab      	ldrb	r3, [r5, r2]
878004d4:	5c2d      	ldrb	r5, [r5, r0]
878004d6:	f003 0301 	and.w	r3, r3, #1
878004da:	07ed      	lsls	r5, r5, #31
878004dc:	d4e4      	bmi.n	878004a8 <strnicmp+0x10>
878004de:	b12b      	cbz	r3, 878004ec <strnicmp+0x54>
878004e0:	b2fa      	uxtb	r2, r7
878004e2:	e7e4      	b.n	878004ae <strnicmp+0x16>
878004e4:	2000      	movs	r0, #0
878004e6:	bdf0      	pop	{r4, r5, r6, r7, pc}
878004e8:	4250      	negs	r0, r2
878004ea:	bdf0      	pop	{r4, r5, r6, r7, pc}
878004ec:	1a80      	subs	r0, r0, r2
878004ee:	bdf0      	pop	{r4, r5, r6, r7, pc}
878004f0:	fffffb60 			; <UNDEFINED> instruction: 0xfffffb60
878004f4:	0000015c 	andeq	r0, r0, ip, asr r1

878004f8 <strcpy>:
878004f8:	1e42      	subs	r2, r0, #1
878004fa:	f811 3b01 	ldrb.w	r3, [r1], #1
878004fe:	f802 3f01 	strb.w	r3, [r2, #1]!
87800502:	2b00      	cmp	r3, #0
87800504:	d1f9      	bne.n	878004fa <strcpy+0x2>
87800506:	4770      	bx	lr

87800508 <strncpy>:
87800508:	b410      	push	{r4}
8780050a:	440a      	add	r2, r1
8780050c:	1e44      	subs	r4, r0, #1
8780050e:	e004      	b.n	8780051a <strncpy+0x12>
87800510:	f811 3b01 	ldrb.w	r3, [r1], #1
87800514:	f804 3f01 	strb.w	r3, [r4, #1]!
87800518:	b10b      	cbz	r3, 8780051e <strncpy+0x16>
8780051a:	4291      	cmp	r1, r2
8780051c:	d1f8      	bne.n	87800510 <strncpy+0x8>
8780051e:	f85d 4b04 	ldr.w	r4, [sp], #4
87800522:	4770      	bx	lr

87800524 <strcat>:
87800524:	7803      	ldrb	r3, [r0, #0]
87800526:	b163      	cbz	r3, 87800542 <strcat+0x1e>
87800528:	4603      	mov	r3, r0
8780052a:	f813 2f01 	ldrb.w	r2, [r3, #1]!
8780052e:	2a00      	cmp	r2, #0
87800530:	d1fb      	bne.n	8780052a <strcat+0x6>
87800532:	3b01      	subs	r3, #1
87800534:	f811 2b01 	ldrb.w	r2, [r1], #1
87800538:	f803 2f01 	strb.w	r2, [r3, #1]!
8780053c:	2a00      	cmp	r2, #0
8780053e:	d1f9      	bne.n	87800534 <strcat+0x10>
87800540:	4770      	bx	lr
87800542:	4603      	mov	r3, r0
87800544:	e7f5      	b.n	87800532 <strcat+0xe>
87800546:	bf00      	nop

87800548 <strncat>:
87800548:	b1a2      	cbz	r2, 87800574 <strncat+0x2c>
8780054a:	7803      	ldrb	r3, [r0, #0]
8780054c:	b430      	push	{r4, r5}
8780054e:	b1b3      	cbz	r3, 8780057e <strncat+0x36>
87800550:	4603      	mov	r3, r0
87800552:	f813 4f01 	ldrb.w	r4, [r3, #1]!
87800556:	2c00      	cmp	r4, #0
87800558:	d1fb      	bne.n	87800552 <strncat+0xa>
8780055a:	441a      	add	r2, r3
8780055c:	e001      	b.n	87800562 <strncat+0x1a>
8780055e:	4293      	cmp	r3, r2
87800560:	d009      	beq.n	87800576 <strncat+0x2e>
87800562:	f811 4b01 	ldrb.w	r4, [r1], #1
87800566:	461d      	mov	r5, r3
87800568:	f803 4b01 	strb.w	r4, [r3], #1
8780056c:	2c00      	cmp	r4, #0
8780056e:	d1f6      	bne.n	8780055e <strncat+0x16>
87800570:	bc30      	pop	{r4, r5}
87800572:	4770      	bx	lr
87800574:	4770      	bx	lr
87800576:	2300      	movs	r3, #0
87800578:	706b      	strb	r3, [r5, #1]
8780057a:	bc30      	pop	{r4, r5}
8780057c:	4770      	bx	lr
8780057e:	4603      	mov	r3, r0
87800580:	e7eb      	b.n	8780055a <strncat+0x12>
87800582:	bf00      	nop

87800584 <strcmp>:
87800584:	1e42      	subs	r2, r0, #1
87800586:	e000      	b.n	8780058a <strcmp+0x6>
87800588:	b148      	cbz	r0, 8780059e <strcmp+0x1a>
8780058a:	f812 0f01 	ldrb.w	r0, [r2, #1]!
8780058e:	f811 3b01 	ldrb.w	r3, [r1], #1
87800592:	1ac3      	subs	r3, r0, r3
87800594:	b25b      	sxtb	r3, r3
87800596:	2b00      	cmp	r3, #0
87800598:	d0f6      	beq.n	87800588 <strcmp+0x4>
8780059a:	4618      	mov	r0, r3
8780059c:	4770      	bx	lr
8780059e:	4770      	bx	lr

878005a0 <strncmp>:
878005a0:	b1e2      	cbz	r2, 878005dc <strncmp+0x3c>
878005a2:	b430      	push	{r4, r5}
878005a4:	1c4c      	adds	r4, r1, #1
878005a6:	7805      	ldrb	r5, [r0, #0]
878005a8:	780b      	ldrb	r3, [r1, #0]
878005aa:	1aeb      	subs	r3, r5, r3
878005ac:	b25b      	sxtb	r3, r3
878005ae:	b97b      	cbnz	r3, 878005d0 <strncmp+0x30>
878005b0:	b15d      	cbz	r5, 878005ca <strncmp+0x2a>
878005b2:	4411      	add	r1, r2
878005b4:	e007      	b.n	878005c6 <strncmp+0x26>
878005b6:	f810 2f01 	ldrb.w	r2, [r0, #1]!
878005ba:	f814 3b01 	ldrb.w	r3, [r4], #1
878005be:	1ad3      	subs	r3, r2, r3
878005c0:	b25b      	sxtb	r3, r3
878005c2:	b92b      	cbnz	r3, 878005d0 <strncmp+0x30>
878005c4:	b13a      	cbz	r2, 878005d6 <strncmp+0x36>
878005c6:	42a1      	cmp	r1, r4
878005c8:	d1f5      	bne.n	878005b6 <strncmp+0x16>
878005ca:	2000      	movs	r0, #0
878005cc:	bc30      	pop	{r4, r5}
878005ce:	4770      	bx	lr
878005d0:	4618      	mov	r0, r3
878005d2:	bc30      	pop	{r4, r5}
878005d4:	4770      	bx	lr
878005d6:	4610      	mov	r0, r2
878005d8:	bc30      	pop	{r4, r5}
878005da:	4770      	bx	lr
878005dc:	4610      	mov	r0, r2
878005de:	4770      	bx	lr

878005e0 <strchr>:
878005e0:	7803      	ldrb	r3, [r0, #0]
878005e2:	b2c9      	uxtb	r1, r1
878005e4:	428b      	cmp	r3, r1
878005e6:	d006      	beq.n	878005f6 <strchr+0x16>
878005e8:	b123      	cbz	r3, 878005f4 <strchr+0x14>
878005ea:	f810 3f01 	ldrb.w	r3, [r0, #1]!
878005ee:	428b      	cmp	r3, r1
878005f0:	d1fa      	bne.n	878005e8 <strchr+0x8>
878005f2:	4770      	bx	lr
878005f4:	4618      	mov	r0, r3
878005f6:	4770      	bx	lr

878005f8 <strrchr>:
878005f8:	7803      	ldrb	r3, [r0, #0]
878005fa:	b193      	cbz	r3, 87800622 <strrchr+0x2a>
878005fc:	4603      	mov	r3, r0
878005fe:	f813 2f01 	ldrb.w	r2, [r3, #1]!
87800602:	2a00      	cmp	r2, #0
87800604:	d1fb      	bne.n	878005fe <strrchr+0x6>
87800606:	b2c9      	uxtb	r1, r1
87800608:	2200      	movs	r2, #0
8780060a:	e003      	b.n	87800614 <strrchr+0x1c>
8780060c:	3b01      	subs	r3, #1
8780060e:	4298      	cmp	r0, r3
87800610:	d804      	bhi.n	8780061c <strrchr+0x24>
87800612:	781a      	ldrb	r2, [r3, #0]
87800614:	428a      	cmp	r2, r1
87800616:	d1f9      	bne.n	8780060c <strrchr+0x14>
87800618:	4618      	mov	r0, r3
8780061a:	4770      	bx	lr
8780061c:	2300      	movs	r3, #0
8780061e:	4618      	mov	r0, r3
87800620:	4770      	bx	lr
87800622:	4603      	mov	r3, r0
87800624:	e7ef      	b.n	87800606 <strrchr+0xe>
87800626:	bf00      	nop

87800628 <strlen>:
87800628:	7803      	ldrb	r3, [r0, #0]
8780062a:	4602      	mov	r2, r0
8780062c:	b12b      	cbz	r3, 8780063a <strlen+0x12>
8780062e:	f810 3f01 	ldrb.w	r3, [r0, #1]!
87800632:	2b00      	cmp	r3, #0
87800634:	d1fb      	bne.n	8780062e <strlen+0x6>
87800636:	1a80      	subs	r0, r0, r2
87800638:	4770      	bx	lr
8780063a:	4618      	mov	r0, r3
8780063c:	4770      	bx	lr
8780063e:	bf00      	nop

87800640 <strnlen>:
87800640:	b1d1      	cbz	r1, 87800678 <strnlen+0x38>
87800642:	7803      	ldrb	r3, [r0, #0]
87800644:	b1d3      	cbz	r3, 8780067c <strnlen+0x3c>
87800646:	1c43      	adds	r3, r0, #1
87800648:	4401      	add	r1, r0
8780064a:	4299      	cmp	r1, r3
8780064c:	f103 0201 	add.w	r2, r3, #1
87800650:	d016      	beq.n	87800680 <strnlen+0x40>
87800652:	b410      	push	{r4}
87800654:	781c      	ldrb	r4, [r3, #0]
87800656:	b13c      	cbz	r4, 87800668 <strnlen+0x28>
87800658:	4291      	cmp	r1, r2
8780065a:	4613      	mov	r3, r2
8780065c:	f102 0201 	add.w	r2, r2, #1
87800660:	d006      	beq.n	87800670 <strnlen+0x30>
87800662:	781c      	ldrb	r4, [r3, #0]
87800664:	2c00      	cmp	r4, #0
87800666:	d1f7      	bne.n	87800658 <strnlen+0x18>
87800668:	1a18      	subs	r0, r3, r0
8780066a:	f85d 4b04 	ldr.w	r4, [sp], #4
8780066e:	4770      	bx	lr
87800670:	1a08      	subs	r0, r1, r0
87800672:	f85d 4b04 	ldr.w	r4, [sp], #4
87800676:	4770      	bx	lr
87800678:	4608      	mov	r0, r1
8780067a:	4770      	bx	lr
8780067c:	4618      	mov	r0, r3
8780067e:	4770      	bx	lr
87800680:	1a08      	subs	r0, r1, r0
87800682:	4770      	bx	lr

87800684 <strspn>:
87800684:	b470      	push	{r4, r5, r6}
87800686:	7804      	ldrb	r4, [r0, #0]
87800688:	4625      	mov	r5, r4
8780068a:	b164      	cbz	r4, 878006a6 <strspn+0x22>
8780068c:	780e      	ldrb	r6, [r1, #0]
8780068e:	2500      	movs	r5, #0
87800690:	b14e      	cbz	r6, 878006a6 <strspn+0x22>
87800692:	42a6      	cmp	r6, r4
87800694:	d00a      	beq.n	878006ac <strspn+0x28>
87800696:	460a      	mov	r2, r1
87800698:	e001      	b.n	8780069e <strspn+0x1a>
8780069a:	42a3      	cmp	r3, r4
8780069c:	d006      	beq.n	878006ac <strspn+0x28>
8780069e:	f812 3f01 	ldrb.w	r3, [r2, #1]!
878006a2:	2b00      	cmp	r3, #0
878006a4:	d1f9      	bne.n	8780069a <strspn+0x16>
878006a6:	4628      	mov	r0, r5
878006a8:	bc70      	pop	{r4, r5, r6}
878006aa:	4770      	bx	lr
878006ac:	f810 4f01 	ldrb.w	r4, [r0, #1]!
878006b0:	3501      	adds	r5, #1
878006b2:	2c00      	cmp	r4, #0
878006b4:	d1ec      	bne.n	87800690 <strspn+0xc>
878006b6:	4628      	mov	r0, r5
878006b8:	bc70      	pop	{r4, r5, r6}
878006ba:	4770      	bx	lr

878006bc <strpbrk>:
878006bc:	b430      	push	{r4, r5}
878006be:	7804      	ldrb	r4, [r0, #0]
878006c0:	b17c      	cbz	r4, 878006e2 <strpbrk+0x26>
878006c2:	780d      	ldrb	r5, [r1, #0]
878006c4:	b14d      	cbz	r5, 878006da <strpbrk+0x1e>
878006c6:	42a5      	cmp	r5, r4
878006c8:	d00c      	beq.n	878006e4 <strpbrk+0x28>
878006ca:	460a      	mov	r2, r1
878006cc:	e001      	b.n	878006d2 <strpbrk+0x16>
878006ce:	42a3      	cmp	r3, r4
878006d0:	d008      	beq.n	878006e4 <strpbrk+0x28>
878006d2:	f812 3f01 	ldrb.w	r3, [r2, #1]!
878006d6:	2b00      	cmp	r3, #0
878006d8:	d1f9      	bne.n	878006ce <strpbrk+0x12>
878006da:	f810 4f01 	ldrb.w	r4, [r0, #1]!
878006de:	2c00      	cmp	r4, #0
878006e0:	d1f0      	bne.n	878006c4 <strpbrk+0x8>
878006e2:	4620      	mov	r0, r4
878006e4:	bc30      	pop	{r4, r5}
878006e6:	4770      	bx	lr

878006e8 <strtok>:
878006e8:	4b26      	ldr	r3, [pc, #152]	; (87800784 <strtok+0x9c>)
878006ea:	4a27      	ldr	r2, [pc, #156]	; (87800788 <strtok+0xa0>)
878006ec:	447b      	add	r3, pc
878006ee:	f853 c002 	ldr.w	ip, [r3, r2]
878006f2:	2800      	cmp	r0, #0
878006f4:	d03c      	beq.n	87800770 <strtok+0x88>
878006f6:	b4f0      	push	{r4, r5, r6, r7}
878006f8:	7804      	ldrb	r4, [r0, #0]
878006fa:	2c00      	cmp	r4, #0
878006fc:	d03d      	beq.n	8780077a <strtok+0x92>
878006fe:	780d      	ldrb	r5, [r1, #0]
87800700:	4607      	mov	r7, r0
87800702:	2600      	movs	r6, #0
87800704:	b14d      	cbz	r5, 8780071a <strtok+0x32>
87800706:	42ac      	cmp	r4, r5
87800708:	d01f      	beq.n	8780074a <strtok+0x62>
8780070a:	460a      	mov	r2, r1
8780070c:	e001      	b.n	87800712 <strtok+0x2a>
8780070e:	42a3      	cmp	r3, r4
87800710:	d01b      	beq.n	8780074a <strtok+0x62>
87800712:	f812 3f01 	ldrb.w	r3, [r2, #1]!
87800716:	2b00      	cmp	r3, #0
87800718:	d1f9      	bne.n	8780070e <strtok+0x26>
8780071a:	5d84      	ldrb	r4, [r0, r6]
8780071c:	4430      	add	r0, r6
8780071e:	4606      	mov	r6, r0
87800720:	b35c      	cbz	r4, 8780077a <strtok+0x92>
87800722:	b14d      	cbz	r5, 87800738 <strtok+0x50>
87800724:	42ac      	cmp	r4, r5
87800726:	d01b      	beq.n	87800760 <strtok+0x78>
87800728:	460a      	mov	r2, r1
8780072a:	e001      	b.n	87800730 <strtok+0x48>
8780072c:	42a3      	cmp	r3, r4
8780072e:	d017      	beq.n	87800760 <strtok+0x78>
87800730:	f812 3f01 	ldrb.w	r3, [r2, #1]!
87800734:	2b00      	cmp	r3, #0
87800736:	d1f9      	bne.n	8780072c <strtok+0x44>
87800738:	f816 4f01 	ldrb.w	r4, [r6, #1]!
8780073c:	2c00      	cmp	r4, #0
8780073e:	d1f0      	bne.n	87800722 <strtok+0x3a>
87800740:	4626      	mov	r6, r4
87800742:	f8cc 6000 	str.w	r6, [ip]
87800746:	bcf0      	pop	{r4, r5, r6, r7}
87800748:	4770      	bx	lr
8780074a:	f817 4f01 	ldrb.w	r4, [r7, #1]!
8780074e:	3601      	adds	r6, #1
87800750:	2c00      	cmp	r4, #0
87800752:	d1d7      	bne.n	87800704 <strtok+0x1c>
87800754:	5d84      	ldrb	r4, [r0, r6]
87800756:	4430      	add	r0, r6
87800758:	4606      	mov	r6, r0
8780075a:	2c00      	cmp	r4, #0
8780075c:	d1e1      	bne.n	87800722 <strtok+0x3a>
8780075e:	e00c      	b.n	8780077a <strtok+0x92>
87800760:	7833      	ldrb	r3, [r6, #0]
87800762:	2b00      	cmp	r3, #0
87800764:	d0ed      	beq.n	87800742 <strtok+0x5a>
87800766:	2300      	movs	r3, #0
87800768:	3601      	adds	r6, #1
8780076a:	f806 3c01 	strb.w	r3, [r6, #-1]
8780076e:	e7e8      	b.n	87800742 <strtok+0x5a>
87800770:	f8dc 0000 	ldr.w	r0, [ip]
87800774:	2800      	cmp	r0, #0
87800776:	d1be      	bne.n	878006f6 <strtok+0xe>
87800778:	4770      	bx	lr
8780077a:	2000      	movs	r0, #0
8780077c:	f8cc 0000 	str.w	r0, [ip]
87800780:	e7e1      	b.n	87800746 <strtok+0x5e>
87800782:	bf00      	nop
87800784:	fffff910 			; <UNDEFINED> instruction: 0xfffff910
87800788:	00000158 	andeq	r0, r0, r8, asr r1

8780078c <strsep>:
8780078c:	b4f0      	push	{r4, r5, r6, r7}
8780078e:	4607      	mov	r7, r0
87800790:	6800      	ldr	r0, [r0, #0]
87800792:	b198      	cbz	r0, 878007bc <strsep+0x30>
87800794:	7804      	ldrb	r4, [r0, #0]
87800796:	b184      	cbz	r4, 878007ba <strsep+0x2e>
87800798:	780e      	ldrb	r6, [r1, #0]
8780079a:	4605      	mov	r5, r0
8780079c:	b14e      	cbz	r6, 878007b2 <strsep+0x26>
8780079e:	42a6      	cmp	r6, r4
878007a0:	d00e      	beq.n	878007c0 <strsep+0x34>
878007a2:	460a      	mov	r2, r1
878007a4:	e001      	b.n	878007aa <strsep+0x1e>
878007a6:	42a3      	cmp	r3, r4
878007a8:	d00a      	beq.n	878007c0 <strsep+0x34>
878007aa:	f812 3f01 	ldrb.w	r3, [r2, #1]!
878007ae:	2b00      	cmp	r3, #0
878007b0:	d1f9      	bne.n	878007a6 <strsep+0x1a>
878007b2:	f815 4f01 	ldrb.w	r4, [r5, #1]!
878007b6:	2c00      	cmp	r4, #0
878007b8:	d1f0      	bne.n	8780079c <strsep+0x10>
878007ba:	603c      	str	r4, [r7, #0]
878007bc:	bcf0      	pop	{r4, r5, r6, r7}
878007be:	4770      	bx	lr
878007c0:	2300      	movs	r3, #0
878007c2:	1c6c      	adds	r4, r5, #1
878007c4:	702b      	strb	r3, [r5, #0]
878007c6:	e7f8      	b.n	878007ba <strsep+0x2e>

878007c8 <memset>:
878007c8:	b132      	cbz	r2, 878007d8 <memset+0x10>
878007ca:	b2c9      	uxtb	r1, r1
878007cc:	4402      	add	r2, r0
878007ce:	4603      	mov	r3, r0
878007d0:	f803 1b01 	strb.w	r1, [r3], #1
878007d4:	4293      	cmp	r3, r2
878007d6:	d1fb      	bne.n	878007d0 <memset+0x8>
878007d8:	4770      	bx	lr
878007da:	bf00      	nop

878007dc <bcopy>:
878007dc:	b13a      	cbz	r2, 878007ee <bcopy+0x12>
878007de:	3901      	subs	r1, #1
878007e0:	4402      	add	r2, r0
878007e2:	f810 3b01 	ldrb.w	r3, [r0], #1
878007e6:	4290      	cmp	r0, r2
878007e8:	f801 3f01 	strb.w	r3, [r1, #1]!
878007ec:	d1f9      	bne.n	878007e2 <bcopy+0x6>
878007ee:	4770      	bx	lr

878007f0 <memcpy>:
878007f0:	b15a      	cbz	r2, 8780080a <memcpy+0x1a>
878007f2:	440a      	add	r2, r1
878007f4:	1e43      	subs	r3, r0, #1
878007f6:	b410      	push	{r4}
878007f8:	f811 4b01 	ldrb.w	r4, [r1], #1
878007fc:	4291      	cmp	r1, r2
878007fe:	f803 4f01 	strb.w	r4, [r3, #1]!
87800802:	d1f9      	bne.n	878007f8 <memcpy+0x8>
87800804:	f85d 4b04 	ldr.w	r4, [sp], #4
87800808:	4770      	bx	lr
8780080a:	4770      	bx	lr

8780080c <memmove>:
8780080c:	4288      	cmp	r0, r1
8780080e:	b410      	push	{r4}
87800810:	d80b      	bhi.n	8780082a <memmove+0x1e>
87800812:	b13a      	cbz	r2, 87800824 <memmove+0x18>
87800814:	440a      	add	r2, r1
87800816:	1e43      	subs	r3, r0, #1
87800818:	f811 4b01 	ldrb.w	r4, [r1], #1
8780081c:	428a      	cmp	r2, r1
8780081e:	f803 4f01 	strb.w	r4, [r3, #1]!
87800822:	d1f9      	bne.n	87800818 <memmove+0xc>
87800824:	f85d 4b04 	ldr.w	r4, [sp], #4
87800828:	4770      	bx	lr
8780082a:	1884      	adds	r4, r0, r2
8780082c:	188b      	adds	r3, r1, r2
8780082e:	2a00      	cmp	r2, #0
87800830:	d0f8      	beq.n	87800824 <memmove+0x18>
87800832:	4622      	mov	r2, r4
87800834:	f813 4d01 	ldrb.w	r4, [r3, #-1]!
87800838:	4299      	cmp	r1, r3
8780083a:	f802 4d01 	strb.w	r4, [r2, #-1]!
8780083e:	d1f9      	bne.n	87800834 <memmove+0x28>
87800840:	f85d 4b04 	ldr.w	r4, [sp], #4
87800844:	4770      	bx	lr
87800846:	bf00      	nop

87800848 <memcmp>:
87800848:	b1aa      	cbz	r2, 87800876 <memcmp+0x2e>
8780084a:	b430      	push	{r4, r5}
8780084c:	4604      	mov	r4, r0
8780084e:	780b      	ldrb	r3, [r1, #0]
87800850:	7800      	ldrb	r0, [r0, #0]
87800852:	1ac0      	subs	r0, r0, r3
87800854:	d10a      	bne.n	8780086c <memcmp+0x24>
87800856:	3a01      	subs	r2, #1
87800858:	188d      	adds	r5, r1, r2
8780085a:	e005      	b.n	87800868 <memcmp+0x20>
8780085c:	f814 3f01 	ldrb.w	r3, [r4, #1]!
87800860:	f811 2f01 	ldrb.w	r2, [r1, #1]!
87800864:	1a9b      	subs	r3, r3, r2
87800866:	d103      	bne.n	87800870 <memcmp+0x28>
87800868:	42a9      	cmp	r1, r5
8780086a:	d1f7      	bne.n	8780085c <memcmp+0x14>
8780086c:	bc30      	pop	{r4, r5}
8780086e:	4770      	bx	lr
87800870:	4618      	mov	r0, r3
87800872:	bc30      	pop	{r4, r5}
87800874:	4770      	bx	lr
87800876:	4610      	mov	r0, r2
87800878:	4770      	bx	lr
8780087a:	bf00      	nop

8780087c <memscan>:
8780087c:	b1c2      	cbz	r2, 878008b0 <memscan+0x34>
8780087e:	7803      	ldrb	r3, [r0, #0]
87800880:	4299      	cmp	r1, r3
87800882:	d015      	beq.n	878008b0 <memscan+0x34>
87800884:	1c43      	adds	r3, r0, #1
87800886:	4402      	add	r2, r0
87800888:	4293      	cmp	r3, r2
8780088a:	4618      	mov	r0, r3
8780088c:	f103 0301 	add.w	r3, r3, #1
87800890:	d00f      	beq.n	878008b2 <memscan+0x36>
87800892:	b410      	push	{r4}
87800894:	7804      	ldrb	r4, [r0, #0]
87800896:	428c      	cmp	r4, r1
87800898:	d007      	beq.n	878008aa <memscan+0x2e>
8780089a:	4293      	cmp	r3, r2
8780089c:	4618      	mov	r0, r3
8780089e:	f103 0301 	add.w	r3, r3, #1
878008a2:	d002      	beq.n	878008aa <memscan+0x2e>
878008a4:	7804      	ldrb	r4, [r0, #0]
878008a6:	428c      	cmp	r4, r1
878008a8:	d1f7      	bne.n	8780089a <memscan+0x1e>
878008aa:	f85d 4b04 	ldr.w	r4, [sp], #4
878008ae:	4770      	bx	lr
878008b0:	4770      	bx	lr
878008b2:	4770      	bx	lr

878008b4 <strstr>:
878008b4:	e92d 43f0 	stmdb	sp!, {r4, r5, r6, r7, r8, r9, lr}
878008b8:	f891 8000 	ldrb.w	r8, [r1]
878008bc:	f1b8 0f00 	cmp.w	r8, #0
878008c0:	d027      	beq.n	87800912 <strstr+0x5e>
878008c2:	460b      	mov	r3, r1
878008c4:	f813 2f01 	ldrb.w	r2, [r3, #1]!
878008c8:	2a00      	cmp	r2, #0
878008ca:	d1fb      	bne.n	878008c4 <strstr+0x10>
878008cc:	ebb3 0e01 	subs.w	lr, r3, r1
878008d0:	d01f      	beq.n	87800912 <strstr+0x5e>
878008d2:	7802      	ldrb	r2, [r0, #0]
878008d4:	4694      	mov	ip, r2
878008d6:	b132      	cbz	r2, 878008e6 <strstr+0x32>
878008d8:	4684      	mov	ip, r0
878008da:	f81c 3f01 	ldrb.w	r3, [ip, #1]!
878008de:	2b00      	cmp	r3, #0
878008e0:	d1fb      	bne.n	878008da <strstr+0x26>
878008e2:	ebac 0c00 	sub.w	ip, ip, r0
878008e6:	45e6      	cmp	lr, ip
878008e8:	dc1a      	bgt.n	87800920 <strstr+0x6c>
878008ea:	f10e 39ff 	add.w	r9, lr, #4294967295	; 0xffffffff
878008ee:	4607      	mov	r7, r0
878008f0:	f10c 3cff 	add.w	ip, ip, #4294967295	; 0xffffffff
878008f4:	eb09 0607 	add.w	r6, r9, r7
878008f8:	4638      	mov	r0, r7
878008fa:	460d      	mov	r5, r1
878008fc:	463b      	mov	r3, r7
878008fe:	4644      	mov	r4, r8
87800900:	e003      	b.n	8780090a <strstr+0x56>
87800902:	f813 2f01 	ldrb.w	r2, [r3, #1]!
87800906:	f815 4f01 	ldrb.w	r4, [r5, #1]!
8780090a:	42a2      	cmp	r2, r4
8780090c:	d103      	bne.n	87800916 <strstr+0x62>
8780090e:	429e      	cmp	r6, r3
87800910:	d1f7      	bne.n	87800902 <strstr+0x4e>
87800912:	e8bd 83f0 	ldmia.w	sp!, {r4, r5, r6, r7, r8, r9, pc}
87800916:	45f4      	cmp	ip, lr
87800918:	db02      	blt.n	87800920 <strstr+0x6c>
8780091a:	f817 2f01 	ldrb.w	r2, [r7, #1]!
8780091e:	e7e7      	b.n	878008f0 <strstr+0x3c>
87800920:	2000      	movs	r0, #0
87800922:	e8bd 83f0 	ldmia.w	sp!, {r4, r5, r6, r7, r8, r9, pc}
87800926:	bf00      	nop

87800928 <memchr>:
87800928:	4402      	add	r2, r0
8780092a:	b2c9      	uxtb	r1, r1
8780092c:	4290      	cmp	r0, r2
8780092e:	4603      	mov	r3, r0
87800930:	d012      	beq.n	87800958 <memchr+0x30>
87800932:	b410      	push	{r4}
87800934:	f813 4b01 	ldrb.w	r4, [r3], #1
87800938:	428c      	cmp	r4, r1
8780093a:	d006      	beq.n	8780094a <memchr+0x22>
8780093c:	4293      	cmp	r3, r2
8780093e:	4618      	mov	r0, r3
87800940:	d006      	beq.n	87800950 <memchr+0x28>
87800942:	f813 4b01 	ldrb.w	r4, [r3], #1
87800946:	428c      	cmp	r4, r1
87800948:	d1f8      	bne.n	8780093c <memchr+0x14>
8780094a:	f85d 4b04 	ldr.w	r4, [sp], #4
8780094e:	4770      	bx	lr
87800950:	2000      	movs	r0, #0
87800952:	f85d 4b04 	ldr.w	r4, [sp], #4
87800956:	4770      	bx	lr
87800958:	2000      	movs	r0, #0
8780095a:	4770      	bx	lr

8780095c <number>:
8780095c:	e92d 4ff0 	stmdb	sp!, {r4, r5, r6, r7, r8, r9, sl, fp, lr}
87800960:	b0a5      	sub	sp, #148	; 0x94
87800962:	460d      	mov	r5, r1
87800964:	4604      	mov	r4, r0
87800966:	992e      	ldr	r1, [sp, #184]	; 0xb8
87800968:	f8dd b0c4 	ldr.w	fp, [sp, #196]	; 0xc4
8780096c:	390a      	subs	r1, #10
8780096e:	f00b 0020 	and.w	r0, fp, #32
87800972:	9003      	str	r0, [sp, #12]
87800974:	bf18      	it	ne
87800976:	2101      	movne	r1, #1
87800978:	ea01 115b 	and.w	r1, r1, fp, lsr #5
8780097c:	9100      	str	r1, [sp, #0]
8780097e:	f01b 0110 	ands.w	r1, fp, #16
87800982:	bf18      	it	ne
87800984:	f02b 0b01 	bicne.w	fp, fp, #1
87800988:	9101      	str	r1, [sp, #4]
8780098a:	f01b 0102 	ands.w	r1, fp, #2
8780098e:	d011      	beq.n	878009b4 <number+0x58>
87800990:	2a00      	cmp	r2, #0
87800992:	f173 0100 	sbcs.w	r1, r3, #0
87800996:	f2c0 8168 	blt.w	87800c6a <number+0x30e>
8780099a:	f01b 0f04 	tst.w	fp, #4
8780099e:	f040 8183 	bne.w	87800ca8 <number+0x34c>
878009a2:	f01b 0108 	ands.w	r1, fp, #8
878009a6:	d005      	beq.n	878009b4 <number+0x58>
878009a8:	992f      	ldr	r1, [sp, #188]	; 0xbc
878009aa:	3901      	subs	r1, #1
878009ac:	912f      	str	r1, [sp, #188]	; 0xbc
878009ae:	2120      	movs	r1, #32
878009b0:	9102      	str	r1, [sp, #8]
878009b2:	e000      	b.n	878009b6 <number+0x5a>
878009b4:	9102      	str	r1, [sp, #8]
878009b6:	9900      	ldr	r1, [sp, #0]
878009b8:	2900      	cmp	r1, #0
878009ba:	d046      	beq.n	87800a4a <number+0xee>
878009bc:	992e      	ldr	r1, [sp, #184]	; 0xb8
878009be:	2910      	cmp	r1, #16
878009c0:	992f      	ldr	r1, [sp, #188]	; 0xbc
878009c2:	f000 815c 	beq.w	87800c7e <number+0x322>
878009c6:	3901      	subs	r1, #1
878009c8:	912f      	str	r1, [sp, #188]	; 0xbc
878009ca:	ea52 0103 	orrs.w	r1, r2, r3
878009ce:	d040      	beq.n	87800a52 <number+0xf6>
878009d0:	992e      	ldr	r1, [sp, #184]	; 0xb8
878009d2:	2910      	cmp	r1, #16
878009d4:	f101 39ff 	add.w	r9, r1, #4294967295	; 0xffffffff
878009d8:	bf0a      	itet	eq
878009da:	2004      	moveq	r0, #4
878009dc:	2003      	movne	r0, #3
878009de:	f04f 090f 	moveq.w	r9, #15
878009e2:	f1c0 0120 	rsb	r1, r0, #32
878009e6:	f8df a398 	ldr.w	sl, [pc, #920]	; 87800d80 <number+0x424>
878009ea:	9506      	str	r5, [sp, #24]
878009ec:	f10d 0e2b 	add.w	lr, sp, #43	; 0x2b
878009f0:	f8cd b0c4 	str.w	fp, [sp, #196]	; 0xc4
878009f4:	2600      	movs	r6, #0
878009f6:	44fa      	add	sl, pc
878009f8:	9404      	str	r4, [sp, #16]
878009fa:	f8dd b00c 	ldr.w	fp, [sp, #12]
878009fe:	460d      	mov	r5, r1
87800a00:	e000      	b.n	87800a04 <number+0xa8>
87800a02:	4666      	mov	r6, ip
87800a04:	f1b0 0720 	subs.w	r7, r0, #32
87800a08:	fa43 f800 	asr.w	r8, r3, r0
87800a0c:	fa43 f707 	asr.w	r7, r3, r7
87800a10:	fa22 f100 	lsr.w	r1, r2, r0
87800a14:	fa03 f305 	lsl.w	r3, r3, r5
87800a18:	b2d4      	uxtb	r4, r2
87800a1a:	ea41 0103 	orr.w	r1, r1, r3
87800a1e:	ea04 0409 	and.w	r4, r4, r9
87800a22:	bf58      	it	pl
87800a24:	4339      	orrpl	r1, r7
87800a26:	4643      	mov	r3, r8
87800a28:	f81a 4004 	ldrb.w	r4, [sl, r4]
87800a2c:	f106 0c01 	add.w	ip, r6, #1
87800a30:	460a      	mov	r2, r1
87800a32:	ea52 0103 	orrs.w	r1, r2, r3
87800a36:	ea4b 0404 	orr.w	r4, fp, r4
87800a3a:	f80e 4f01 	strb.w	r4, [lr, #1]!
87800a3e:	d1e0      	bne.n	87800a02 <number+0xa6>
87800a40:	9c04      	ldr	r4, [sp, #16]
87800a42:	9d06      	ldr	r5, [sp, #24]
87800a44:	f8dd b0c4 	ldr.w	fp, [sp, #196]	; 0xc4
87800a48:	e009      	b.n	87800a5e <number+0x102>
87800a4a:	ea52 0103 	orrs.w	r1, r2, r3
87800a4e:	f040 8083 	bne.w	87800b58 <number+0x1fc>
87800a52:	2600      	movs	r6, #0
87800a54:	f04f 0c01 	mov.w	ip, #1
87800a58:	2330      	movs	r3, #48	; 0x30
87800a5a:	f88d 302c 	strb.w	r3, [sp, #44]	; 0x2c
87800a5e:	9b30      	ldr	r3, [sp, #192]	; 0xc0
87800a60:	4563      	cmp	r3, ip
87800a62:	bfb8      	it	lt
87800a64:	4663      	movlt	r3, ip
87800a66:	f01b 0f11 	tst.w	fp, #17
87800a6a:	461a      	mov	r2, r3
87800a6c:	9b2f      	ldr	r3, [sp, #188]	; 0xbc
87800a6e:	eba3 0302 	sub.w	r3, r3, r2
87800a72:	f103 31ff 	add.w	r1, r3, #4294967295	; 0xffffffff
87800a76:	d10f      	bne.n	87800a98 <number+0x13c>
87800a78:	2900      	cmp	r1, #0
87800a7a:	bfb8      	it	lt
87800a7c:	1e99      	sublt	r1, r3, #2
87800a7e:	db0b      	blt.n	87800a98 <number+0x13c>
87800a80:	4423      	add	r3, r4
87800a82:	2120      	movs	r1, #32
87800a84:	42a5      	cmp	r5, r4
87800a86:	f104 0401 	add.w	r4, r4, #1
87800a8a:	bf88      	it	hi
87800a8c:	f804 1c01 	strbhi.w	r1, [r4, #-1]
87800a90:	429c      	cmp	r4, r3
87800a92:	d1f7      	bne.n	87800a84 <number+0x128>
87800a94:	f06f 0101 	mvn.w	r1, #1
87800a98:	9b02      	ldr	r3, [sp, #8]
87800a9a:	b12b      	cbz	r3, 87800aa8 <number+0x14c>
87800a9c:	42ac      	cmp	r4, r5
87800a9e:	f104 0401 	add.w	r4, r4, #1
87800aa2:	bf38      	it	cc
87800aa4:	f804 3c01 	strbcc.w	r3, [r4, #-1]
87800aa8:	9b00      	ldr	r3, [sp, #0]
87800aaa:	b153      	cbz	r3, 87800ac2 <number+0x166>
87800aac:	42ac      	cmp	r4, r5
87800aae:	982e      	ldr	r0, [sp, #184]	; 0xb8
87800ab0:	bf3c      	itt	cc
87800ab2:	2330      	movcc	r3, #48	; 0x30
87800ab4:	7023      	strbcc	r3, [r4, #0]
87800ab6:	1c63      	adds	r3, r4, #1
87800ab8:	2810      	cmp	r0, #16
87800aba:	bf18      	it	ne
87800abc:	461c      	movne	r4, r3
87800abe:	f000 80e9 	beq.w	87800c94 <number+0x338>
87800ac2:	9b01      	ldr	r3, [sp, #4]
87800ac4:	b9ab      	cbnz	r3, 87800af2 <number+0x196>
87800ac6:	f01b 0f01 	tst.w	fp, #1
87800aca:	bf0c      	ite	eq
87800acc:	2320      	moveq	r3, #32
87800ace:	2330      	movne	r3, #48	; 0x30
87800ad0:	2900      	cmp	r1, #0
87800ad2:	bfb8      	it	lt
87800ad4:	f101 31ff 	addlt.w	r1, r1, #4294967295	; 0xffffffff
87800ad8:	db0b      	blt.n	87800af2 <number+0x196>
87800ada:	3101      	adds	r1, #1
87800adc:	4421      	add	r1, r4
87800ade:	42a5      	cmp	r5, r4
87800ae0:	f104 0401 	add.w	r4, r4, #1
87800ae4:	bf88      	it	hi
87800ae6:	f804 3c01 	strbhi.w	r3, [r4, #-1]
87800aea:	428c      	cmp	r4, r1
87800aec:	d1f7      	bne.n	87800ade <number+0x182>
87800aee:	f06f 0101 	mvn.w	r1, #1
87800af2:	4594      	cmp	ip, r2
87800af4:	bfbe      	ittt	lt
87800af6:	eba2 0c0c 	sublt.w	ip, r2, ip
87800afa:	2330      	movlt	r3, #48	; 0x30
87800afc:	44a4      	addlt	ip, r4
87800afe:	da07      	bge.n	87800b10 <number+0x1b4>
87800b00:	42a5      	cmp	r5, r4
87800b02:	f104 0401 	add.w	r4, r4, #1
87800b06:	bf88      	it	hi
87800b08:	f804 3c01 	strbhi.w	r3, [r4, #-1]
87800b0c:	4564      	cmp	r4, ip
87800b0e:	d1f7      	bne.n	87800b00 <number+0x1a4>
87800b10:	2e00      	cmp	r6, #0
87800b12:	f2c0 80cf 	blt.w	87800cb4 <number+0x358>
87800b16:	af0b      	add	r7, sp, #44	; 0x2c
87800b18:	4632      	mov	r2, r6
87800b1a:	4623      	mov	r3, r4
87800b1c:	429d      	cmp	r5, r3
87800b1e:	f103 0301 	add.w	r3, r3, #1
87800b22:	bf88      	it	hi
87800b24:	5dd0      	ldrbhi	r0, [r2, r7]
87800b26:	f102 32ff 	add.w	r2, r2, #4294967295	; 0xffffffff
87800b2a:	bf88      	it	hi
87800b2c:	f803 0c01 	strbhi.w	r0, [r3, #-1]
87800b30:	1c50      	adds	r0, r2, #1
87800b32:	d1f3      	bne.n	87800b1c <number+0x1c0>
87800b34:	1c70      	adds	r0, r6, #1
87800b36:	4420      	add	r0, r4
87800b38:	2900      	cmp	r1, #0
87800b3a:	db0a      	blt.n	87800b52 <number+0x1f6>
87800b3c:	1c4b      	adds	r3, r1, #1
87800b3e:	2220      	movs	r2, #32
87800b40:	4403      	add	r3, r0
87800b42:	4285      	cmp	r5, r0
87800b44:	f100 0001 	add.w	r0, r0, #1
87800b48:	bf88      	it	hi
87800b4a:	f800 2c01 	strbhi.w	r2, [r0, #-1]
87800b4e:	4298      	cmp	r0, r3
87800b50:	d1f7      	bne.n	87800b42 <number+0x1e6>
87800b52:	b025      	add	sp, #148	; 0x94
87800b54:	e8bd 8ff0 	ldmia.w	sp!, {r4, r5, r6, r7, r8, r9, sl, fp, pc}
87800b58:	992e      	ldr	r1, [sp, #184]	; 0xb8
87800b5a:	290a      	cmp	r1, #10
87800b5c:	f47f af38 	bne.w	878009d0 <number+0x74>
87800b60:	4610      	mov	r0, r2
87800b62:	4619      	mov	r1, r3
87800b64:	f248 629f 	movw	r2, #34463	; 0x869f
87800b68:	2300      	movs	r3, #0
87800b6a:	f2c0 0201 	movt	r2, #1
87800b6e:	428b      	cmp	r3, r1
87800b70:	bf08      	it	eq
87800b72:	4282      	cmpeq	r2, r0
87800b74:	e9cd 0108 	strd	r0, r1, [sp, #32]
87800b78:	f080 80fe 	bcs.w	87800d78 <number+0x41c>
87800b7c:	e9cd 2304 	strd	r2, r3, [sp, #16]
87800b80:	f248 63a0 	movw	r3, #34464	; 0x86a0
87800b84:	f645 22c5 	movw	r2, #23237	; 0x5ac5
87800b88:	f2c0 0301 	movt	r3, #1
87800b8c:	f6c0 227c 	movt	r2, #2684	; 0xa7c
87800b90:	e9cd 4506 	strd	r4, r5, [sp, #24]
87800b94:	f10d 0631 	add.w	r6, sp, #49	; 0x31
87800b98:	4604      	mov	r4, r0
87800b9a:	4617      	mov	r7, r2
87800b9c:	460d      	mov	r5, r1
87800b9e:	f8cd b0c4 	str.w	fp, [sp, #196]	; 0xc4
87800ba2:	4698      	mov	r8, r3
87800ba4:	e053      	b.n	87800c4e <number+0x2f2>
87800ba6:	09d8      	lsrs	r0, r3, #7
87800ba8:	2500      	movs	r5, #0
87800baa:	4603      	mov	r3, r0
87800bac:	fb08 4010 	mls	r0, r8, r0, r4
87800bb0:	461c      	mov	r4, r3
87800bb2:	e9cd 4508 	strd	r4, r5, [sp, #32]
87800bb6:	f3c0 1203 	ubfx	r2, r0, #4, #4
87800bba:	f3c0 2a03 	ubfx	sl, r0, #8, #4
87800bbe:	eb02 0c0a 	add.w	ip, r2, sl
87800bc2:	ea4f 3e10 	mov.w	lr, r0, lsr #12
87800bc6:	44f4      	add	ip, lr
87800bc8:	f000 030f 	and.w	r3, r0, #15
87800bcc:	2106      	movs	r1, #6
87800bce:	eb0e 00ce 	add.w	r0, lr, lr, lsl #3
87800bd2:	fb01 310c 	mla	r1, r1, ip, r3
87800bd6:	23cd      	movs	r3, #205	; 0xcd
87800bd8:	4410      	add	r0, r2
87800bda:	eb0a 028a 	add.w	r2, sl, sl, lsl #2
87800bde:	4410      	add	r0, r2
87800be0:	f04f 0b0a 	mov.w	fp, #10
87800be4:	220d      	movs	r2, #13
87800be6:	46b1      	mov	r9, r6
87800be8:	3605      	adds	r6, #5
87800bea:	fb03 fc01 	mul.w	ip, r3, r1
87800bee:	ea4f 2cdc 	mov.w	ip, ip, lsr #11
87800bf2:	4460      	add	r0, ip
87800bf4:	fb0b 1c1c 	mls	ip, fp, ip, r1
87800bf8:	fb03 f100 	mul.w	r1, r3, r0
87800bfc:	f10c 0c30 	add.w	ip, ip, #48	; 0x30
87800c00:	f806 cc0a 	strb.w	ip, [r6, #-10]
87800c04:	0ac9      	lsrs	r1, r1, #11
87800c06:	eb01 0a4a 	add.w	sl, r1, sl, lsl #1
87800c0a:	fb0b 0111 	mls	r1, fp, r1, r0
87800c0e:	fb02 f20a 	mul.w	r2, r2, sl
87800c12:	3130      	adds	r1, #48	; 0x30
87800c14:	f806 1c09 	strb.w	r1, [r6, #-9]
87800c18:	09d2      	lsrs	r2, r2, #7
87800c1a:	eb02 0e8e 	add.w	lr, r2, lr, lsl #2
87800c1e:	fb0b a212 	mls	r2, fp, r2, sl
87800c22:	fb03 f30e 	mul.w	r3, r3, lr
87800c26:	3230      	adds	r2, #48	; 0x30
87800c28:	f806 2c08 	strb.w	r2, [r6, #-8]
87800c2c:	0adb      	lsrs	r3, r3, #11
87800c2e:	f103 0230 	add.w	r2, r3, #48	; 0x30
87800c32:	f806 2c06 	strb.w	r2, [r6, #-6]
87800c36:	fb0b ee13 	mls	lr, fp, r3, lr
87800c3a:	e9dd 2304 	ldrd	r2, r3, [sp, #16]
87800c3e:	42ab      	cmp	r3, r5
87800c40:	bf08      	it	eq
87800c42:	42a2      	cmpeq	r2, r4
87800c44:	f10e 0e30 	add.w	lr, lr, #48	; 0x30
87800c48:	f806 ec07 	strb.w	lr, [r6, #-7]
87800c4c:	d234      	bcs.n	87800cb8 <number+0x35c>
87800c4e:	0962      	lsrs	r2, r4, #5
87800c50:	4628      	mov	r0, r5
87800c52:	2100      	movs	r1, #0
87800c54:	4301      	orrs	r1, r0
87800c56:	fba2 2307 	umull	r2, r3, r2, r7
87800c5a:	d0a4      	beq.n	87800ba6 <number+0x24a>
87800c5c:	4641      	mov	r1, r8
87800c5e:	a808      	add	r0, sp, #32
87800c60:	f7ff fbc0 	bl	878003e4 <__div64_32>
87800c64:	e9dd 4508 	ldrd	r4, r5, [sp, #32]
87800c68:	e7a5      	b.n	87800bb6 <number+0x25a>
87800c6a:	992f      	ldr	r1, [sp, #188]	; 0xbc
87800c6c:	4252      	negs	r2, r2
87800c6e:	f101 31ff 	add.w	r1, r1, #4294967295	; 0xffffffff
87800c72:	eb63 0343 	sbc.w	r3, r3, r3, lsl #1
87800c76:	912f      	str	r1, [sp, #188]	; 0xbc
87800c78:	212d      	movs	r1, #45	; 0x2d
87800c7a:	9102      	str	r1, [sp, #8]
87800c7c:	e69b      	b.n	878009b6 <number+0x5a>
87800c7e:	3902      	subs	r1, #2
87800c80:	912f      	str	r1, [sp, #188]	; 0xbc
87800c82:	ea52 0103 	orrs.w	r1, r2, r3
87800c86:	bf1c      	itt	ne
87800c88:	f04f 090f 	movne.w	r9, #15
87800c8c:	2004      	movne	r0, #4
87800c8e:	f47f aea8 	bne.w	878009e2 <number+0x86>
87800c92:	e6de      	b.n	87800a52 <number+0xf6>
87800c94:	429d      	cmp	r5, r3
87800c96:	f104 0402 	add.w	r4, r4, #2
87800c9a:	bf82      	ittt	hi
87800c9c:	9b03      	ldrhi	r3, [sp, #12]
87800c9e:	f043 0358 	orrhi.w	r3, r3, #88	; 0x58
87800ca2:	f804 3c01 	strbhi.w	r3, [r4, #-1]
87800ca6:	e70c      	b.n	87800ac2 <number+0x166>
87800ca8:	992f      	ldr	r1, [sp, #188]	; 0xbc
87800caa:	3901      	subs	r1, #1
87800cac:	912f      	str	r1, [sp, #188]	; 0xbc
87800cae:	212b      	movs	r1, #43	; 0x2b
87800cb0:	9102      	str	r1, [sp, #8]
87800cb2:	e680      	b.n	878009b6 <number+0x5a>
87800cb4:	4620      	mov	r0, r4
87800cb6:	e73f      	b.n	87800b38 <number+0x1dc>
87800cb8:	4620      	mov	r0, r4
87800cba:	f8dd b0c4 	ldr.w	fp, [sp, #196]	; 0xc4
87800cbe:	e9dd 4506 	ldrd	r4, r5, [sp, #24]
87800cc2:	f10d 0e2c 	add.w	lr, sp, #44	; 0x2c
87800cc6:	4607      	mov	r7, r0
87800cc8:	f3c0 1603 	ubfx	r6, r0, #4, #4
87800ccc:	f3c0 2303 	ubfx	r3, r0, #8, #4
87800cd0:	ea4f 3c17 	mov.w	ip, r7, lsr #12
87800cd4:	18f0      	adds	r0, r6, r3
87800cd6:	f007 020f 	and.w	r2, r7, #15
87800cda:	4460      	add	r0, ip
87800cdc:	2706      	movs	r7, #6
87800cde:	eb0c 01cc 	add.w	r1, ip, ip, lsl #3
87800ce2:	fb07 2200 	mla	r2, r7, r0, r2
87800ce6:	440e      	add	r6, r1
87800ce8:	27cd      	movs	r7, #205	; 0xcd
87800cea:	eb03 0183 	add.w	r1, r3, r3, lsl #2
87800cee:	440e      	add	r6, r1
87800cf0:	200a      	movs	r0, #10
87800cf2:	fb07 f102 	mul.w	r1, r7, r2
87800cf6:	0ac9      	lsrs	r1, r1, #11
87800cf8:	fb00 2211 	mls	r2, r0, r1, r2
87800cfc:	1989      	adds	r1, r1, r6
87800cfe:	bf08      	it	eq
87800d00:	f109 0c01 	addeq.w	ip, r9, #1
87800d04:	f102 0230 	add.w	r2, r2, #48	; 0x30
87800d08:	f889 2000 	strb.w	r2, [r9]
87800d0c:	d02f      	beq.n	87800d6e <number+0x412>
87800d0e:	fb07 f201 	mul.w	r2, r7, r1
87800d12:	0ad2      	lsrs	r2, r2, #11
87800d14:	eb02 0343 	add.w	r3, r2, r3, lsl #1
87800d18:	fb00 1212 	mls	r2, r0, r2, r1
87800d1c:	3230      	adds	r2, #48	; 0x30
87800d1e:	f889 2001 	strb.w	r2, [r9, #1]
87800d22:	ea5c 0203 	orrs.w	r2, ip, r3
87800d26:	bf08      	it	eq
87800d28:	f109 0c02 	addeq.w	ip, r9, #2
87800d2c:	d01f      	beq.n	87800d6e <number+0x412>
87800d2e:	220d      	movs	r2, #13
87800d30:	fb02 f203 	mul.w	r2, r2, r3
87800d34:	09d2      	lsrs	r2, r2, #7
87800d36:	fb00 3312 	mls	r3, r0, r2, r3
87800d3a:	eb12 028c 	adds.w	r2, r2, ip, lsl #2
87800d3e:	bf08      	it	eq
87800d40:	f109 0c03 	addeq.w	ip, r9, #3
87800d44:	f103 0330 	add.w	r3, r3, #48	; 0x30
87800d48:	f889 3002 	strb.w	r3, [r9, #2]
87800d4c:	d00f      	beq.n	87800d6e <number+0x412>
87800d4e:	fb07 f302 	mul.w	r3, r7, r2
87800d52:	f109 0c04 	add.w	ip, r9, #4
87800d56:	0adb      	lsrs	r3, r3, #11
87800d58:	fb00 2213 	mls	r2, r0, r3, r2
87800d5c:	3230      	adds	r2, #48	; 0x30
87800d5e:	f889 2003 	strb.w	r2, [r9, #3]
87800d62:	b123      	cbz	r3, 87800d6e <number+0x412>
87800d64:	f109 0c05 	add.w	ip, r9, #5
87800d68:	3330      	adds	r3, #48	; 0x30
87800d6a:	f889 3004 	strb.w	r3, [r9, #4]
87800d6e:	ebac 0c0e 	sub.w	ip, ip, lr
87800d72:	f10c 36ff 	add.w	r6, ip, #4294967295	; 0xffffffff
87800d76:	e672      	b.n	87800a5e <number+0x102>
87800d78:	f10d 0e2c 	add.w	lr, sp, #44	; 0x2c
87800d7c:	46f1      	mov	r9, lr
87800d7e:	e7a2      	b.n	87800cc6 <number+0x36a>
87800d80:	000035f6 	strdeq	r3, [r0], -r6

87800d84 <simple_strtoul>:
87800d84:	4b36      	ldr	r3, [pc, #216]	; (87800e60 <simple_strtoul+0xdc>)
87800d86:	b4f0      	push	{r4, r5, r6, r7}
87800d88:	447b      	add	r3, pc
87800d8a:	4607      	mov	r7, r0
87800d8c:	7805      	ldrb	r5, [r0, #0]
87800d8e:	bb32      	cbnz	r2, 87800dde <simple_strtoul+0x5a>
87800d90:	2d30      	cmp	r5, #48	; 0x30
87800d92:	d044      	beq.n	87800e1e <simple_strtoul+0x9a>
87800d94:	4833      	ldr	r0, [pc, #204]	; (87800e64 <simple_strtoul+0xe0>)
87800d96:	462c      	mov	r4, r5
87800d98:	220a      	movs	r2, #10
87800d9a:	581e      	ldr	r6, [r3, r0]
87800d9c:	5d73      	ldrb	r3, [r6, r5]
87800d9e:	f003 0044 	and.w	r0, r3, #68	; 0x44
87800da2:	b1c0      	cbz	r0, 87800dd6 <simple_strtoul+0x52>
87800da4:	2000      	movs	r0, #0
87800da6:	e008      	b.n	87800dba <simple_strtoul+0x36>
87800da8:	f817 5f01 	ldrb.w	r5, [r7, #1]!
87800dac:	fb02 4000 	mla	r0, r2, r0, r4
87800db0:	5d73      	ldrb	r3, [r6, r5]
87800db2:	462c      	mov	r4, r5
87800db4:	f013 0f44 	tst.w	r3, #68	; 0x44
87800db8:	d00d      	beq.n	87800dd6 <simple_strtoul+0x52>
87800dba:	f013 0f04 	tst.w	r3, #4
87800dbe:	f1a4 0430 	sub.w	r4, r4, #48	; 0x30
87800dc2:	d106      	bne.n	87800dd2 <simple_strtoul+0x4e>
87800dc4:	f1a5 0420 	sub.w	r4, r5, #32
87800dc8:	079b      	lsls	r3, r3, #30
87800dca:	bf48      	it	mi
87800dcc:	b2e5      	uxtbmi	r5, r4
87800dce:	f1a5 0437 	sub.w	r4, r5, #55	; 0x37
87800dd2:	4294      	cmp	r4, r2
87800dd4:	d3e8      	bcc.n	87800da8 <simple_strtoul+0x24>
87800dd6:	b101      	cbz	r1, 87800dda <simple_strtoul+0x56>
87800dd8:	600f      	str	r7, [r1, #0]
87800dda:	bcf0      	pop	{r4, r5, r6, r7}
87800ddc:	4770      	bx	lr
87800dde:	2a10      	cmp	r2, #16
87800de0:	d006      	beq.n	87800df0 <simple_strtoul+0x6c>
87800de2:	4820      	ldr	r0, [pc, #128]	; (87800e64 <simple_strtoul+0xe0>)
87800de4:	462c      	mov	r4, r5
87800de6:	581e      	ldr	r6, [r3, r0]
87800de8:	5d73      	ldrb	r3, [r6, r5]
87800dea:	f003 0044 	and.w	r0, r3, #68	; 0x44
87800dee:	e7d8      	b.n	87800da2 <simple_strtoul+0x1e>
87800df0:	2d30      	cmp	r5, #48	; 0x30
87800df2:	d1f6      	bne.n	87800de2 <simple_strtoul+0x5e>
87800df4:	4c1b      	ldr	r4, [pc, #108]	; (87800e64 <simple_strtoul+0xe0>)
87800df6:	7840      	ldrb	r0, [r0, #1]
87800df8:	591e      	ldr	r6, [r3, r4]
87800dfa:	5c33      	ldrb	r3, [r6, r0]
87800dfc:	079c      	lsls	r4, r3, #30
87800dfe:	bf44      	itt	mi
87800e00:	3820      	submi	r0, #32
87800e02:	b2c0      	uxtbmi	r0, r0
87800e04:	2858      	cmp	r0, #88	; 0x58
87800e06:	bf0d      	iteet	eq
87800e08:	78bd      	ldrbeq	r5, [r7, #2]
87800e0a:	2430      	movne	r4, #48	; 0x30
87800e0c:	f896 3030 	ldrbne.w	r3, [r6, #48]	; 0x30
87800e10:	3702      	addeq	r7, #2
87800e12:	bf04      	itt	eq
87800e14:	5d73      	ldrbeq	r3, [r6, r5]
87800e16:	462c      	moveq	r4, r5
87800e18:	f003 0044 	and.w	r0, r3, #68	; 0x44
87800e1c:	e7c1      	b.n	87800da2 <simple_strtoul+0x1e>
87800e1e:	4a11      	ldr	r2, [pc, #68]	; (87800e64 <simple_strtoul+0xe0>)
87800e20:	3001      	adds	r0, #1
87800e22:	787d      	ldrb	r5, [r7, #1]
87800e24:	589e      	ldr	r6, [r3, r2]
87800e26:	462c      	mov	r4, r5
87800e28:	5d73      	ldrb	r3, [r6, r5]
87800e2a:	079a      	lsls	r2, r3, #30
87800e2c:	bf4a      	itet	mi
87800e2e:	f1a5 0220 	submi.w	r2, r5, #32
87800e32:	462a      	movpl	r2, r5
87800e34:	b2d2      	uxtbmi	r2, r2
87800e36:	2a58      	cmp	r2, #88	; 0x58
87800e38:	d004      	beq.n	87800e44 <simple_strtoul+0xc0>
87800e3a:	4607      	mov	r7, r0
87800e3c:	2208      	movs	r2, #8
87800e3e:	f003 0044 	and.w	r0, r3, #68	; 0x44
87800e42:	e7ae      	b.n	87800da2 <simple_strtoul+0x1e>
87800e44:	f897 c002 	ldrb.w	ip, [r7, #2]
87800e48:	f816 200c 	ldrb.w	r2, [r6, ip]
87800e4c:	f012 0f44 	tst.w	r2, #68	; 0x44
87800e50:	d0f3      	beq.n	87800e3a <simple_strtoul+0xb6>
87800e52:	4613      	mov	r3, r2
87800e54:	4664      	mov	r4, ip
87800e56:	3702      	adds	r7, #2
87800e58:	4665      	mov	r5, ip
87800e5a:	2210      	movs	r2, #16
87800e5c:	e7a2      	b.n	87800da4 <simple_strtoul+0x20>
87800e5e:	bf00      	nop
87800e60:	fffff274 			; <UNDEFINED> instruction: 0xfffff274
87800e64:	0000015c 	andeq	r0, r0, ip, asr r1

87800e68 <simple_strtol>:
87800e68:	b510      	push	{r4, lr}
87800e6a:	7804      	ldrb	r4, [r0, #0]
87800e6c:	2c2d      	cmp	r4, #45	; 0x2d
87800e6e:	d003      	beq.n	87800e78 <simple_strtol+0x10>
87800e70:	e8bd 4010 	ldmia.w	sp!, {r4, lr}
87800e74:	f7ff bf86 	b.w	87800d84 <simple_strtoul>
87800e78:	3001      	adds	r0, #1
87800e7a:	f7ff ff83 	bl	87800d84 <simple_strtoul>
87800e7e:	4240      	negs	r0, r0
87800e80:	bd10      	pop	{r4, pc}
87800e82:	bf00      	nop

87800e84 <simple_strtoull>:
87800e84:	4b4b      	ldr	r3, [pc, #300]	; (87800fb4 <simple_strtoull+0x130>)
87800e86:	468c      	mov	ip, r1
87800e88:	e92d 47f0 	stmdb	sp!, {r4, r5, r6, r7, r8, r9, sl, lr}
87800e8c:	447b      	add	r3, pc
87800e8e:	f890 a000 	ldrb.w	sl, [r0]
87800e92:	2a00      	cmp	r2, #0
87800e94:	d142      	bne.n	87800f1c <simple_strtoull+0x98>
87800e96:	f1ba 0f30 	cmp.w	sl, #48	; 0x30
87800e9a:	d066      	beq.n	87800f6a <simple_strtoull+0xe6>
87800e9c:	4946      	ldr	r1, [pc, #280]	; (87800fb8 <simple_strtoull+0x134>)
87800e9e:	4655      	mov	r5, sl
87800ea0:	220a      	movs	r2, #10
87800ea2:	f853 e001 	ldr.w	lr, [r3, r1]
87800ea6:	f81e 300a 	ldrb.w	r3, [lr, sl]
87800eaa:	f003 0144 	and.w	r1, r3, #68	; 0x44
87800eae:	2900      	cmp	r1, #0
87800eb0:	d071      	beq.n	87800f96 <simple_strtoull+0x112>
87800eb2:	4690      	mov	r8, r2
87800eb4:	2200      	movs	r2, #0
87800eb6:	f04f 0900 	mov.w	r9, #0
87800eba:	4611      	mov	r1, r2
87800ebc:	e00b      	b.n	87800ed6 <simple_strtoull+0x52>
87800ebe:	f810 af01 	ldrb.w	sl, [r0, #1]!
87800ec2:	441f      	add	r7, r3
87800ec4:	1932      	adds	r2, r6, r4
87800ec6:	eb47 0105 	adc.w	r1, r7, r5
87800eca:	f81e 300a 	ldrb.w	r3, [lr, sl]
87800ece:	4655      	mov	r5, sl
87800ed0:	f013 0f44 	tst.w	r3, #68	; 0x44
87800ed4:	d01a      	beq.n	87800f0c <simple_strtoull+0x88>
87800ed6:	f013 0f04 	tst.w	r3, #4
87800eda:	f1a5 0430 	sub.w	r4, r5, #48	; 0x30
87800ede:	d10a      	bne.n	87800ef6 <simple_strtoull+0x72>
87800ee0:	f1aa 0a20 	sub.w	sl, sl, #32
87800ee4:	f013 0f02 	tst.w	r3, #2
87800ee8:	f1a5 0437 	sub.w	r4, r5, #55	; 0x37
87800eec:	fa5f fa8a 	uxtb.w	sl, sl
87800ef0:	bf18      	it	ne
87800ef2:	f1aa 0437 	subne.w	r4, sl, #55	; 0x37
87800ef6:	17e5      	asrs	r5, r4, #31
87800ef8:	454d      	cmp	r5, r9
87800efa:	bf08      	it	eq
87800efc:	4544      	cmpeq	r4, r8
87800efe:	fb02 f309 	mul.w	r3, r2, r9
87800f02:	fb08 3301 	mla	r3, r8, r1, r3
87800f06:	fba2 6708 	umull	r6, r7, r2, r8
87800f0a:	d3d8      	bcc.n	87800ebe <simple_strtoull+0x3a>
87800f0c:	f1bc 0f00 	cmp.w	ip, #0
87800f10:	d001      	beq.n	87800f16 <simple_strtoull+0x92>
87800f12:	f8cc 0000 	str.w	r0, [ip]
87800f16:	4610      	mov	r0, r2
87800f18:	e8bd 87f0 	ldmia.w	sp!, {r4, r5, r6, r7, r8, r9, sl, pc}
87800f1c:	2a10      	cmp	r2, #16
87800f1e:	d008      	beq.n	87800f32 <simple_strtoull+0xae>
87800f20:	4925      	ldr	r1, [pc, #148]	; (87800fb8 <simple_strtoull+0x134>)
87800f22:	4655      	mov	r5, sl
87800f24:	f853 e001 	ldr.w	lr, [r3, r1]
87800f28:	f81e 300a 	ldrb.w	r3, [lr, sl]
87800f2c:	f003 0144 	and.w	r1, r3, #68	; 0x44
87800f30:	e7bd      	b.n	87800eae <simple_strtoull+0x2a>
87800f32:	f1ba 0f30 	cmp.w	sl, #48	; 0x30
87800f36:	d1f3      	bne.n	87800f20 <simple_strtoull+0x9c>
87800f38:	4c1f      	ldr	r4, [pc, #124]	; (87800fb8 <simple_strtoull+0x134>)
87800f3a:	7841      	ldrb	r1, [r0, #1]
87800f3c:	f853 e004 	ldr.w	lr, [r3, r4]
87800f40:	f81e 3001 	ldrb.w	r3, [lr, r1]
87800f44:	079b      	lsls	r3, r3, #30
87800f46:	bf44      	itt	mi
87800f48:	3920      	submi	r1, #32
87800f4a:	b2c9      	uxtbmi	r1, r1
87800f4c:	2958      	cmp	r1, #88	; 0x58
87800f4e:	bf0d      	iteet	eq
87800f50:	f890 a002 	ldrbeq.w	sl, [r0, #2]
87800f54:	2530      	movne	r5, #48	; 0x30
87800f56:	f89e 3030 	ldrbne.w	r3, [lr, #48]	; 0x30
87800f5a:	3002      	addeq	r0, #2
87800f5c:	bf04      	itt	eq
87800f5e:	f81e 300a 	ldrbeq.w	r3, [lr, sl]
87800f62:	4655      	moveq	r5, sl
87800f64:	f003 0144 	and.w	r1, r3, #68	; 0x44
87800f68:	e7a1      	b.n	87800eae <simple_strtoull+0x2a>
87800f6a:	4a13      	ldr	r2, [pc, #76]	; (87800fb8 <simple_strtoull+0x134>)
87800f6c:	1c41      	adds	r1, r0, #1
87800f6e:	f890 a001 	ldrb.w	sl, [r0, #1]
87800f72:	f853 e002 	ldr.w	lr, [r3, r2]
87800f76:	4655      	mov	r5, sl
87800f78:	f81e 300a 	ldrb.w	r3, [lr, sl]
87800f7c:	079a      	lsls	r2, r3, #30
87800f7e:	bf4a      	itet	mi
87800f80:	f1aa 0220 	submi.w	r2, sl, #32
87800f84:	4652      	movpl	r2, sl
87800f86:	b2d2      	uxtbmi	r2, r2
87800f88:	2a58      	cmp	r2, #88	; 0x58
87800f8a:	d007      	beq.n	87800f9c <simple_strtoull+0x118>
87800f8c:	4608      	mov	r0, r1
87800f8e:	2208      	movs	r2, #8
87800f90:	f003 0144 	and.w	r1, r3, #68	; 0x44
87800f94:	e78b      	b.n	87800eae <simple_strtoull+0x2a>
87800f96:	2200      	movs	r2, #0
87800f98:	4611      	mov	r1, r2
87800f9a:	e7b7      	b.n	87800f0c <simple_strtoull+0x88>
87800f9c:	7884      	ldrb	r4, [r0, #2]
87800f9e:	f81e 2004 	ldrb.w	r2, [lr, r4]
87800fa2:	f012 0f44 	tst.w	r2, #68	; 0x44
87800fa6:	d0f1      	beq.n	87800f8c <simple_strtoull+0x108>
87800fa8:	4613      	mov	r3, r2
87800faa:	4625      	mov	r5, r4
87800fac:	3002      	adds	r0, #2
87800fae:	46a2      	mov	sl, r4
87800fb0:	2210      	movs	r2, #16
87800fb2:	e77e      	b.n	87800eb2 <simple_strtoull+0x2e>
87800fb4:	fffff170 			; <UNDEFINED> instruction: 0xfffff170
87800fb8:	0000015c 	andeq	r0, r0, ip, asr r1

87800fbc <simple_strtoll>:
87800fbc:	b510      	push	{r4, lr}
87800fbe:	7804      	ldrb	r4, [r0, #0]
87800fc0:	2c2d      	cmp	r4, #45	; 0x2d
87800fc2:	d003      	beq.n	87800fcc <simple_strtoll+0x10>
87800fc4:	e8bd 4010 	ldmia.w	sp!, {r4, lr}
87800fc8:	f7ff bf5c 	b.w	87800e84 <simple_strtoull>
87800fcc:	3001      	adds	r0, #1
87800fce:	f7ff ff59 	bl	87800e84 <simple_strtoull>
87800fd2:	4240      	negs	r0, r0
87800fd4:	eb61 0141 	sbc.w	r1, r1, r1, lsl #1
87800fd8:	bd10      	pop	{r4, pc}
87800fda:	bf00      	nop

87800fdc <vsnprintf>:
87800fdc:	e92d 4ff0 	stmdb	sp!, {r4, r5, r6, r7, r8, r9, sl, fp, lr}
87800fe0:	4699      	mov	r9, r3
87800fe2:	b087      	sub	sp, #28
87800fe4:	f8df a574 	ldr.w	sl, [pc, #1396]	; 8780155c <vsnprintf+0x580>
87800fe8:	1e0b      	subs	r3, r1, #0
87800fea:	44fa      	add	sl, pc
87800fec:	9304      	str	r3, [sp, #16]
87800fee:	f2c0 8266 	blt.w	878014be <vsnprintf+0x4e2>
87800ff2:	f103 38ff 	add.w	r8, r3, #4294967295	; 0xffffffff
87800ff6:	1e43      	subs	r3, r0, #1
87800ff8:	4480      	add	r8, r0
87800ffa:	4605      	mov	r5, r0
87800ffc:	4598      	cmp	r8, r3
87800ffe:	9005      	str	r0, [sp, #20]
87801000:	4614      	mov	r4, r2
87801002:	7810      	ldrb	r0, [r2, #0]
87801004:	f0c0 80c2 	bcc.w	8780118c <vsnprintf+0x1b0>
87801008:	b948      	cbnz	r0, 8780101e <vsnprintf+0x42>
8780100a:	e0ca      	b.n	878011a2 <vsnprintf+0x1c6>
8780100c:	45a8      	cmp	r8, r5
8780100e:	bf28      	it	cs
87801010:	7028      	strbcs	r0, [r5, #0]
87801012:	7860      	ldrb	r0, [r4, #1]
87801014:	3501      	adds	r5, #1
87801016:	3401      	adds	r4, #1
87801018:	2800      	cmp	r0, #0
8780101a:	f000 80c0 	beq.w	8780119e <vsnprintf+0x1c2>
8780101e:	2825      	cmp	r0, #37	; 0x25
87801020:	d1f4      	bne.n	8780100c <vsnprintf+0x30>
87801022:	2600      	movs	r6, #0
87801024:	7863      	ldrb	r3, [r4, #1]
87801026:	1c62      	adds	r2, r4, #1
87801028:	f1a3 0120 	sub.w	r1, r3, #32
8780102c:	2910      	cmp	r1, #16
8780102e:	d81e      	bhi.n	8780106e <vsnprintf+0x92>
87801030:	e8df f001 	tbb	[pc, r1]
87801034:	151d1d19 	ldrne	r1, [sp, #-3353]	; 0xfffff2e7
87801038:	1d1d1d1d 	ldcne	13, cr1, [sp, #-116]	; 0xffffff8c
8780103c:	111d1d1d 	tstne	sp, sp, lsl sp
87801040:	1d1d0d1d 	ldcne	13, cr0, [sp, #-116]	; 0xffffff8c
87801044:	f0460009 			; <UNDEFINED> instruction: 0xf0460009
87801048:	0601      	lsls	r1, r0, #24
8780104a:	4614      	mov	r4, r2
8780104c:	e7ea      	b.n	87801024 <vsnprintf+0x48>
8780104e:	f046 0610 	orr.w	r6, r6, #16
87801052:	4614      	mov	r4, r2
87801054:	e7e6      	b.n	87801024 <vsnprintf+0x48>
87801056:	f046 0604 	orr.w	r6, r6, #4
8780105a:	4614      	mov	r4, r2
8780105c:	e7e2      	b.n	87801024 <vsnprintf+0x48>
8780105e:	f046 0620 	orr.w	r6, r6, #32
87801062:	4614      	mov	r4, r2
87801064:	e7de      	b.n	87801024 <vsnprintf+0x48>
87801066:	f046 0608 	orr.w	r6, r6, #8
8780106a:	4614      	mov	r4, r2
8780106c:	e7da      	b.n	87801024 <vsnprintf+0x48>
8780106e:	f8df 04f0 	ldr.w	r0, [pc, #1264]	; 87801560 <vsnprintf+0x584>
87801072:	4619      	mov	r1, r3
87801074:	f85a 0000 	ldr.w	r0, [sl, r0]
87801078:	5cc7      	ldrb	r7, [r0, r3]
8780107a:	077f      	lsls	r7, r7, #29
8780107c:	f100 809c 	bmi.w	878011b8 <vsnprintf+0x1dc>
87801080:	2b2a      	cmp	r3, #42	; 0x2a
87801082:	bf18      	it	ne
87801084:	f04f 37ff 	movne.w	r7, #4294967295	; 0xffffffff
87801088:	d10a      	bne.n	878010a0 <vsnprintf+0xc4>
8780108a:	f8d9 7000 	ldr.w	r7, [r9]
8780108e:	1ca2      	adds	r2, r4, #2
87801090:	78a3      	ldrb	r3, [r4, #2]
87801092:	f109 0904 	add.w	r9, r9, #4
87801096:	2f00      	cmp	r7, #0
87801098:	bfbc      	itt	lt
8780109a:	427f      	neglt	r7, r7
8780109c:	f046 0610 	orrlt.w	r6, r6, #16
878010a0:	2b2e      	cmp	r3, #46	; 0x2e
878010a2:	bf18      	it	ne
878010a4:	f04f 31ff 	movne.w	r1, #4294967295	; 0xffffffff
878010a8:	f000 8098 	beq.w	878011dc <vsnprintf+0x200>
878010ac:	f003 00df 	and.w	r0, r3, #223	; 0xdf
878010b0:	285a      	cmp	r0, #90	; 0x5a
878010b2:	bf18      	it	ne
878010b4:	284c      	cmpne	r0, #76	; 0x4c
878010b6:	bf0c      	ite	eq
878010b8:	2001      	moveq	r0, #1
878010ba:	2000      	movne	r0, #0
878010bc:	2b68      	cmp	r3, #104	; 0x68
878010be:	bf08      	it	eq
878010c0:	f040 0001 	orreq.w	r0, r0, #1
878010c4:	2800      	cmp	r0, #0
878010c6:	f000 8100 	beq.w	878012ca <vsnprintf+0x2ee>
878010ca:	4618      	mov	r0, r3
878010cc:	286c      	cmp	r0, #108	; 0x6c
878010ce:	f102 0401 	add.w	r4, r2, #1
878010d2:	7853      	ldrb	r3, [r2, #1]
878010d4:	f000 8097 	beq.w	87801206 <vsnprintf+0x22a>
878010d8:	3b25      	subs	r3, #37	; 0x25
878010da:	2b53      	cmp	r3, #83	; 0x53
878010dc:	f200 81ba 	bhi.w	87801454 <vsnprintf+0x478>
878010e0:	e8df f013 	tbh	[pc, r3, lsl #1]
878010e4:	01b80177 			; <UNDEFINED> instruction: 0x01b80177
878010e8:	01b801b8 			; <UNDEFINED> instruction: 0x01b801b8
878010ec:	01b801b8 			; <UNDEFINED> instruction: 0x01b801b8
878010f0:	01b801b8 			; <UNDEFINED> instruction: 0x01b801b8
878010f4:	01b801b8 			; <UNDEFINED> instruction: 0x01b801b8
878010f8:	01b801b8 			; <UNDEFINED> instruction: 0x01b801b8
878010fc:	01b801b8 			; <UNDEFINED> instruction: 0x01b801b8
87801100:	01b801b8 			; <UNDEFINED> instruction: 0x01b801b8
87801104:	01b801b8 			; <UNDEFINED> instruction: 0x01b801b8
87801108:	01b801b8 			; <UNDEFINED> instruction: 0x01b801b8
8780110c:	01b801b8 			; <UNDEFINED> instruction: 0x01b801b8
87801110:	01b801b8 			; <UNDEFINED> instruction: 0x01b801b8
87801114:	01b801b8 			; <UNDEFINED> instruction: 0x01b801b8
87801118:	01b801b8 			; <UNDEFINED> instruction: 0x01b801b8
8780111c:	01b801b8 			; <UNDEFINED> instruction: 0x01b801b8
87801120:	01b801b8 			; <UNDEFINED> instruction: 0x01b801b8
87801124:	01b801b8 			; <UNDEFINED> instruction: 0x01b801b8
87801128:	01b801b8 			; <UNDEFINED> instruction: 0x01b801b8
8780112c:	01b801b8 			; <UNDEFINED> instruction: 0x01b801b8
87801130:	01b801b8 			; <UNDEFINED> instruction: 0x01b801b8
87801134:	01b801b8 			; <UNDEFINED> instruction: 0x01b801b8
87801138:	01b801b8 			; <UNDEFINED> instruction: 0x01b801b8
8780113c:	01b801b8 			; <UNDEFINED> instruction: 0x01b801b8
87801140:	01b801b8 			; <UNDEFINED> instruction: 0x01b801b8
87801144:	01b801b8 			; <UNDEFINED> instruction: 0x01b801b8
87801148:	019801b8 			; <UNDEFINED> instruction: 0x019801b8
8780114c:	01b801b8 			; <UNDEFINED> instruction: 0x01b801b8
87801150:	01b801b8 			; <UNDEFINED> instruction: 0x01b801b8
87801154:	01b801b8 			; <UNDEFINED> instruction: 0x01b801b8
87801158:	01b801b8 			; <UNDEFINED> instruction: 0x01b801b8
8780115c:	01b801b8 			; <UNDEFINED> instruction: 0x01b801b8
87801160:	01a60155 			; <UNDEFINED> instruction: 0x01a60155
87801164:	01b801b8 			; <UNDEFINED> instruction: 0x01b801b8
87801168:	01b801b8 			; <UNDEFINED> instruction: 0x01b801b8
8780116c:	01b801a6 			; <UNDEFINED> instruction: 0x01b801a6
87801170:	01b801b8 			; <UNDEFINED> instruction: 0x01b801b8
87801174:	01ae01b8 			; <UNDEFINED> instruction: 0x01ae01b8
87801178:	013f01ab 	teqeq	pc, fp, lsr #3
8780117c:	01b801b8 			; <UNDEFINED> instruction: 0x01b801b8
87801180:	01b80108 			; <UNDEFINED> instruction: 0x01b80108
87801184:	01b8017c 			; <UNDEFINED> instruction: 0x01b8017c
87801188:	01a301b8 			; <UNDEFINED> instruction: 0x01a301b8
8780118c:	426b      	negs	r3, r5
8780118e:	9304      	str	r3, [sp, #16]
87801190:	2800      	cmp	r0, #0
87801192:	f000 8095 	beq.w	878012c0 <vsnprintf+0x2e4>
87801196:	f04f 38ff 	mov.w	r8, #4294967295	; 0xffffffff
8780119a:	e740      	b.n	8780101e <vsnprintf+0x42>
8780119c:	4615      	mov	r5, r2
8780119e:	9b05      	ldr	r3, [sp, #20]
878011a0:	1ae8      	subs	r0, r5, r3
878011a2:	45a8      	cmp	r8, r5
878011a4:	f080 808c 	bcs.w	878012c0 <vsnprintf+0x2e4>
878011a8:	9b04      	ldr	r3, [sp, #16]
878011aa:	b113      	cbz	r3, 878011b2 <vsnprintf+0x1d6>
878011ac:	2300      	movs	r3, #0
878011ae:	f888 3000 	strb.w	r3, [r8]
878011b2:	b007      	add	sp, #28
878011b4:	e8bd 8ff0 	ldmia.w	sp!, {r4, r5, r6, r7, r8, r9, sl, fp, pc}
878011b8:	2700      	movs	r7, #0
878011ba:	f04f 0c0a 	mov.w	ip, #10
878011be:	fb0c 1707 	mla	r7, ip, r7, r1
878011c2:	f812 1f01 	ldrb.w	r1, [r2, #1]!
878011c6:	5c44      	ldrb	r4, [r0, r1]
878011c8:	3f30      	subs	r7, #48	; 0x30
878011ca:	460b      	mov	r3, r1
878011cc:	0764      	lsls	r4, r4, #29
878011ce:	d4f6      	bmi.n	878011be <vsnprintf+0x1e2>
878011d0:	2b2e      	cmp	r3, #46	; 0x2e
878011d2:	bf18      	it	ne
878011d4:	f04f 31ff 	movne.w	r1, #4294967295	; 0xffffffff
878011d8:	f47f af68 	bne.w	878010ac <vsnprintf+0xd0>
878011dc:	7854      	ldrb	r4, [r2, #1]
878011de:	f102 0c01 	add.w	ip, r2, #1
878011e2:	5d01      	ldrb	r1, [r0, r4]
878011e4:	4623      	mov	r3, r4
878011e6:	f011 0104 	ands.w	r1, r1, #4
878011ea:	d172      	bne.n	878012d2 <vsnprintf+0x2f6>
878011ec:	2c2a      	cmp	r4, #42	; 0x2a
878011ee:	bf09      	itett	eq
878011f0:	f8d9 1000 	ldreq.w	r1, [r9]
878011f4:	4662      	movne	r2, ip
878011f6:	7893      	ldrbeq	r3, [r2, #2]
878011f8:	f109 0904 	addeq.w	r9, r9, #4
878011fc:	bf04      	itt	eq
878011fe:	3202      	addeq	r2, #2
87801200:	ea21 71e1 	biceq.w	r1, r1, r1, asr #31
87801204:	e752      	b.n	878010ac <vsnprintf+0xd0>
87801206:	2b6c      	cmp	r3, #108	; 0x6c
87801208:	f000 814a 	beq.w	878014a0 <vsnprintf+0x4c4>
8780120c:	3b25      	subs	r3, #37	; 0x25
8780120e:	2b53      	cmp	r3, #83	; 0x53
87801210:	f200 8120 	bhi.w	87801454 <vsnprintf+0x478>
87801214:	e8df f013 	tbh	[pc, r3, lsl #1]
87801218:	011e00dd 	ldrsbeq	r0, [lr, -sp]
8780121c:	011e011e 	tsteq	lr, lr, lsl r1
87801220:	011e011e 	tsteq	lr, lr, lsl r1
87801224:	011e011e 	tsteq	lr, lr, lsl r1
87801228:	011e011e 	tsteq	lr, lr, lsl r1
8780122c:	011e011e 	tsteq	lr, lr, lsl r1
87801230:	011e011e 	tsteq	lr, lr, lsl r1
87801234:	011e011e 	tsteq	lr, lr, lsl r1
87801238:	011e011e 	tsteq	lr, lr, lsl r1
8780123c:	011e011e 	tsteq	lr, lr, lsl r1
87801240:	011e011e 	tsteq	lr, lr, lsl r1
87801244:	011e011e 	tsteq	lr, lr, lsl r1
87801248:	011e011e 	tsteq	lr, lr, lsl r1
8780124c:	011e011e 	tsteq	lr, lr, lsl r1
87801250:	011e011e 	tsteq	lr, lr, lsl r1
87801254:	011e011e 	tsteq	lr, lr, lsl r1
87801258:	011e011e 	tsteq	lr, lr, lsl r1
8780125c:	011e011e 	tsteq	lr, lr, lsl r1
87801260:	011e011e 	tsteq	lr, lr, lsl r1
87801264:	011e011e 	tsteq	lr, lr, lsl r1
87801268:	011e011e 	tsteq	lr, lr, lsl r1
8780126c:	011e011e 	tsteq	lr, lr, lsl r1
87801270:	011e011e 	tsteq	lr, lr, lsl r1
87801274:	011e011e 	tsteq	lr, lr, lsl r1
87801278:	011e011e 	tsteq	lr, lr, lsl r1
8780127c:	018c011e 	orreq	r0, ip, lr, lsl r1
87801280:	011e011e 	tsteq	lr, lr, lsl r1
87801284:	011e011e 	tsteq	lr, lr, lsl r1
87801288:	011e011e 	tsteq	lr, lr, lsl r1
8780128c:	011e011e 	tsteq	lr, lr, lsl r1
87801290:	011e011e 	tsteq	lr, lr, lsl r1
87801294:	018500bb 	strheq	r0, [r5, fp]
87801298:	011e011e 	tsteq	lr, lr, lsl r1
8780129c:	011e011e 	tsteq	lr, lr, lsl r1
878012a0:	011e0185 	tsteq	lr, r5, lsl #3
878012a4:	011e011e 	tsteq	lr, lr, lsl r1
878012a8:	0130011e 	teqeq	r0, lr, lsl r1
878012ac:	00a50193 	umlaleq	r0, r5, r3, r1
878012b0:	011e011e 	tsteq	lr, lr, lsl r1
878012b4:	011e006e 	tsteq	lr, lr, rrx
878012b8:	011e0198 			; <UNDEFINED> instruction: 0x011e0198
878012bc:	0139011e 	teqeq	r9, lr, lsl r1
878012c0:	2300      	movs	r3, #0
878012c2:	702b      	strb	r3, [r5, #0]
878012c4:	b007      	add	sp, #28
878012c6:	e8bd 8ff0 	ldmia.w	sp!, {r4, r5, r6, r7, r8, r9, sl, fp, pc}
878012ca:	4614      	mov	r4, r2
878012cc:	f04f 30ff 	mov.w	r0, #4294967295	; 0xffffffff
878012d0:	e702      	b.n	878010d8 <vsnprintf+0xfc>
878012d2:	2100      	movs	r1, #0
878012d4:	f04f 0e0a 	mov.w	lr, #10
878012d8:	f81c 3f01 	ldrb.w	r3, [ip, #1]!
878012dc:	fb0e 4101 	mla	r1, lr, r1, r4
878012e0:	5cc2      	ldrb	r2, [r0, r3]
878012e2:	461c      	mov	r4, r3
878012e4:	0752      	lsls	r2, r2, #29
878012e6:	f1a1 0130 	sub.w	r1, r1, #48	; 0x30
878012ea:	d4f5      	bmi.n	878012d8 <vsnprintf+0x2fc>
878012ec:	ea21 71e1 	bic.w	r1, r1, r1, asr #31
878012f0:	4662      	mov	r2, ip
878012f2:	e6db      	b.n	878010ac <vsnprintf+0xd0>
878012f4:	f8d9 b000 	ldr.w	fp, [r9]
878012f8:	f109 0904 	add.w	r9, r9, #4
878012fc:	f5bb 6f80 	cmp.w	fp, #1024	; 0x400
87801300:	d202      	bcs.n	87801308 <vsnprintf+0x32c>
87801302:	f8df b260 	ldr.w	fp, [pc, #608]	; 87801564 <vsnprintf+0x588>
87801306:	44fb      	add	fp, pc
87801308:	4658      	mov	r0, fp
8780130a:	f7ff f999 	bl	87800640 <strnlen>
8780130e:	06f1      	lsls	r1, r6, #27
87801310:	f107 33ff 	add.w	r3, r7, #4294967295	; 0xffffffff
87801314:	f140 80ed 	bpl.w	878014f2 <vsnprintf+0x516>
87801318:	2800      	cmp	r0, #0
8780131a:	bfd8      	it	le
8780131c:	462a      	movle	r2, r5
8780131e:	dd0c      	ble.n	8780133a <vsnprintf+0x35e>
87801320:	182a      	adds	r2, r5, r0
87801322:	4545      	cmp	r5, r8
87801324:	f105 0501 	add.w	r5, r5, #1
87801328:	f10b 0b01 	add.w	fp, fp, #1
8780132c:	bf9c      	itt	ls
8780132e:	f81b 1c01 	ldrbls.w	r1, [fp, #-1]
87801332:	f805 1c01 	strbls.w	r1, [r5, #-1]
87801336:	4295      	cmp	r5, r2
87801338:	d1f3      	bne.n	87801322 <vsnprintf+0x346>
8780133a:	4287      	cmp	r7, r0
8780133c:	bfdc      	itt	le
8780133e:	4615      	movle	r5, r2
87801340:	7860      	ldrble	r0, [r4, #1]
87801342:	f77f ae68 	ble.w	87801016 <vsnprintf+0x3a>
87801346:	3301      	adds	r3, #1
87801348:	4615      	mov	r5, r2
8780134a:	441a      	add	r2, r3
8780134c:	4545      	cmp	r5, r8
8780134e:	f105 0501 	add.w	r5, r5, #1
87801352:	bf9c      	itt	ls
87801354:	2320      	movls	r3, #32
87801356:	f805 3c01 	strbls.w	r3, [r5, #-1]
8780135a:	1b53      	subs	r3, r2, r5
8780135c:	4298      	cmp	r0, r3
8780135e:	dbf5      	blt.n	8780134c <vsnprintf+0x370>
87801360:	e056      	b.n	87801410 <vsnprintf+0x434>
87801362:	1c7a      	adds	r2, r7, #1
87801364:	4628      	mov	r0, r5
87801366:	f8d9 2000 	ldr.w	r2, [r9]
8780136a:	bf04      	itt	eq
8780136c:	f046 0601 	orreq.w	r6, r6, #1
87801370:	2708      	moveq	r7, #8
87801372:	e9cd 1602 	strd	r1, r6, [sp, #8]
87801376:	2300      	movs	r3, #0
87801378:	2110      	movs	r1, #16
8780137a:	9701      	str	r7, [sp, #4]
8780137c:	f109 0904 	add.w	r9, r9, #4
87801380:	9100      	str	r1, [sp, #0]
87801382:	4641      	mov	r1, r8
87801384:	f7ff faea 	bl	8780095c <number>
87801388:	4605      	mov	r5, r0
8780138a:	7860      	ldrb	r0, [r4, #1]
8780138c:	e643      	b.n	87801016 <vsnprintf+0x3a>
8780138e:	06f0      	lsls	r0, r6, #27
87801390:	f107 31ff 	add.w	r1, r7, #4294967295	; 0xffffffff
87801394:	f140 809b 	bpl.w	878014ce <vsnprintf+0x4f2>
87801398:	4545      	cmp	r5, r8
8780139a:	f105 0001 	add.w	r0, r5, #1
8780139e:	f109 0604 	add.w	r6, r9, #4
878013a2:	bf9c      	itt	ls
878013a4:	f8d9 3000 	ldrls.w	r3, [r9]
878013a8:	702b      	strbls	r3, [r5, #0]
878013aa:	2900      	cmp	r1, #0
878013ac:	bfc2      	ittt	gt
878013ae:	1c4a      	addgt	r2, r1, #1
878013b0:	4603      	movgt	r3, r0
878013b2:	18ad      	addgt	r5, r5, r2
878013b4:	f340 80cd 	ble.w	87801552 <vsnprintf+0x576>
878013b8:	4543      	cmp	r3, r8
878013ba:	f103 0301 	add.w	r3, r3, #1
878013be:	bf9c      	itt	ls
878013c0:	2220      	movls	r2, #32
878013c2:	f803 2c01 	strbls.w	r2, [r3, #-1]
878013c6:	42ab      	cmp	r3, r5
878013c8:	d1f6      	bne.n	878013b8 <vsnprintf+0x3dc>
878013ca:	1845      	adds	r5, r0, r1
878013cc:	46b1      	mov	r9, r6
878013ce:	7860      	ldrb	r0, [r4, #1]
878013d0:	e621      	b.n	87801016 <vsnprintf+0x3a>
878013d2:	45a8      	cmp	r8, r5
878013d4:	bf24      	itt	cs
878013d6:	2325      	movcs	r3, #37	; 0x25
878013d8:	702b      	strbcs	r3, [r5, #0]
878013da:	e61a      	b.n	87801012 <vsnprintf+0x36>
878013dc:	f04f 0c0a 	mov.w	ip, #10
878013e0:	284c      	cmp	r0, #76	; 0x4c
878013e2:	d01d      	beq.n	87801420 <vsnprintf+0x444>
878013e4:	286c      	cmp	r0, #108	; 0x6c
878013e6:	f109 0e04 	add.w	lr, r9, #4
878013ea:	d052      	beq.n	87801492 <vsnprintf+0x4b6>
878013ec:	f020 0320 	bic.w	r3, r0, #32
878013f0:	2b5a      	cmp	r3, #90	; 0x5a
878013f2:	d159      	bne.n	878014a8 <vsnprintf+0x4cc>
878013f4:	f8d9 2000 	ldr.w	r2, [r9]
878013f8:	46f1      	mov	r9, lr
878013fa:	2300      	movs	r3, #0
878013fc:	e9cd 1602 	strd	r1, r6, [sp, #8]
87801400:	4628      	mov	r0, r5
87801402:	9701      	str	r7, [sp, #4]
87801404:	4641      	mov	r1, r8
87801406:	f8cd c000 	str.w	ip, [sp]
8780140a:	f7ff faa7 	bl	8780095c <number>
8780140e:	4605      	mov	r5, r0
87801410:	7860      	ldrb	r0, [r4, #1]
87801412:	e600      	b.n	87801016 <vsnprintf+0x3a>
87801414:	284c      	cmp	r0, #76	; 0x4c
87801416:	f046 0640 	orr.w	r6, r6, #64	; 0x40
8780141a:	f04f 0c10 	mov.w	ip, #16
8780141e:	d1e1      	bne.n	878013e4 <vsnprintf+0x408>
87801420:	e9d9 2300 	ldrd	r2, r3, [r9]
87801424:	f109 0908 	add.w	r9, r9, #8
87801428:	e7e8      	b.n	878013fc <vsnprintf+0x420>
8780142a:	f04f 0c10 	mov.w	ip, #16
8780142e:	e7d7      	b.n	878013e0 <vsnprintf+0x404>
87801430:	f046 0602 	orr.w	r6, r6, #2
87801434:	f04f 0c0a 	mov.w	ip, #10
87801438:	e7d2      	b.n	878013e0 <vsnprintf+0x404>
8780143a:	f04f 0c08 	mov.w	ip, #8
8780143e:	e7cf      	b.n	878013e0 <vsnprintf+0x404>
87801440:	9b05      	ldr	r3, [sp, #20]
87801442:	f8d9 2000 	ldr.w	r2, [r9]
87801446:	1ae9      	subs	r1, r5, r3
87801448:	f109 0304 	add.w	r3, r9, #4
8780144c:	6011      	str	r1, [r2, #0]
8780144e:	4699      	mov	r9, r3
87801450:	7860      	ldrb	r0, [r4, #1]
87801452:	e5e0      	b.n	87801016 <vsnprintf+0x3a>
87801454:	45a8      	cmp	r8, r5
87801456:	f105 0201 	add.w	r2, r5, #1
8780145a:	bf24      	itt	cs
8780145c:	2325      	movcs	r3, #37	; 0x25
8780145e:	702b      	strbcs	r3, [r5, #0]
87801460:	7823      	ldrb	r3, [r4, #0]
87801462:	2b00      	cmp	r3, #0
87801464:	f43f ae9a 	beq.w	8780119c <vsnprintf+0x1c0>
87801468:	4542      	cmp	r2, r8
8780146a:	f105 0502 	add.w	r5, r5, #2
8780146e:	bf98      	it	ls
87801470:	f805 3c01 	strbls.w	r3, [r5, #-1]
87801474:	7860      	ldrb	r0, [r4, #1]
87801476:	e5ce      	b.n	87801016 <vsnprintf+0x3a>
87801478:	f8d9 3000 	ldr.w	r3, [r9]
8780147c:	f109 0904 	add.w	r9, r9, #4
87801480:	9905      	ldr	r1, [sp, #20]
87801482:	1a69      	subs	r1, r5, r1
87801484:	6019      	str	r1, [r3, #0]
87801486:	7890      	ldrb	r0, [r2, #2]
87801488:	e5c5      	b.n	87801016 <vsnprintf+0x3a>
8780148a:	f109 0e04 	add.w	lr, r9, #4
8780148e:	f04f 0c10 	mov.w	ip, #16
87801492:	07b3      	lsls	r3, r6, #30
87801494:	f8d9 2000 	ldr.w	r2, [r9]
87801498:	46f1      	mov	r9, lr
8780149a:	d5ae      	bpl.n	878013fa <vsnprintf+0x41e>
8780149c:	17d3      	asrs	r3, r2, #31
8780149e:	e7ad      	b.n	878013fc <vsnprintf+0x420>
878014a0:	1c94      	adds	r4, r2, #2
878014a2:	7893      	ldrb	r3, [r2, #2]
878014a4:	204c      	movs	r0, #76	; 0x4c
878014a6:	e617      	b.n	878010d8 <vsnprintf+0xfc>
878014a8:	2868      	cmp	r0, #104	; 0x68
878014aa:	f006 0302 	and.w	r3, r6, #2
878014ae:	f8d9 2000 	ldr.w	r2, [r9]
878014b2:	d008      	beq.n	878014c6 <vsnprintf+0x4ea>
878014b4:	2b00      	cmp	r3, #0
878014b6:	d09f      	beq.n	878013f8 <vsnprintf+0x41c>
878014b8:	17d3      	asrs	r3, r2, #31
878014ba:	46f1      	mov	r9, lr
878014bc:	e79e      	b.n	878013fc <vsnprintf+0x420>
878014be:	2000      	movs	r0, #0
878014c0:	b007      	add	sp, #28
878014c2:	e8bd 8ff0 	ldmia.w	sp!, {r4, r5, r6, r7, r8, r9, sl, fp, pc}
878014c6:	46f1      	mov	r9, lr
878014c8:	b343      	cbz	r3, 8780151c <vsnprintf+0x540>
878014ca:	b212      	sxth	r2, r2
878014cc:	e7e6      	b.n	8780149c <vsnprintf+0x4c0>
878014ce:	2900      	cmp	r1, #0
878014d0:	bfd8      	it	le
878014d2:	1eb9      	suble	r1, r7, #2
878014d4:	f77f af60 	ble.w	87801398 <vsnprintf+0x3bc>
878014d8:	4429      	add	r1, r5
878014da:	4545      	cmp	r5, r8
878014dc:	f105 0501 	add.w	r5, r5, #1
878014e0:	bf9c      	itt	ls
878014e2:	2320      	movls	r3, #32
878014e4:	f805 3c01 	strbls.w	r3, [r5, #-1]
878014e8:	428d      	cmp	r5, r1
878014ea:	d1f6      	bne.n	878014da <vsnprintf+0x4fe>
878014ec:	f04f 31ff 	mov.w	r1, #4294967295	; 0xffffffff
878014f0:	e752      	b.n	87801398 <vsnprintf+0x3bc>
878014f2:	4287      	cmp	r7, r0
878014f4:	bfde      	ittt	le
878014f6:	1eba      	suble	r2, r7, #2
878014f8:	461f      	movle	r7, r3
878014fa:	4613      	movle	r3, r2
878014fc:	f77f af0c 	ble.w	87801318 <vsnprintf+0x33c>
87801500:	1a3b      	subs	r3, r7, r0
87801502:	442b      	add	r3, r5
87801504:	4545      	cmp	r5, r8
87801506:	f105 0501 	add.w	r5, r5, #1
8780150a:	bf9c      	itt	ls
8780150c:	2220      	movls	r2, #32
8780150e:	f805 2c01 	strbls.w	r2, [r5, #-1]
87801512:	429d      	cmp	r5, r3
87801514:	d1f6      	bne.n	87801504 <vsnprintf+0x528>
87801516:	1e47      	subs	r7, r0, #1
87801518:	1e7b      	subs	r3, r7, #1
8780151a:	e6fd      	b.n	87801318 <vsnprintf+0x33c>
8780151c:	b292      	uxth	r2, r2
8780151e:	2300      	movs	r3, #0
87801520:	e76c      	b.n	878013fc <vsnprintf+0x420>
87801522:	f046 0602 	orr.w	r6, r6, #2
87801526:	f109 0e04 	add.w	lr, r9, #4
8780152a:	f04f 0c0a 	mov.w	ip, #10
8780152e:	e7b0      	b.n	87801492 <vsnprintf+0x4b6>
87801530:	f046 0640 	orr.w	r6, r6, #64	; 0x40
87801534:	f109 0e04 	add.w	lr, r9, #4
87801538:	f04f 0c10 	mov.w	ip, #16
8780153c:	e7a9      	b.n	87801492 <vsnprintf+0x4b6>
8780153e:	f109 0e04 	add.w	lr, r9, #4
87801542:	f04f 0c08 	mov.w	ip, #8
87801546:	e7a4      	b.n	87801492 <vsnprintf+0x4b6>
87801548:	f109 0e04 	add.w	lr, r9, #4
8780154c:	f04f 0c0a 	mov.w	ip, #10
87801550:	e79f      	b.n	87801492 <vsnprintf+0x4b6>
87801552:	4605      	mov	r5, r0
87801554:	46b1      	mov	r9, r6
87801556:	7860      	ldrb	r0, [r4, #1]
87801558:	e55d      	b.n	87801016 <vsnprintf+0x3a>
8780155a:	bf00      	nop
8780155c:	fffff012 			; <UNDEFINED> instruction: 0xfffff012
87801560:	0000015c 	andeq	r0, r0, ip, asr r1
87801564:	00002cf6 	strdeq	r2, [r0], -r6

87801568 <vscnprintf>:
87801568:	b510      	push	{r4, lr}
8780156a:	460c      	mov	r4, r1
8780156c:	f7ff fd36 	bl	87800fdc <vsnprintf>
87801570:	42a0      	cmp	r0, r4
87801572:	bf28      	it	cs
87801574:	f104 30ff 	addcs.w	r0, r4, #4294967295	; 0xffffffff
87801578:	bd10      	pop	{r4, pc}
8780157a:	bf00      	nop

8780157c <snprintf>:
8780157c:	b40c      	push	{r2, r3}
8780157e:	b508      	push	{r3, lr}
87801580:	ab03      	add	r3, sp, #12
87801582:	9a02      	ldr	r2, [sp, #8]
87801584:	f7ff fd2a 	bl	87800fdc <vsnprintf>
87801588:	e8bd 4008 	ldmia.w	sp!, {r3, lr}
8780158c:	b002      	add	sp, #8
8780158e:	4770      	bx	lr

87801590 <scnprintf>:
87801590:	b40c      	push	{r2, r3}
87801592:	b510      	push	{r4, lr}
87801594:	ab03      	add	r3, sp, #12
87801596:	9a02      	ldr	r2, [sp, #8]
87801598:	460c      	mov	r4, r1
8780159a:	f7ff fd1f 	bl	87800fdc <vsnprintf>
8780159e:	42a0      	cmp	r0, r4
878015a0:	bf28      	it	cs
878015a2:	f104 30ff 	addcs.w	r0, r4, #4294967295	; 0xffffffff
878015a6:	e8bd 4010 	ldmia.w	sp!, {r4, lr}
878015aa:	b002      	add	sp, #8
878015ac:	4770      	bx	lr
878015ae:	bf00      	nop

878015b0 <vsprintf>:
878015b0:	4613      	mov	r3, r2
878015b2:	460a      	mov	r2, r1
878015b4:	f06f 4100 	mvn.w	r1, #2147483648	; 0x80000000
878015b8:	f7ff bd10 	b.w	87800fdc <vsnprintf>

878015bc <sprintf>:
878015bc:	b40e      	push	{r1, r2, r3}
878015be:	f06f 4100 	mvn.w	r1, #2147483648	; 0x80000000
878015c2:	b500      	push	{lr}
878015c4:	ab02      	add	r3, sp, #8
878015c6:	9a01      	ldr	r2, [sp, #4]
878015c8:	f7ff fd08 	bl	87800fdc <vsnprintf>
878015cc:	f85d eb04 	ldr.w	lr, [sp], #4
878015d0:	b003      	add	sp, #12
878015d2:	4770      	bx	lr

878015d4 <vsscanf>:
878015d4:	e92d 4ff0 	stmdb	sp!, {r4, r5, r6, r7, r8, r9, sl, fp, lr}
878015d8:	b085      	sub	sp, #20
878015da:	780b      	ldrb	r3, [r1, #0]
878015dc:	f10d 0b0c 	add.w	fp, sp, #12
878015e0:	f8df 6510 	ldr.w	r6, [pc, #1296]	; 87801af4 <vsscanf+0x520>
878015e4:	4681      	mov	r9, r0
878015e6:	460c      	mov	r4, r1
878015e8:	2700      	movs	r7, #0
878015ea:	4692      	mov	sl, r2
878015ec:	447e      	add	r6, pc
878015ee:	b15b      	cbz	r3, 87801608 <vsscanf+0x34>
878015f0:	7805      	ldrb	r5, [r0, #0]
878015f2:	b14d      	cbz	r5, 87801608 <vsscanf+0x34>
878015f4:	f8df 2500 	ldr.w	r2, [pc, #1280]	; 87801af8 <vsscanf+0x524>
878015f8:	58b1      	ldr	r1, [r6, r2]
878015fa:	5cca      	ldrb	r2, [r1, r3]
878015fc:	0692      	lsls	r2, r2, #26
878015fe:	d407      	bmi.n	87801610 <vsscanf+0x3c>
87801600:	2b25      	cmp	r3, #37	; 0x25
87801602:	d01f      	beq.n	87801644 <vsscanf+0x70>
87801604:	42ab      	cmp	r3, r5
87801606:	d017      	beq.n	87801638 <vsscanf+0x64>
87801608:	4638      	mov	r0, r7
8780160a:	b005      	add	sp, #20
8780160c:	e8bd 8ff0 	ldmia.w	sp!, {r4, r5, r6, r7, r8, r9, sl, fp, pc}
87801610:	f814 3f01 	ldrb.w	r3, [r4, #1]!
87801614:	5cca      	ldrb	r2, [r1, r3]
87801616:	0692      	lsls	r2, r2, #26
87801618:	d4fa      	bmi.n	87801610 <vsscanf+0x3c>
8780161a:	5d4a      	ldrb	r2, [r1, r5]
8780161c:	0695      	lsls	r5, r2, #26
8780161e:	d504      	bpl.n	8780162a <vsscanf+0x56>
87801620:	f810 2f01 	ldrb.w	r2, [r0, #1]!
87801624:	5c8a      	ldrb	r2, [r1, r2]
87801626:	0692      	lsls	r2, r2, #26
87801628:	d4fa      	bmi.n	87801620 <vsscanf+0x4c>
8780162a:	2b25      	cmp	r3, #37	; 0x25
8780162c:	bf18      	it	ne
8780162e:	2b00      	cmpne	r3, #0
87801630:	d006      	beq.n	87801640 <vsscanf+0x6c>
87801632:	7805      	ldrb	r5, [r0, #0]
87801634:	42ab      	cmp	r3, r5
87801636:	d1e7      	bne.n	87801608 <vsscanf+0x34>
87801638:	7863      	ldrb	r3, [r4, #1]
8780163a:	3001      	adds	r0, #1
8780163c:	3401      	adds	r4, #1
8780163e:	e7d6      	b.n	878015ee <vsscanf+0x1a>
87801640:	2b00      	cmp	r3, #0
87801642:	d0e1      	beq.n	87801608 <vsscanf+0x34>
87801644:	7863      	ldrb	r3, [r4, #1]
87801646:	3401      	adds	r4, #1
87801648:	2b2a      	cmp	r3, #42	; 0x2a
8780164a:	461d      	mov	r5, r3
8780164c:	5cca      	ldrb	r2, [r1, r3]
8780164e:	f000 8206 	beq.w	87801a5e <vsscanf+0x48a>
87801652:	0752      	lsls	r2, r2, #29
87801654:	bf58      	it	pl
87801656:	f04f 32ff 	movpl.w	r2, #4294967295	; 0xffffffff
8780165a:	f100 80d1 	bmi.w	87801800 <vsscanf+0x22c>
8780165e:	f003 05df 	and.w	r5, r3, #223	; 0xdf
87801662:	2d5a      	cmp	r5, #90	; 0x5a
87801664:	bf18      	it	ne
87801666:	2d4c      	cmpne	r5, #76	; 0x4c
87801668:	bf0c      	ite	eq
8780166a:	2501      	moveq	r5, #1
8780166c:	2500      	movne	r5, #0
8780166e:	2b68      	cmp	r3, #104	; 0x68
87801670:	bf08      	it	eq
87801672:	f045 0501 	orreq.w	r5, r5, #1
87801676:	2d00      	cmp	r5, #0
87801678:	f000 81ec 	beq.w	87801a54 <vsscanf+0x480>
8780167c:	f894 e001 	ldrb.w	lr, [r4, #1]
87801680:	1c65      	adds	r5, r4, #1
87801682:	459e      	cmp	lr, r3
87801684:	f000 81a9 	beq.w	878019da <vsscanf+0x406>
87801688:	f1be 0f00 	cmp.w	lr, #0
8780168c:	d0bc      	beq.n	87801608 <vsscanf+0x34>
8780168e:	f890 c000 	ldrb.w	ip, [r0]
87801692:	f1bc 0f00 	cmp.w	ip, #0
87801696:	d0b7      	beq.n	87801608 <vsscanf+0x34>
87801698:	f1ae 0e25 	sub.w	lr, lr, #37	; 0x25
8780169c:	1c6c      	adds	r4, r5, #1
8780169e:	f1be 0f53 	cmp.w	lr, #83	; 0x53
878016a2:	d8b1      	bhi.n	87801608 <vsscanf+0x34>
878016a4:	f20f 0808 	addw	r8, pc, #8
878016a8:	f858 e02e 	ldr.w	lr, [r8, lr, lsl #2]
878016ac:	44f0      	add	r8, lr
878016ae:	4740      	bx	r8
878016b0:	00000249 	andeq	r0, r0, r9, asr #4
878016b4:	ffffff59 			; <UNDEFINED> instruction: 0xffffff59
878016b8:	ffffff59 			; <UNDEFINED> instruction: 0xffffff59
878016bc:	ffffff59 			; <UNDEFINED> instruction: 0xffffff59
878016c0:	ffffff59 			; <UNDEFINED> instruction: 0xffffff59
878016c4:	ffffff59 			; <UNDEFINED> instruction: 0xffffff59
878016c8:	ffffff59 			; <UNDEFINED> instruction: 0xffffff59
878016cc:	ffffff59 			; <UNDEFINED> instruction: 0xffffff59
878016d0:	ffffff59 			; <UNDEFINED> instruction: 0xffffff59
878016d4:	ffffff59 			; <UNDEFINED> instruction: 0xffffff59
878016d8:	ffffff59 			; <UNDEFINED> instruction: 0xffffff59
878016dc:	ffffff59 			; <UNDEFINED> instruction: 0xffffff59
878016e0:	ffffff59 			; <UNDEFINED> instruction: 0xffffff59
878016e4:	ffffff59 			; <UNDEFINED> instruction: 0xffffff59
878016e8:	ffffff59 			; <UNDEFINED> instruction: 0xffffff59
878016ec:	ffffff59 			; <UNDEFINED> instruction: 0xffffff59
878016f0:	ffffff59 			; <UNDEFINED> instruction: 0xffffff59
878016f4:	ffffff59 			; <UNDEFINED> instruction: 0xffffff59
878016f8:	ffffff59 			; <UNDEFINED> instruction: 0xffffff59
878016fc:	ffffff59 			; <UNDEFINED> instruction: 0xffffff59
87801700:	ffffff59 			; <UNDEFINED> instruction: 0xffffff59
87801704:	ffffff59 			; <UNDEFINED> instruction: 0xffffff59
87801708:	ffffff59 			; <UNDEFINED> instruction: 0xffffff59
8780170c:	ffffff59 			; <UNDEFINED> instruction: 0xffffff59
87801710:	ffffff59 			; <UNDEFINED> instruction: 0xffffff59
87801714:	ffffff59 			; <UNDEFINED> instruction: 0xffffff59
87801718:	ffffff59 			; <UNDEFINED> instruction: 0xffffff59
8780171c:	ffffff59 			; <UNDEFINED> instruction: 0xffffff59
87801720:	ffffff59 			; <UNDEFINED> instruction: 0xffffff59
87801724:	ffffff59 			; <UNDEFINED> instruction: 0xffffff59
87801728:	ffffff59 			; <UNDEFINED> instruction: 0xffffff59
8780172c:	ffffff59 			; <UNDEFINED> instruction: 0xffffff59
87801730:	ffffff59 			; <UNDEFINED> instruction: 0xffffff59
87801734:	ffffff59 			; <UNDEFINED> instruction: 0xffffff59
87801738:	ffffff59 			; <UNDEFINED> instruction: 0xffffff59
8780173c:	ffffff59 			; <UNDEFINED> instruction: 0xffffff59
87801740:	ffffff59 			; <UNDEFINED> instruction: 0xffffff59
87801744:	ffffff59 			; <UNDEFINED> instruction: 0xffffff59
87801748:	ffffff59 			; <UNDEFINED> instruction: 0xffffff59
8780174c:	ffffff59 			; <UNDEFINED> instruction: 0xffffff59
87801750:	ffffff59 			; <UNDEFINED> instruction: 0xffffff59
87801754:	ffffff59 			; <UNDEFINED> instruction: 0xffffff59
87801758:	ffffff59 			; <UNDEFINED> instruction: 0xffffff59
8780175c:	ffffff59 			; <UNDEFINED> instruction: 0xffffff59
87801760:	ffffff59 			; <UNDEFINED> instruction: 0xffffff59
87801764:	ffffff59 			; <UNDEFINED> instruction: 0xffffff59
87801768:	ffffff59 			; <UNDEFINED> instruction: 0xffffff59
8780176c:	ffffff59 			; <UNDEFINED> instruction: 0xffffff59
87801770:	ffffff59 			; <UNDEFINED> instruction: 0xffffff59
87801774:	ffffff59 			; <UNDEFINED> instruction: 0xffffff59
87801778:	ffffff59 			; <UNDEFINED> instruction: 0xffffff59
8780177c:	00000313 	andeq	r0, r0, r3, lsl r3
87801780:	ffffff59 			; <UNDEFINED> instruction: 0xffffff59
87801784:	ffffff59 			; <UNDEFINED> instruction: 0xffffff59
87801788:	ffffff59 			; <UNDEFINED> instruction: 0xffffff59
8780178c:	ffffff59 			; <UNDEFINED> instruction: 0xffffff59
87801790:	ffffff59 			; <UNDEFINED> instruction: 0xffffff59
87801794:	ffffff59 			; <UNDEFINED> instruction: 0xffffff59
87801798:	ffffff59 			; <UNDEFINED> instruction: 0xffffff59
8780179c:	ffffff59 			; <UNDEFINED> instruction: 0xffffff59
878017a0:	ffffff59 			; <UNDEFINED> instruction: 0xffffff59
878017a4:	ffffff59 			; <UNDEFINED> instruction: 0xffffff59
878017a8:	000002e1 	andeq	r0, r0, r1, ror #5
878017ac:	0000016f 	andeq	r0, r0, pc, ror #2
878017b0:	ffffff59 			; <UNDEFINED> instruction: 0xffffff59
878017b4:	ffffff59 			; <UNDEFINED> instruction: 0xffffff59
878017b8:	ffffff59 			; <UNDEFINED> instruction: 0xffffff59
878017bc:	ffffff59 			; <UNDEFINED> instruction: 0xffffff59
878017c0:	0000031f 	andeq	r0, r0, pc, lsl r3
878017c4:	ffffff59 			; <UNDEFINED> instruction: 0xffffff59
878017c8:	ffffff59 			; <UNDEFINED> instruction: 0xffffff59
878017cc:	ffffff59 			; <UNDEFINED> instruction: 0xffffff59
878017d0:	ffffff59 			; <UNDEFINED> instruction: 0xffffff59
878017d4:	00000257 	andeq	r0, r0, r7, asr r2
878017d8:	00000269 	andeq	r0, r0, r9, ror #4
878017dc:	ffffff59 			; <UNDEFINED> instruction: 0xffffff59
878017e0:	ffffff59 			; <UNDEFINED> instruction: 0xffffff59
878017e4:	ffffff59 			; <UNDEFINED> instruction: 0xffffff59
878017e8:	00000275 	andeq	r0, r0, r5, ror r2
878017ec:	ffffff59 			; <UNDEFINED> instruction: 0xffffff59
878017f0:	000002d5 	ldrdeq	r0, [r0], -r5
878017f4:	ffffff59 			; <UNDEFINED> instruction: 0xffffff59
878017f8:	ffffff59 			; <UNDEFINED> instruction: 0xffffff59
878017fc:	00000313 	andeq	r0, r0, r3, lsl r3
87801800:	2200      	movs	r2, #0
87801802:	f04f 0e0a 	mov.w	lr, #10
87801806:	fb0e 5202 	mla	r2, lr, r2, r5
8780180a:	f814 5f01 	ldrb.w	r5, [r4, #1]!
8780180e:	f811 c005 	ldrb.w	ip, [r1, r5]
87801812:	3a30      	subs	r2, #48	; 0x30
87801814:	462b      	mov	r3, r5
87801816:	f01c 0f04 	tst.w	ip, #4
8780181a:	d1f4      	bne.n	87801806 <vsscanf+0x232>
8780181c:	e71f      	b.n	8780165e <vsscanf+0x8a>
8780181e:	220a      	movs	r2, #10
87801820:	f04f 0801 	mov.w	r8, #1
87801824:	f8cd 8004 	str.w	r8, [sp, #4]
87801828:	f811 e00c 	ldrb.w	lr, [r1, ip]
8780182c:	f01e 0f20 	tst.w	lr, #32
87801830:	f000 8135 	beq.w	87801a9e <vsscanf+0x4ca>
87801834:	f810 cf01 	ldrb.w	ip, [r0, #1]!
87801838:	f811 e00c 	ldrb.w	lr, [r1, ip]
8780183c:	f01e 0f20 	tst.w	lr, #32
87801840:	d1f8      	bne.n	87801834 <vsscanf+0x260>
87801842:	f1bc 0f2d 	cmp.w	ip, #45	; 0x2d
87801846:	bf14      	ite	ne
87801848:	f04f 0800 	movne.w	r8, #0
8780184c:	f008 0801 	andeq.w	r8, r8, #1
87801850:	f1b8 0f00 	cmp.w	r8, #0
87801854:	d001      	beq.n	8780185a <vsscanf+0x286>
87801856:	f890 c001 	ldrb.w	ip, [r0, #1]
8780185a:	f1bc 0f00 	cmp.w	ip, #0
8780185e:	f43f aed3 	beq.w	87801608 <vsscanf+0x34>
87801862:	2a10      	cmp	r2, #16
87801864:	f000 80ef 	beq.w	87801a46 <vsscanf+0x472>
87801868:	2a0a      	cmp	r2, #10
8780186a:	f000 80e6 	beq.w	87801a3a <vsscanf+0x466>
8780186e:	2a08      	cmp	r2, #8
87801870:	f040 80e0 	bne.w	87801a34 <vsscanf+0x460>
87801874:	f811 100c 	ldrb.w	r1, [r1, ip]
87801878:	f081 0104 	eor.w	r1, r1, #4
8780187c:	f3c1 0180 	ubfx	r1, r1, #2, #1
87801880:	f1bc 0f37 	cmp.w	ip, #55	; 0x37
87801884:	bf88      	it	hi
87801886:	f041 0101 	orrhi.w	r1, r1, #1
8780188a:	2900      	cmp	r1, #0
8780188c:	f47f aebc 	bne.w	87801608 <vsscanf+0x34>
87801890:	3b48      	subs	r3, #72	; 0x48
87801892:	f10a 0804 	add.w	r8, sl, #4
87801896:	f8da a000 	ldr.w	sl, [sl]
8780189a:	2b32      	cmp	r3, #50	; 0x32
8780189c:	d81b      	bhi.n	878018d6 <vsscanf+0x302>
8780189e:	e8df f003 	tbb	[pc, r3]
878018a2:	1a1a1ac0 	bne	87e883aa <__bss_end+0x67ede2>
878018a6:	1a1a1ab7 	bne	87e8838a <__bss_end+0x67edc2>
878018aa:	1a1a1a1a 	bne	87e8811a <__bss_end+0x67eb52>
878018ae:	1a1a1a1a 	bne	87e8811e <__bss_end+0x67eb56>
878018b2:	1ab11a1a 	bne	86448122 <shift+0x86448122>
878018b6:	1a1a1a1a 	bne	87e88126 <__bss_end+0x67eb5e>
878018ba:	1a1a1a1a 	bne	87e8812a <__bss_end+0x67eb62>
878018be:	1a1a1a1a 	bne	87e8812e <__bss_end+0x67eb66>
878018c2:	1a1a1aa8 	bne	87e8836a <__bss_end+0x67eda2>
878018c6:	1a1a1a1a 	bne	87e88136 <__bss_end+0x67eb6e>
878018ca:	1a1a1a1a 	bne	87e8813a <__bss_end+0x67eb72>
878018ce:	1a1a1a1a 	bne	87e8813e <__bss_end+0x67eb76>
878018d2:	00b11a1a 	adcseq	r1, r1, sl, lsl sl
878018d6:	9b01      	ldr	r3, [sp, #4]
878018d8:	4659      	mov	r1, fp
878018da:	2b00      	cmp	r3, #0
878018dc:	f000 80da 	beq.w	87801a94 <vsscanf+0x4c0>
878018e0:	f7ff fac2 	bl	87800e68 <simple_strtol>
878018e4:	f8ca 0000 	str.w	r0, [sl]
878018e8:	9803      	ldr	r0, [sp, #12]
878018ea:	3701      	adds	r7, #1
878018ec:	2800      	cmp	r0, #0
878018ee:	f43f ae8b 	beq.w	87801608 <vsscanf+0x34>
878018f2:	786b      	ldrb	r3, [r5, #1]
878018f4:	46c2      	mov	sl, r8
878018f6:	e67a      	b.n	878015ee <vsscanf+0x1a>
878018f8:	f1bc 0f25 	cmp.w	ip, #37	; 0x25
878018fc:	f47f ae84 	bne.w	87801608 <vsscanf+0x34>
87801900:	3001      	adds	r0, #1
87801902:	786b      	ldrb	r3, [r5, #1]
87801904:	e673      	b.n	878015ee <vsscanf+0x1a>
87801906:	f8da 3000 	ldr.w	r3, [sl]
8780190a:	eba0 0209 	sub.w	r2, r0, r9
8780190e:	f10a 0a04 	add.w	sl, sl, #4
87801912:	601a      	str	r2, [r3, #0]
87801914:	786b      	ldrb	r3, [r5, #1]
87801916:	e66a      	b.n	878015ee <vsscanf+0x1a>
87801918:	f04f 0800 	mov.w	r8, #0
8780191c:	2208      	movs	r2, #8
8780191e:	f8cd 8004 	str.w	r8, [sp, #4]
87801922:	e781      	b.n	87801828 <vsscanf+0x254>
87801924:	f1b2 3fff 	cmp.w	r2, #4294967295	; 0xffffffff
87801928:	f10a 0804 	add.w	r8, sl, #4
8780192c:	f8da e000 	ldr.w	lr, [sl]
87801930:	f811 300c 	ldrb.w	r3, [r1, ip]
87801934:	f000 80d3 	beq.w	87801ade <vsscanf+0x50a>
87801938:	069b      	lsls	r3, r3, #26
8780193a:	d508      	bpl.n	8780194e <vsscanf+0x37a>
8780193c:	f810 cf01 	ldrb.w	ip, [r0, #1]!
87801940:	f811 300c 	ldrb.w	r3, [r1, ip]
87801944:	069b      	lsls	r3, r3, #26
87801946:	d4f9      	bmi.n	8780193c <vsscanf+0x368>
87801948:	f1bc 0f00 	cmp.w	ip, #0
8780194c:	d013      	beq.n	87801976 <vsscanf+0x3a2>
8780194e:	b192      	cbz	r2, 87801976 <vsscanf+0x3a2>
87801950:	1c43      	adds	r3, r0, #1
87801952:	4618      	mov	r0, r3
87801954:	4663      	mov	r3, ip
87801956:	4684      	mov	ip, r0
87801958:	e006      	b.n	87801968 <vsscanf+0x394>
8780195a:	f811 a003 	ldrb.w	sl, [r1, r3]
8780195e:	f01a 0f20 	tst.w	sl, #32
87801962:	d108      	bne.n	87801976 <vsscanf+0x3a2>
87801964:	3a01      	subs	r2, #1
87801966:	d006      	beq.n	87801976 <vsscanf+0x3a2>
87801968:	f80e 3b01 	strb.w	r3, [lr], #1
8780196c:	4660      	mov	r0, ip
8780196e:	f81c 3b01 	ldrb.w	r3, [ip], #1
87801972:	2b00      	cmp	r3, #0
87801974:	d1f1      	bne.n	8780195a <vsscanf+0x386>
87801976:	2300      	movs	r3, #0
87801978:	3701      	adds	r7, #1
8780197a:	f88e 3000 	strb.w	r3, [lr]
8780197e:	46c2      	mov	sl, r8
87801980:	786b      	ldrb	r3, [r5, #1]
87801982:	e634      	b.n	878015ee <vsscanf+0x1a>
87801984:	f04f 0800 	mov.w	r8, #0
87801988:	220a      	movs	r2, #10
8780198a:	f8cd 8004 	str.w	r8, [sp, #4]
8780198e:	e74b      	b.n	87801828 <vsscanf+0x254>
87801990:	1c53      	adds	r3, r2, #1
87801992:	f10a 0e04 	add.w	lr, sl, #4
87801996:	f8da 1000 	ldr.w	r1, [sl]
8780199a:	f000 80a6 	beq.w	87801aea <vsscanf+0x516>
8780199e:	1c43      	adds	r3, r0, #1
878019a0:	4618      	mov	r0, r3
878019a2:	4663      	mov	r3, ip
878019a4:	4684      	mov	ip, r0
878019a6:	3a01      	subs	r2, #1
878019a8:	f801 3b01 	strb.w	r3, [r1], #1
878019ac:	2a00      	cmp	r2, #0
878019ae:	4660      	mov	r0, ip
878019b0:	dd03      	ble.n	878019ba <vsscanf+0x3e6>
878019b2:	f81c 3b01 	ldrb.w	r3, [ip], #1
878019b6:	2b00      	cmp	r3, #0
878019b8:	d1f5      	bne.n	878019a6 <vsscanf+0x3d2>
878019ba:	3701      	adds	r7, #1
878019bc:	786b      	ldrb	r3, [r5, #1]
878019be:	46f2      	mov	sl, lr
878019c0:	e615      	b.n	878015ee <vsscanf+0x1a>
878019c2:	f04f 0800 	mov.w	r8, #0
878019c6:	2210      	movs	r2, #16
878019c8:	f8cd 8004 	str.w	r8, [sp, #4]
878019cc:	e72c      	b.n	87801828 <vsscanf+0x254>
878019ce:	f04f 0801 	mov.w	r8, #1
878019d2:	2200      	movs	r2, #0
878019d4:	f8cd 8004 	str.w	r8, [sp, #4]
878019d8:	e726      	b.n	87801828 <vsscanf+0x254>
878019da:	2b68      	cmp	r3, #104	; 0x68
878019dc:	d07a      	beq.n	87801ad4 <vsscanf+0x500>
878019de:	2b6c      	cmp	r3, #108	; 0x6c
878019e0:	bf18      	it	ne
878019e2:	469e      	movne	lr, r3
878019e4:	f47f ae50 	bne.w	87801688 <vsscanf+0xb4>
878019e8:	1ca5      	adds	r5, r4, #2
878019ea:	f894 e002 	ldrb.w	lr, [r4, #2]
878019ee:	234c      	movs	r3, #76	; 0x4c
878019f0:	e64a      	b.n	87801688 <vsscanf+0xb4>
878019f2:	9b01      	ldr	r3, [sp, #4]
878019f4:	4659      	mov	r1, fp
878019f6:	2b00      	cmp	r3, #0
878019f8:	d067      	beq.n	87801aca <vsscanf+0x4f6>
878019fa:	f7ff fa35 	bl	87800e68 <simple_strtol>
878019fe:	f8aa 0000 	strh.w	r0, [sl]
87801a02:	e771      	b.n	878018e8 <vsscanf+0x314>
87801a04:	4659      	mov	r1, fp
87801a06:	f7ff f9bd 	bl	87800d84 <simple_strtoul>
87801a0a:	f8ca 0000 	str.w	r0, [sl]
87801a0e:	e76b      	b.n	878018e8 <vsscanf+0x314>
87801a10:	9b01      	ldr	r3, [sp, #4]
87801a12:	4659      	mov	r1, fp
87801a14:	2b00      	cmp	r3, #0
87801a16:	d053      	beq.n	87801ac0 <vsscanf+0x4ec>
87801a18:	f7ff fad0 	bl	87800fbc <simple_strtoll>
87801a1c:	e9ca 0100 	strd	r0, r1, [sl]
87801a20:	e762      	b.n	878018e8 <vsscanf+0x314>
87801a22:	9b01      	ldr	r3, [sp, #4]
87801a24:	4659      	mov	r1, fp
87801a26:	2b00      	cmp	r3, #0
87801a28:	d045      	beq.n	87801ab6 <vsscanf+0x4e2>
87801a2a:	f7ff fa1d 	bl	87800e68 <simple_strtol>
87801a2e:	f88a 0000 	strb.w	r0, [sl]
87801a32:	e759      	b.n	878018e8 <vsscanf+0x314>
87801a34:	2a00      	cmp	r2, #0
87801a36:	f47f af2b 	bne.w	87801890 <vsscanf+0x2bc>
87801a3a:	f811 100c 	ldrb.w	r1, [r1, ip]
87801a3e:	0749      	lsls	r1, r1, #29
87801a40:	f57f ade2 	bpl.w	87801608 <vsscanf+0x34>
87801a44:	e724      	b.n	87801890 <vsscanf+0x2bc>
87801a46:	f811 100c 	ldrb.w	r1, [r1, ip]
87801a4a:	f011 0f44 	tst.w	r1, #68	; 0x44
87801a4e:	f47f af1f 	bne.w	87801890 <vsscanf+0x2bc>
87801a52:	e5d9      	b.n	87801608 <vsscanf+0x34>
87801a54:	469e      	mov	lr, r3
87801a56:	4625      	mov	r5, r4
87801a58:	f04f 33ff 	mov.w	r3, #4294967295	; 0xffffffff
87801a5c:	e614      	b.n	87801688 <vsscanf+0xb4>
87801a5e:	0695      	lsls	r5, r2, #26
87801a60:	d40a      	bmi.n	87801a78 <vsscanf+0x4a4>
87801a62:	f814 3f01 	ldrb.w	r3, [r4, #1]!
87801a66:	1c1d      	adds	r5, r3, #0
87801a68:	5cca      	ldrb	r2, [r1, r3]
87801a6a:	bf18      	it	ne
87801a6c:	2501      	movne	r5, #1
87801a6e:	f082 0220 	eor.w	r2, r2, #32
87801a72:	ea15 1252 	ands.w	r2, r5, r2, lsr #5
87801a76:	d1f4      	bne.n	87801a62 <vsscanf+0x48e>
87801a78:	7802      	ldrb	r2, [r0, #0]
87801a7a:	e001      	b.n	87801a80 <vsscanf+0x4ac>
87801a7c:	f810 2f01 	ldrb.w	r2, [r0, #1]!
87801a80:	1c15      	adds	r5, r2, #0
87801a82:	5c8a      	ldrb	r2, [r1, r2]
87801a84:	f082 0220 	eor.w	r2, r2, #32
87801a88:	bf18      	it	ne
87801a8a:	2501      	movne	r5, #1
87801a8c:	ea15 1252 	ands.w	r2, r5, r2, lsr #5
87801a90:	d1f4      	bne.n	87801a7c <vsscanf+0x4a8>
87801a92:	e5ac      	b.n	878015ee <vsscanf+0x1a>
87801a94:	f7ff f976 	bl	87800d84 <simple_strtoul>
87801a98:	f8ca 0000 	str.w	r0, [sl]
87801a9c:	e724      	b.n	878018e8 <vsscanf+0x314>
87801a9e:	f1bc 0f2d 	cmp.w	ip, #45	; 0x2d
87801aa2:	bf14      	ite	ne
87801aa4:	f04f 0800 	movne.w	r8, #0
87801aa8:	f008 0801 	andeq.w	r8, r8, #1
87801aac:	f1b8 0f00 	cmp.w	r8, #0
87801ab0:	f47f aed1 	bne.w	87801856 <vsscanf+0x282>
87801ab4:	e6d5      	b.n	87801862 <vsscanf+0x28e>
87801ab6:	f7ff f965 	bl	87800d84 <simple_strtoul>
87801aba:	f88a 0000 	strb.w	r0, [sl]
87801abe:	e713      	b.n	878018e8 <vsscanf+0x314>
87801ac0:	f7ff f9e0 	bl	87800e84 <simple_strtoull>
87801ac4:	e9ca 0100 	strd	r0, r1, [sl]
87801ac8:	e70e      	b.n	878018e8 <vsscanf+0x314>
87801aca:	f7ff f95b 	bl	87800d84 <simple_strtoul>
87801ace:	f8aa 0000 	strh.w	r0, [sl]
87801ad2:	e709      	b.n	878018e8 <vsscanf+0x314>
87801ad4:	1ca5      	adds	r5, r4, #2
87801ad6:	f894 e002 	ldrb.w	lr, [r4, #2]
87801ada:	2348      	movs	r3, #72	; 0x48
87801adc:	e5d4      	b.n	87801688 <vsscanf+0xb4>
87801ade:	069b      	lsls	r3, r3, #26
87801ae0:	f06f 4200 	mvn.w	r2, #2147483648	; 0x80000000
87801ae4:	f57f af34 	bpl.w	87801950 <vsscanf+0x37c>
87801ae8:	e728      	b.n	8780193c <vsscanf+0x368>
87801aea:	3001      	adds	r0, #1
87801aec:	f881 c000 	strb.w	ip, [r1]
87801af0:	e763      	b.n	878019ba <vsscanf+0x3e6>
87801af2:	bf00      	nop
87801af4:	ffffea10 			; <UNDEFINED> instruction: 0xffffea10
87801af8:	0000015c 	andeq	r0, r0, ip, asr r1

87801afc <sscanf>:
87801afc:	b40e      	push	{r1, r2, r3}
87801afe:	b500      	push	{lr}
87801b00:	aa02      	add	r2, sp, #8
87801b02:	9901      	ldr	r1, [sp, #4]
87801b04:	f7ff fd66 	bl	878015d4 <vsscanf>
87801b08:	f85d eb04 	ldr.w	lr, [sp], #4
87801b0c:	b003      	add	sp, #12
87801b0e:	4770      	bx	lr

87801b10 <clk_enable>:
87801b10:	f44f 4380 	mov.w	r3, #16384	; 0x4000
87801b14:	f2c0 230c 	movt	r3, #524	; 0x20c
87801b18:	f04f 32ff 	mov.w	r2, #4294967295	; 0xffffffff
87801b1c:	669a      	str	r2, [r3, #104]	; 0x68
87801b1e:	66da      	str	r2, [r3, #108]	; 0x6c
87801b20:	671a      	str	r2, [r3, #112]	; 0x70
87801b22:	675a      	str	r2, [r3, #116]	; 0x74
87801b24:	679a      	str	r2, [r3, #120]	; 0x78
87801b26:	67da      	str	r2, [r3, #124]	; 0x7c
87801b28:	f8c3 2080 	str.w	r2, [r3, #128]	; 0x80
87801b2c:	4770      	bx	lr
87801b2e:	bf00      	nop

87801b30 <imx6u_clkinit>:
87801b30:	f44f 4380 	mov.w	r3, #16384	; 0x4000
87801b34:	f2c0 230c 	movt	r3, #524	; 0x20c
87801b38:	b430      	push	{r4, r5}
87801b3a:	68da      	ldr	r2, [r3, #12]
87801b3c:	0751      	lsls	r1, r2, #29
87801b3e:	d407      	bmi.n	87801b50 <imx6u_clkinit+0x20>
87801b40:	68da      	ldr	r2, [r3, #12]
87801b42:	f422 7280 	bic.w	r2, r2, #256	; 0x100
87801b46:	60da      	str	r2, [r3, #12]
87801b48:	68da      	ldr	r2, [r3, #12]
87801b4a:	f042 0204 	orr.w	r2, r2, #4
87801b4e:	60da      	str	r2, [r3, #12]
87801b50:	f44f 4100 	mov.w	r1, #32768	; 0x8000
87801b54:	f44f 4280 	mov.w	r2, #16384	; 0x4000
87801b58:	f2c0 210c 	movt	r1, #524	; 0x20c
87801b5c:	f2c0 220c 	movt	r2, #524	; 0x20c
87801b60:	f242 0358 	movw	r3, #8280	; 0x2058
87801b64:	2501      	movs	r5, #1
87801b66:	600b      	str	r3, [r1, #0]
87801b68:	f241 041b 	movw	r4, #4123	; 0x101b
87801b6c:	68d3      	ldr	r3, [r2, #12]
87801b6e:	f2c2 0418 	movt	r4, #8216	; 0x2018
87801b72:	f241 000c 	movw	r0, #4108	; 0x100c
87801b76:	f2c1 3011 	movt	r0, #4881	; 0x1311
87801b7a:	f023 0304 	bic.w	r3, r3, #4
87801b7e:	60d3      	str	r3, [r2, #12]
87801b80:	6115      	str	r5, [r2, #16]
87801b82:	4613      	mov	r3, r2
87801b84:	f8d1 5100 	ldr.w	r5, [r1, #256]	; 0x100
87801b88:	f005 35c0 	and.w	r5, r5, #3233857728	; 0xc0c0c0c0
87801b8c:	432c      	orrs	r4, r5
87801b8e:	f8c1 4100 	str.w	r4, [r1, #256]	; 0x100
87801b92:	f8d1 40f0 	ldr.w	r4, [r1, #240]	; 0xf0
87801b96:	f004 34c0 	and.w	r4, r4, #3233857728	; 0xc0c0c0c0
87801b9a:	4320      	orrs	r0, r4
87801b9c:	f8c1 00f0 	str.w	r0, [r1, #240]	; 0xf0
87801ba0:	6991      	ldr	r1, [r2, #24]
87801ba2:	f421 2140 	bic.w	r1, r1, #786432	; 0xc0000
87801ba6:	6191      	str	r1, [r2, #24]
87801ba8:	6991      	ldr	r1, [r2, #24]
87801baa:	f441 2180 	orr.w	r1, r1, #262144	; 0x40000
87801bae:	6191      	str	r1, [r2, #24]
87801bb0:	6951      	ldr	r1, [r2, #20]
87801bb2:	f021 7100 	bic.w	r1, r1, #33554432	; 0x2000000
87801bb6:	6151      	str	r1, [r2, #20]
87801bb8:	6c9a      	ldr	r2, [r3, #72]	; 0x48
87801bba:	0692      	lsls	r2, r2, #26
87801bbc:	d4fc      	bmi.n	87801bb8 <imx6u_clkinit+0x88>
87801bbe:	695a      	ldr	r2, [r3, #20]
87801bc0:	bc30      	pop	{r4, r5}
87801bc2:	f422 7240 	bic.w	r2, r2, #768	; 0x300
87801bc6:	615a      	str	r2, [r3, #20]
87801bc8:	695a      	ldr	r2, [r3, #20]
87801bca:	f442 7280 	orr.w	r2, r2, #256	; 0x100
87801bce:	615a      	str	r2, [r3, #20]
87801bd0:	69da      	ldr	r2, [r3, #28]
87801bd2:	f022 0240 	bic.w	r2, r2, #64	; 0x40
87801bd6:	61da      	str	r2, [r3, #28]
87801bd8:	69da      	ldr	r2, [r3, #28]
87801bda:	f022 0207 	bic.w	r2, r2, #7
87801bde:	61da      	str	r2, [r3, #28]
87801be0:	6a5a      	ldr	r2, [r3, #36]	; 0x24
87801be2:	f022 0240 	bic.w	r2, r2, #64	; 0x40
87801be6:	625a      	str	r2, [r3, #36]	; 0x24
87801be8:	6a5a      	ldr	r2, [r3, #36]	; 0x24
87801bea:	f022 023f 	bic.w	r2, r2, #63	; 0x3f
87801bee:	625a      	str	r2, [r3, #36]	; 0x24
87801bf0:	4770      	bx	lr
87801bf2:	bf00      	nop

87801bf4 <led_init>:
87801bf4:	2168      	movs	r1, #104	; 0x68
87801bf6:	f44f 723d 	mov.w	r2, #756	; 0x2f4
87801bfa:	f2c0 210e 	movt	r1, #526	; 0x20e
87801bfe:	f2c0 220e 	movt	r2, #526	; 0x20e
87801c02:	f44f 4340 	mov.w	r3, #49152	; 0xc000
87801c06:	f2c0 2309 	movt	r3, #521	; 0x209
87801c0a:	b410      	push	{r4}
87801c0c:	f241 00b0 	movw	r0, #4272	; 0x10b0
87801c10:	2405      	movs	r4, #5
87801c12:	600c      	str	r4, [r1, #0]
87801c14:	6010      	str	r0, [r2, #0]
87801c16:	685a      	ldr	r2, [r3, #4]
87801c18:	f85d 4b04 	ldr.w	r4, [sp], #4
87801c1c:	f042 0208 	orr.w	r2, r2, #8
87801c20:	605a      	str	r2, [r3, #4]
87801c22:	681a      	ldr	r2, [r3, #0]
87801c24:	f022 0208 	bic.w	r2, r2, #8
87801c28:	601a      	str	r2, [r3, #0]
87801c2a:	4770      	bx	lr

87801c2c <led_switch>:
87801c2c:	b950      	cbnz	r0, 87801c44 <led_switch+0x18>
87801c2e:	2901      	cmp	r1, #1
87801c30:	d009      	beq.n	87801c46 <led_switch+0x1a>
87801c32:	b939      	cbnz	r1, 87801c44 <led_switch+0x18>
87801c34:	f44f 4340 	mov.w	r3, #49152	; 0xc000
87801c38:	f2c0 2309 	movt	r3, #521	; 0x209
87801c3c:	681a      	ldr	r2, [r3, #0]
87801c3e:	f042 0208 	orr.w	r2, r2, #8
87801c42:	601a      	str	r2, [r3, #0]
87801c44:	4770      	bx	lr
87801c46:	f44f 4340 	mov.w	r3, #49152	; 0xc000
87801c4a:	f2c0 2309 	movt	r3, #521	; 0x209
87801c4e:	681a      	ldr	r2, [r3, #0]
87801c50:	f022 0208 	bic.w	r2, r2, #8
87801c54:	601a      	str	r2, [r3, #0]
87801c56:	4770      	bx	lr

87801c58 <delay_init>:
87801c58:	f44f 4300 	mov.w	r3, #32768	; 0x8000
87801c5c:	f2c0 2309 	movt	r3, #521	; 0x209
87801c60:	2000      	movs	r0, #0
87801c62:	f44f 4100 	mov.w	r1, #32768	; 0x8000
87801c66:	461a      	mov	r2, r3
87801c68:	6018      	str	r0, [r3, #0]
87801c6a:	6019      	str	r1, [r3, #0]
87801c6c:	6813      	ldr	r3, [r2, #0]
87801c6e:	041b      	lsls	r3, r3, #16
87801c70:	d4fc      	bmi.n	87801c6c <delay_init+0x14>
87801c72:	2340      	movs	r3, #64	; 0x40
87801c74:	2141      	movs	r1, #65	; 0x41
87801c76:	6013      	str	r3, [r2, #0]
87801c78:	f04f 33ff 	mov.w	r3, #4294967295	; 0xffffffff
87801c7c:	6051      	str	r1, [r2, #4]
87801c7e:	6113      	str	r3, [r2, #16]
87801c80:	6813      	ldr	r3, [r2, #0]
87801c82:	f043 0301 	orr.w	r3, r3, #1
87801c86:	6013      	str	r3, [r2, #0]
87801c88:	4770      	bx	lr
87801c8a:	bf00      	nop

87801c8c <delayus>:
87801c8c:	f44f 4100 	mov.w	r1, #32768	; 0x8000
87801c90:	f2c0 2109 	movt	r1, #521	; 0x209
87801c94:	b430      	push	{r4, r5}
87801c96:	2400      	movs	r4, #0
87801c98:	6a4a      	ldr	r2, [r1, #36]	; 0x24
87801c9a:	6a4b      	ldr	r3, [r1, #36]	; 0x24
87801c9c:	429a      	cmp	r2, r3
87801c9e:	d0fc      	beq.n	87801c9a <delayus+0xe>
87801ca0:	f104 35ff 	add.w	r5, r4, #4294967295	; 0xffffffff
87801ca4:	eba4 0402 	sub.w	r4, r4, r2
87801ca8:	eba5 0202 	sub.w	r2, r5, r2
87801cac:	bf34      	ite	cc
87801cae:	18e4      	addcc	r4, r4, r3
87801cb0:	18d4      	addcs	r4, r2, r3
87801cb2:	461a      	mov	r2, r3
87801cb4:	4284      	cmp	r4, r0
87801cb6:	d3f0      	bcc.n	87801c9a <delayus+0xe>
87801cb8:	bc30      	pop	{r4, r5}
87801cba:	4770      	bx	lr

87801cbc <delayms>:
87801cbc:	b1e0      	cbz	r0, 87801cf8 <delayms+0x3c>
87801cbe:	f44f 4100 	mov.w	r1, #32768	; 0x8000
87801cc2:	f2c0 2109 	movt	r1, #521	; 0x209
87801cc6:	b470      	push	{r4, r5, r6}
87801cc8:	2600      	movs	r6, #0
87801cca:	6a4a      	ldr	r2, [r1, #36]	; 0x24
87801ccc:	2400      	movs	r4, #0
87801cce:	6a4b      	ldr	r3, [r1, #36]	; 0x24
87801cd0:	4293      	cmp	r3, r2
87801cd2:	d0fc      	beq.n	87801cce <delayms+0x12>
87801cd4:	f104 35ff 	add.w	r5, r4, #4294967295	; 0xffffffff
87801cd8:	eba4 0402 	sub.w	r4, r4, r2
87801cdc:	eba5 0202 	sub.w	r2, r5, r2
87801ce0:	bf8c      	ite	hi
87801ce2:	18e4      	addhi	r4, r4, r3
87801ce4:	189c      	addls	r4, r3, r2
87801ce6:	461a      	mov	r2, r3
87801ce8:	f5b4 7f7a 	cmp.w	r4, #1000	; 0x3e8
87801cec:	d3ef      	bcc.n	87801cce <delayms+0x12>
87801cee:	3601      	adds	r6, #1
87801cf0:	4286      	cmp	r6, r0
87801cf2:	d1ea      	bne.n	87801cca <delayms+0xe>
87801cf4:	bc70      	pop	{r4, r5, r6}
87801cf6:	4770      	bx	lr
87801cf8:	4770      	bx	lr
87801cfa:	bf00      	nop

87801cfc <delay_short>:
87801cfc:	b082      	sub	sp, #8
87801cfe:	9001      	str	r0, [sp, #4]
87801d00:	9b01      	ldr	r3, [sp, #4]
87801d02:	1e5a      	subs	r2, r3, #1
87801d04:	9201      	str	r2, [sp, #4]
87801d06:	2b00      	cmp	r3, #0
87801d08:	d1fa      	bne.n	87801d00 <delay_short+0x4>
87801d0a:	b002      	add	sp, #8
87801d0c:	4770      	bx	lr
87801d0e:	bf00      	nop

87801d10 <delay>:
87801d10:	b082      	sub	sp, #8
87801d12:	9001      	str	r0, [sp, #4]
87801d14:	9b01      	ldr	r3, [sp, #4]
87801d16:	1e5a      	subs	r2, r3, #1
87801d18:	9201      	str	r2, [sp, #4]
87801d1a:	b153      	cbz	r3, 87801d32 <delay+0x22>
87801d1c:	f240 73ff 	movw	r3, #2047	; 0x7ff
87801d20:	461a      	mov	r2, r3
87801d22:	3b01      	subs	r3, #1
87801d24:	2a00      	cmp	r2, #0
87801d26:	d1fb      	bne.n	87801d20 <delay+0x10>
87801d28:	9b01      	ldr	r3, [sp, #4]
87801d2a:	1e5a      	subs	r2, r3, #1
87801d2c:	9201      	str	r2, [sp, #4]
87801d2e:	2b00      	cmp	r3, #0
87801d30:	d1f4      	bne.n	87801d1c <delay+0xc>
87801d32:	b002      	add	sp, #8
87801d34:	4770      	bx	lr
87801d36:	bf00      	nop

87801d38 <beep_init>:
87801d38:	210c      	movs	r1, #12
87801d3a:	2250      	movs	r2, #80	; 0x50
87801d3c:	f2c0 2129 	movt	r1, #553	; 0x229
87801d40:	f2c0 2229 	movt	r2, #553	; 0x229
87801d44:	f44f 4340 	mov.w	r3, #49152	; 0xc000
87801d48:	f2c0 230a 	movt	r3, #522	; 0x20a
87801d4c:	b410      	push	{r4}
87801d4e:	f241 00b0 	movw	r0, #4272	; 0x10b0
87801d52:	2405      	movs	r4, #5
87801d54:	600c      	str	r4, [r1, #0]
87801d56:	6010      	str	r0, [r2, #0]
87801d58:	685a      	ldr	r2, [r3, #4]
87801d5a:	f85d 4b04 	ldr.w	r4, [sp], #4
87801d5e:	f042 0202 	orr.w	r2, r2, #2
87801d62:	605a      	str	r2, [r3, #4]
87801d64:	681a      	ldr	r2, [r3, #0]
87801d66:	f042 0202 	orr.w	r2, r2, #2
87801d6a:	601a      	str	r2, [r3, #0]
87801d6c:	4770      	bx	lr
87801d6e:	bf00      	nop

87801d70 <beep_switch>:
87801d70:	2801      	cmp	r0, #1
87801d72:	d009      	beq.n	87801d88 <beep_switch+0x18>
87801d74:	b938      	cbnz	r0, 87801d86 <beep_switch+0x16>
87801d76:	f44f 4340 	mov.w	r3, #49152	; 0xc000
87801d7a:	f2c0 230a 	movt	r3, #522	; 0x20a
87801d7e:	681a      	ldr	r2, [r3, #0]
87801d80:	f042 0202 	orr.w	r2, r2, #2
87801d84:	601a      	str	r2, [r3, #0]
87801d86:	4770      	bx	lr
87801d88:	f44f 4340 	mov.w	r3, #49152	; 0xc000
87801d8c:	f2c0 230a 	movt	r3, #522	; 0x20a
87801d90:	681a      	ldr	r2, [r3, #0]
87801d92:	f022 0202 	bic.w	r2, r2, #2
87801d96:	601a      	str	r2, [r3, #0]
87801d98:	4770      	bx	lr
87801d9a:	bf00      	nop

87801d9c <gpio_pinread>:
87801d9c:	6800      	ldr	r0, [r0, #0]
87801d9e:	40c8      	lsrs	r0, r1
87801da0:	f000 0001 	and.w	r0, r0, #1
87801da4:	4770      	bx	lr
87801da6:	bf00      	nop

87801da8 <gpio_pinwrite>:
87801da8:	2301      	movs	r3, #1
87801daa:	fa03 f101 	lsl.w	r1, r3, r1
87801dae:	6803      	ldr	r3, [r0, #0]
87801db0:	b112      	cbz	r2, 87801db8 <gpio_pinwrite+0x10>
87801db2:	4319      	orrs	r1, r3
87801db4:	6001      	str	r1, [r0, #0]
87801db6:	4770      	bx	lr
87801db8:	ea23 0101 	bic.w	r1, r3, r1
87801dbc:	6001      	str	r1, [r0, #0]
87801dbe:	4770      	bx	lr

87801dc0 <gpio_intconfig>:
87801dc0:	b410      	push	{r4}
87801dc2:	2301      	movs	r3, #1
87801dc4:	69c4      	ldr	r4, [r0, #28]
87801dc6:	290f      	cmp	r1, #15
87801dc8:	fa03 f301 	lsl.w	r3, r3, r1
87801dcc:	f102 32ff 	add.w	r2, r2, #4294967295	; 0xffffffff
87801dd0:	ea24 0403 	bic.w	r4, r4, r3
87801dd4:	bf88      	it	hi
87801dd6:	3910      	subhi	r1, #16
87801dd8:	61c4      	str	r4, [r0, #28]
87801dda:	bf94      	ite	ls
87801ddc:	f100 040c 	addls.w	r4, r0, #12
87801de0:	f100 0410 	addhi.w	r4, r0, #16
87801de4:	2a04      	cmp	r2, #4
87801de6:	d807      	bhi.n	87801df8 <gpio_intconfig+0x38>
87801de8:	e8df f002 	tbb	[pc, r2]
87801dec:	30221409 	eorcc	r1, r2, r9, lsl #8
87801df0:	69c20003 	stmibvs	r2, {r0, r1}^
87801df4:	4313      	orrs	r3, r2
87801df6:	61c3      	str	r3, [r0, #28]
87801df8:	f85d 4b04 	ldr.w	r4, [sp], #4
87801dfc:	4770      	bx	lr
87801dfe:	6823      	ldr	r3, [r4, #0]
87801e00:	0049      	lsls	r1, r1, #1
87801e02:	2203      	movs	r2, #3
87801e04:	fa02 f101 	lsl.w	r1, r2, r1
87801e08:	ea23 0101 	bic.w	r1, r3, r1
87801e0c:	6021      	str	r1, [r4, #0]
87801e0e:	f85d 4b04 	ldr.w	r4, [sp], #4
87801e12:	4770      	bx	lr
87801e14:	6823      	ldr	r3, [r4, #0]
87801e16:	0049      	lsls	r1, r1, #1
87801e18:	2003      	movs	r0, #3
87801e1a:	2201      	movs	r2, #1
87801e1c:	4088      	lsls	r0, r1
87801e1e:	fa02 f101 	lsl.w	r1, r2, r1
87801e22:	ea23 0300 	bic.w	r3, r3, r0
87801e26:	4319      	orrs	r1, r3
87801e28:	6021      	str	r1, [r4, #0]
87801e2a:	f85d 4b04 	ldr.w	r4, [sp], #4
87801e2e:	4770      	bx	lr
87801e30:	6823      	ldr	r3, [r4, #0]
87801e32:	0049      	lsls	r1, r1, #1
87801e34:	2003      	movs	r0, #3
87801e36:	2202      	movs	r2, #2
87801e38:	4088      	lsls	r0, r1
87801e3a:	fa02 f101 	lsl.w	r1, r2, r1
87801e3e:	ea23 0300 	bic.w	r3, r3, r0
87801e42:	4319      	orrs	r1, r3
87801e44:	6021      	str	r1, [r4, #0]
87801e46:	f85d 4b04 	ldr.w	r4, [sp], #4
87801e4a:	4770      	bx	lr
87801e4c:	6822      	ldr	r2, [r4, #0]
87801e4e:	0049      	lsls	r1, r1, #1
87801e50:	2303      	movs	r3, #3
87801e52:	fa03 f101 	lsl.w	r1, r3, r1
87801e56:	4311      	orrs	r1, r2
87801e58:	6021      	str	r1, [r4, #0]
87801e5a:	f85d 4b04 	ldr.w	r4, [sp], #4
87801e5e:	4770      	bx	lr

87801e60 <gpio_init>:
87801e60:	b470      	push	{r4, r5, r6}
87801e62:	2301      	movs	r3, #1
87801e64:	6816      	ldr	r6, [r2, #0]
87801e66:	408b      	lsls	r3, r1
87801e68:	6944      	ldr	r4, [r0, #20]
87801e6a:	43dd      	mvns	r5, r3
87801e6c:	402c      	ands	r4, r5
87801e6e:	6144      	str	r4, [r0, #20]
87801e70:	b15e      	cbz	r6, 87801e8a <gpio_init+0x2a>
87801e72:	6844      	ldr	r4, [r0, #4]
87801e74:	431c      	orrs	r4, r3
87801e76:	6044      	str	r4, [r0, #4]
87801e78:	7914      	ldrb	r4, [r2, #4]
87801e7a:	b16c      	cbz	r4, 87801e98 <gpio_init+0x38>
87801e7c:	6804      	ldr	r4, [r0, #0]
87801e7e:	6892      	ldr	r2, [r2, #8]
87801e80:	4323      	orrs	r3, r4
87801e82:	6003      	str	r3, [r0, #0]
87801e84:	bc70      	pop	{r4, r5, r6}
87801e86:	f7ff bf9b 	b.w	87801dc0 <gpio_intconfig>
87801e8a:	6843      	ldr	r3, [r0, #4]
87801e8c:	6892      	ldr	r2, [r2, #8]
87801e8e:	401d      	ands	r5, r3
87801e90:	6045      	str	r5, [r0, #4]
87801e92:	bc70      	pop	{r4, r5, r6}
87801e94:	f7ff bf94 	b.w	87801dc0 <gpio_intconfig>
87801e98:	6803      	ldr	r3, [r0, #0]
87801e9a:	6892      	ldr	r2, [r2, #8]
87801e9c:	401d      	ands	r5, r3
87801e9e:	6005      	str	r5, [r0, #0]
87801ea0:	bc70      	pop	{r4, r5, r6}
87801ea2:	f7ff bf8d 	b.w	87801dc0 <gpio_intconfig>
87801ea6:	bf00      	nop

87801ea8 <gpio_enableint>:
87801ea8:	6942      	ldr	r2, [r0, #20]
87801eaa:	2301      	movs	r3, #1
87801eac:	fa03 f101 	lsl.w	r1, r3, r1
87801eb0:	4311      	orrs	r1, r2
87801eb2:	6141      	str	r1, [r0, #20]
87801eb4:	4770      	bx	lr
87801eb6:	bf00      	nop

87801eb8 <gpio_disableint>:
87801eb8:	6943      	ldr	r3, [r0, #20]
87801eba:	2201      	movs	r2, #1
87801ebc:	fa02 f101 	lsl.w	r1, r2, r1
87801ec0:	ea23 0301 	bic.w	r3, r3, r1
87801ec4:	6143      	str	r3, [r0, #20]
87801ec6:	4770      	bx	lr

87801ec8 <gpio_clearintflags>:
87801ec8:	6982      	ldr	r2, [r0, #24]
87801eca:	2301      	movs	r3, #1
87801ecc:	fa03 f101 	lsl.w	r1, r3, r1
87801ed0:	4311      	orrs	r1, r2
87801ed2:	6181      	str	r1, [r0, #24]
87801ed4:	4770      	bx	lr
87801ed6:	bf00      	nop

87801ed8 <key_init>:
87801ed8:	b510      	push	{r4, lr}
87801eda:	b084      	sub	sp, #16
87801edc:	aa04      	add	r2, sp, #16
87801ede:	218c      	movs	r1, #140	; 0x8c
87801ee0:	f44f 7346 	mov.w	r3, #792	; 0x318
87801ee4:	f2c0 210e 	movt	r1, #526	; 0x20e
87801ee8:	f2c0 230e 	movt	r3, #526	; 0x20e
87801eec:	2405      	movs	r4, #5
87801eee:	f24f 0080 	movw	r0, #61568	; 0xf080
87801ef2:	600c      	str	r4, [r1, #0]
87801ef4:	6018      	str	r0, [r3, #0]
87801ef6:	2100      	movs	r1, #0
87801ef8:	f44f 4040 	mov.w	r0, #49152	; 0xc000
87801efc:	f842 1d0c 	str.w	r1, [r2, #-12]!
87801f00:	f2c0 2009 	movt	r0, #521	; 0x209
87801f04:	2112      	movs	r1, #18
87801f06:	f7ff ffab 	bl	87801e60 <gpio_init>
87801f0a:	b004      	add	sp, #16
87801f0c:	bd10      	pop	{r4, pc}
87801f0e:	bf00      	nop

87801f10 <key_getvalue>:
87801f10:	b538      	push	{r3, r4, r5, lr}
87801f12:	4c18      	ldr	r4, [pc, #96]	; (87801f74 <key_getvalue+0x64>)
87801f14:	447c      	add	r4, pc
87801f16:	7823      	ldrb	r3, [r4, #0]
87801f18:	2b01      	cmp	r3, #1
87801f1a:	d011      	beq.n	87801f40 <key_getvalue+0x30>
87801f1c:	f44f 4040 	mov.w	r0, #49152	; 0xc000
87801f20:	2112      	movs	r1, #18
87801f22:	f2c0 2009 	movt	r0, #521	; 0x209
87801f26:	f7ff ff39 	bl	87801d9c <gpio_pinread>
87801f2a:	2801      	cmp	r0, #1
87801f2c:	4603      	mov	r3, r0
87801f2e:	bf18      	it	ne
87801f30:	2000      	movne	r0, #0
87801f32:	d000      	beq.n	87801f36 <key_getvalue+0x26>
87801f34:	bd38      	pop	{r3, r4, r5, pc}
87801f36:	4a10      	ldr	r2, [pc, #64]	; (87801f78 <key_getvalue+0x68>)
87801f38:	2000      	movs	r0, #0
87801f3a:	447a      	add	r2, pc
87801f3c:	7013      	strb	r3, [r2, #0]
87801f3e:	bd38      	pop	{r3, r4, r5, pc}
87801f40:	f44f 4040 	mov.w	r0, #49152	; 0xc000
87801f44:	2112      	movs	r1, #18
87801f46:	f2c0 2009 	movt	r0, #521	; 0x209
87801f4a:	f7ff ff27 	bl	87801d9c <gpio_pinread>
87801f4e:	4605      	mov	r5, r0
87801f50:	2800      	cmp	r0, #0
87801f52:	d1e3      	bne.n	87801f1c <key_getvalue+0xc>
87801f54:	200a      	movs	r0, #10
87801f56:	f7ff fedb 	bl	87801d10 <delay>
87801f5a:	2112      	movs	r1, #18
87801f5c:	f44f 4040 	mov.w	r0, #49152	; 0xc000
87801f60:	f2c0 2009 	movt	r0, #521	; 0x209
87801f64:	7025      	strb	r5, [r4, #0]
87801f66:	f7ff ff19 	bl	87801d9c <gpio_pinread>
87801f6a:	fab0 f080 	clz	r0, r0
87801f6e:	0940      	lsrs	r0, r0, #5
87801f70:	bd38      	pop	{r3, r4, r5, pc}
87801f72:	bf00      	nop
87801f74:	0000697c 	andeq	r6, r0, ip, ror r9
87801f78:	00006956 	andeq	r6, r0, r6, asr r9

87801f7c <gpio1_io18_irqhandler>:
87801f7c:	b508      	push	{r3, lr}
87801f7e:	200a      	movs	r0, #10
87801f80:	f7ff fec6 	bl	87801d10 <delay>
87801f84:	f44f 4040 	mov.w	r0, #49152	; 0xc000
87801f88:	2112      	movs	r1, #18
87801f8a:	f2c0 2009 	movt	r0, #521	; 0x209
87801f8e:	f7ff ff05 	bl	87801d9c <gpio_pinread>
87801f92:	b940      	cbnz	r0, 87801fa6 <gpio1_io18_irqhandler+0x2a>
87801f94:	4b08      	ldr	r3, [pc, #32]	; (87801fb8 <gpio1_io18_irqhandler+0x3c>)
87801f96:	447b      	add	r3, pc
87801f98:	7818      	ldrb	r0, [r3, #0]
87801f9a:	fab0 f080 	clz	r0, r0
87801f9e:	0940      	lsrs	r0, r0, #5
87801fa0:	7018      	strb	r0, [r3, #0]
87801fa2:	f7ff fee5 	bl	87801d70 <beep_switch>
87801fa6:	f44f 4040 	mov.w	r0, #49152	; 0xc000
87801faa:	2112      	movs	r1, #18
87801fac:	f2c0 2009 	movt	r0, #521	; 0x209
87801fb0:	e8bd 4008 	ldmia.w	sp!, {r3, lr}
87801fb4:	f7ff bf88 	b.w	87801ec8 <gpio_clearintflags>
87801fb8:	000070fe 	strdeq	r7, [r0], -lr

87801fbc <exit_init>:
87801fbc:	b530      	push	{r4, r5, lr}
87801fbe:	228c      	movs	r2, #140	; 0x8c
87801fc0:	f44f 7346 	mov.w	r3, #792	; 0x318
87801fc4:	f2c0 220e 	movt	r2, #526	; 0x20e
87801fc8:	f2c0 230e 	movt	r3, #526	; 0x20e
87801fcc:	f44f 4440 	mov.w	r4, #49152	; 0xc000
87801fd0:	f2c0 2409 	movt	r4, #521	; 0x209
87801fd4:	b085      	sub	sp, #20
87801fd6:	2005      	movs	r0, #5
87801fd8:	f24f 0180 	movw	r1, #61568	; 0xf080
87801fdc:	6010      	str	r0, [r2, #0]
87801fde:	4620      	mov	r0, r4
87801fe0:	6019      	str	r1, [r3, #0]
87801fe2:	aa01      	add	r2, sp, #4
87801fe4:	2112      	movs	r1, #18
87801fe6:	2500      	movs	r5, #0
87801fe8:	2304      	movs	r3, #4
87801fea:	9501      	str	r5, [sp, #4]
87801fec:	9303      	str	r3, [sp, #12]
87801fee:	2301      	movs	r3, #1
87801ff0:	f88d 3008 	strb.w	r3, [sp, #8]
87801ff4:	f7ff ff34 	bl	87801e60 <gpio_init>
87801ff8:	ee9f 3f10 	mrc	15, 4, r3, cr15, cr0, {0}
87801ffc:	0c1b      	lsrs	r3, r3, #16
87801ffe:	4908      	ldr	r1, [pc, #32]	; (87802020 <exit_init+0x64>)
87802000:	f241 100c 	movw	r0, #4364	; 0x110c
87802004:	462a      	mov	r2, r5
87802006:	041b      	lsls	r3, r3, #16
87802008:	2508      	movs	r5, #8
8780200a:	4479      	add	r1, pc
8780200c:	501d      	str	r5, [r3, r0]
8780200e:	2063      	movs	r0, #99	; 0x63
87802010:	f000 f860 	bl	878020d4 <system_register_irqhandler>
87802014:	4620      	mov	r0, r4
87802016:	2112      	movs	r1, #18
87802018:	f7ff ff46 	bl	87801ea8 <gpio_enableint>
8780201c:	b005      	add	sp, #20
8780201e:	bd30      	pop	{r4, r5, pc}
87802020:	ffffff6f 			; <UNDEFINED> instruction: 0xffffff6f

87802024 <default_irqhandler>:
87802024:	e7fe      	b.n	87802024 <default_irqhandler>
87802026:	bf00      	nop

87802028 <int_init>:
87802028:	b4f0      	push	{r4, r5, r6, r7}
8780202a:	ee9f 4f10 	mrc	15, 4, r4, cr15, cr0, {0}
8780202e:	0c24      	lsrs	r4, r4, #16
87802030:	f241 0204 	movw	r2, #4100	; 0x1004
87802034:	2300      	movs	r3, #0
87802036:	f04f 30ff 	mov.w	r0, #4294967295	; 0xffffffff
8780203a:	0424      	lsls	r4, r4, #16
8780203c:	58a1      	ldr	r1, [r4, r2]
8780203e:	f001 011f 	and.w	r1, r1, #31
87802042:	3101      	adds	r1, #1
87802044:	f503 628c 	add.w	r2, r3, #1120	; 0x460
87802048:	3301      	adds	r3, #1
8780204a:	4299      	cmp	r1, r3
8780204c:	f844 0022 	str.w	r0, [r4, r2, lsl #2]
87802050:	d1f8      	bne.n	87802044 <int_init+0x1c>
87802052:	f242 0504 	movw	r5, #8196	; 0x2004
87802056:	4b11      	ldr	r3, [pc, #68]	; (8780209c <int_init+0x74>)
87802058:	4811      	ldr	r0, [pc, #68]	; (878020a0 <int_init+0x78>)
8780205a:	27f8      	movs	r7, #248	; 0xf8
8780205c:	5167      	str	r7, [r4, r5]
8780205e:	f242 0508 	movw	r5, #8200	; 0x2008
87802062:	447b      	add	r3, pc
87802064:	f504 5680 	add.w	r6, r4, #4096	; 0x1000
87802068:	2702      	movs	r7, #2
8780206a:	4478      	add	r0, pc
8780206c:	5167      	str	r7, [r4, r5]
8780206e:	f504 5400 	add.w	r4, r4, #8192	; 0x2000
87802072:	2501      	movs	r5, #1
87802074:	2200      	movs	r2, #0
87802076:	f203 5104 	addw	r1, r3, #1284	; 0x504
8780207a:	6035      	str	r5, [r6, #0]
8780207c:	f843 2b04 	str.w	r2, [r3], #4
87802080:	6025      	str	r5, [r4, #0]
87802082:	e9c3 0200 	strd	r0, r2, [r3]
87802086:	3308      	adds	r3, #8
87802088:	4299      	cmp	r1, r3
8780208a:	d1fa      	bne.n	87802082 <int_init+0x5a>
8780208c:	2300      	movs	r3, #0
8780208e:	f2c8 7380 	movt	r3, #34688	; 0x8780
87802092:	ee0c 3f10 	mcr	15, 0, r3, cr12, cr0, {0}
87802096:	bcf0      	pop	{r4, r5, r6, r7}
87802098:	4770      	bx	lr
8780209a:	bf00      	nop
8780209c:	00007036 	andeq	r7, r0, r6, lsr r0
878020a0:	ffffffb7 			; <UNDEFINED> instruction: 0xffffffb7

878020a4 <system_irqtable_init>:
878020a4:	4b09      	ldr	r3, [pc, #36]	; (878020cc <system_irqtable_init+0x28>)
878020a6:	480a      	ldr	r0, [pc, #40]	; (878020d0 <system_irqtable_init+0x2c>)
878020a8:	b410      	push	{r4}
878020aa:	447b      	add	r3, pc
878020ac:	2400      	movs	r4, #0
878020ae:	4478      	add	r0, pc
878020b0:	4621      	mov	r1, r4
878020b2:	f203 5204 	addw	r2, r3, #1284	; 0x504
878020b6:	f843 4b04 	str.w	r4, [r3], #4
878020ba:	e9c3 0100 	strd	r0, r1, [r3]
878020be:	3308      	adds	r3, #8
878020c0:	4293      	cmp	r3, r2
878020c2:	d1fa      	bne.n	878020ba <system_irqtable_init+0x16>
878020c4:	f85d 4b04 	ldr.w	r4, [sp], #4
878020c8:	4770      	bx	lr
878020ca:	bf00      	nop
878020cc:	00006fee 	andeq	r6, r0, lr, ror #31
878020d0:	ffffff73 			; <UNDEFINED> instruction: 0xffffff73

878020d4 <system_register_irqhandler>:
878020d4:	4b03      	ldr	r3, [pc, #12]	; (878020e4 <system_register_irqhandler+0x10>)
878020d6:	447b      	add	r3, pc
878020d8:	eb03 00c0 	add.w	r0, r3, r0, lsl #3
878020dc:	e9c0 1201 	strd	r1, r2, [r0, #4]
878020e0:	4770      	bx	lr
878020e2:	bf00      	nop
878020e4:	00006fc2 	andeq	r6, r0, r2, asr #31

878020e8 <system_irqhandler>:
878020e8:	b538      	push	{r3, r4, r5, lr}
878020ea:	f3c0 0309 	ubfx	r3, r0, #0, #10
878020ee:	2b9f      	cmp	r3, #159	; 0x9f
878020f0:	d80d      	bhi.n	8780210e <system_irqhandler+0x26>
878020f2:	4c07      	ldr	r4, [pc, #28]	; (87802110 <system_irqhandler+0x28>)
878020f4:	4618      	mov	r0, r3
878020f6:	447c      	add	r4, pc
878020f8:	eb04 03c3 	add.w	r3, r4, r3, lsl #3
878020fc:	6822      	ldr	r2, [r4, #0]
878020fe:	e9d3 5101 	ldrd	r5, r1, [r3, #4]
87802102:	3201      	adds	r2, #1
87802104:	6022      	str	r2, [r4, #0]
87802106:	47a8      	blx	r5
87802108:	6823      	ldr	r3, [r4, #0]
8780210a:	3b01      	subs	r3, #1
8780210c:	6023      	str	r3, [r4, #0]
8780210e:	bd38      	pop	{r3, r4, r5, pc}
87802110:	00006fa2 	andeq	r6, r0, r2, lsr #31

87802114 <epit1_irqhandler>:
87802114:	b508      	push	{r3, lr}
87802116:	2200      	movs	r2, #0
87802118:	4b0b      	ldr	r3, [pc, #44]	; (87802148 <epit1_irqhandler+0x34>)
8780211a:	f2c0 220d 	movt	r2, #525	; 0x20d
8780211e:	447b      	add	r3, pc
87802120:	7819      	ldrb	r1, [r3, #0]
87802122:	fab1 f181 	clz	r1, r1
87802126:	0949      	lsrs	r1, r1, #5
87802128:	7019      	strb	r1, [r3, #0]
8780212a:	6853      	ldr	r3, [r2, #4]
8780212c:	07db      	lsls	r3, r3, #31
8780212e:	d502      	bpl.n	87802136 <epit1_irqhandler+0x22>
87802130:	2000      	movs	r0, #0
87802132:	f7ff fd7b 	bl	87801c2c <led_switch>
87802136:	2300      	movs	r3, #0
87802138:	f2c0 230d 	movt	r3, #525	; 0x20d
8780213c:	685a      	ldr	r2, [r3, #4]
8780213e:	f042 0201 	orr.w	r2, r2, #1
87802142:	605a      	str	r2, [r3, #4]
87802144:	bd08      	pop	{r3, pc}
87802146:	bf00      	nop
87802148:	0000747e 	andeq	r7, r0, lr, ror r4

8780214c <epit1_init>:
8780214c:	b538      	push	{r3, r4, r5, lr}
8780214e:	f640 73ff 	movw	r3, #4095	; 0xfff
87802152:	4298      	cmp	r0, r3
87802154:	f04f 0400 	mov.w	r4, #0
87802158:	f2c0 240d 	movt	r4, #525	; 0x20d
8780215c:	f04f 0200 	mov.w	r2, #0
87802160:	bf28      	it	cs
87802162:	4618      	movcs	r0, r3
87802164:	230e      	movs	r3, #14
87802166:	f2c0 1300 	movt	r3, #256	; 0x100
8780216a:	6022      	str	r2, [r4, #0]
8780216c:	ea43 1300 	orr.w	r3, r3, r0, lsl #4
87802170:	6023      	str	r3, [r4, #0]
87802172:	60a1      	str	r1, [r4, #8]
87802174:	60e2      	str	r2, [r4, #12]
87802176:	ee9f 3f10 	mrc	15, 4, r3, cr15, cr0, {0}
8780217a:	0c1b      	lsrs	r3, r3, #16
8780217c:	4907      	ldr	r1, [pc, #28]	; (8780219c <epit1_init+0x50>)
8780217e:	f241 1008 	movw	r0, #4360	; 0x1108
87802182:	f04f 7580 	mov.w	r5, #16777216	; 0x1000000
87802186:	041b      	lsls	r3, r3, #16
87802188:	4479      	add	r1, pc
8780218a:	501d      	str	r5, [r3, r0]
8780218c:	2058      	movs	r0, #88	; 0x58
8780218e:	f7ff ffa1 	bl	878020d4 <system_register_irqhandler>
87802192:	6823      	ldr	r3, [r4, #0]
87802194:	f043 0301 	orr.w	r3, r3, #1
87802198:	6023      	str	r3, [r4, #0]
8780219a:	bd38      	pop	{r3, r4, r5, pc}
8780219c:	ffffff89 			; <UNDEFINED> instruction: 0xffffff89

878021a0 <filtertimer_irqhandler>:
878021a0:	b508      	push	{r3, lr}
878021a2:	2300      	movs	r3, #0
878021a4:	f2c0 230d 	movt	r3, #525	; 0x20d
878021a8:	685a      	ldr	r2, [r3, #4]
878021aa:	07d2      	lsls	r2, r2, #31
878021ac:	d407      	bmi.n	878021be <filtertimer_irqhandler+0x1e>
878021ae:	2300      	movs	r3, #0
878021b0:	f2c0 230d 	movt	r3, #525	; 0x20d
878021b4:	685a      	ldr	r2, [r3, #4]
878021b6:	f042 0201 	orr.w	r2, r2, #1
878021ba:	605a      	str	r2, [r3, #4]
878021bc:	bd08      	pop	{r3, pc}
878021be:	681a      	ldr	r2, [r3, #0]
878021c0:	f44f 4040 	mov.w	r0, #49152	; 0xc000
878021c4:	2112      	movs	r1, #18
878021c6:	f2c0 2009 	movt	r0, #521	; 0x209
878021ca:	f022 0201 	bic.w	r2, r2, #1
878021ce:	601a      	str	r2, [r3, #0]
878021d0:	f7ff fde4 	bl	87801d9c <gpio_pinread>
878021d4:	2800      	cmp	r0, #0
878021d6:	d1ea      	bne.n	878021ae <filtertimer_irqhandler+0xe>
878021d8:	4b04      	ldr	r3, [pc, #16]	; (878021ec <filtertimer_irqhandler+0x4c>)
878021da:	447b      	add	r3, pc
878021dc:	7818      	ldrb	r0, [r3, #0]
878021de:	fab0 f080 	clz	r0, r0
878021e2:	0940      	lsrs	r0, r0, #5
878021e4:	7018      	strb	r0, [r3, #0]
878021e6:	f7ff fdc3 	bl	87801d70 <beep_switch>
878021ea:	e7e0      	b.n	878021ae <filtertimer_irqhandler+0xe>
878021ec:	000073c3 	andeq	r7, r0, r3, asr #7

878021f0 <gpio1_16_31_irqhandler>:
878021f0:	2300      	movs	r3, #0
878021f2:	f2c0 230d 	movt	r3, #525	; 0x20d
878021f6:	b410      	push	{r4}
878021f8:	f44f 5491 	mov.w	r4, #4640	; 0x1220
878021fc:	681a      	ldr	r2, [r3, #0]
878021fe:	f2c0 040a 	movt	r4, #10
87802202:	f44f 4040 	mov.w	r0, #49152	; 0xc000
87802206:	2112      	movs	r1, #18
87802208:	f022 0201 	bic.w	r2, r2, #1
8780220c:	601a      	str	r2, [r3, #0]
8780220e:	609c      	str	r4, [r3, #8]
87802210:	f2c0 2009 	movt	r0, #521	; 0x209
87802214:	681a      	ldr	r2, [r3, #0]
87802216:	f85d 4b04 	ldr.w	r4, [sp], #4
8780221a:	f042 0201 	orr.w	r2, r2, #1
8780221e:	601a      	str	r2, [r3, #0]
87802220:	f7ff be52 	b.w	87801ec8 <gpio_clearintflags>

87802224 <filtertimer_init>:
87802224:	2300      	movs	r3, #0
87802226:	f2c0 230d 	movt	r3, #525	; 0x20d
8780222a:	b430      	push	{r4, r5}
8780222c:	2200      	movs	r2, #0
8780222e:	210e      	movs	r1, #14
87802230:	601a      	str	r2, [r3, #0]
87802232:	f2c0 1100 	movt	r1, #256	; 0x100
87802236:	6019      	str	r1, [r3, #0]
87802238:	6098      	str	r0, [r3, #8]
8780223a:	60da      	str	r2, [r3, #12]
8780223c:	ee9f 3f10 	mrc	15, 4, r3, cr15, cr0, {0}
87802240:	0c1b      	lsrs	r3, r3, #16
87802242:	4906      	ldr	r1, [pc, #24]	; (8780225c <filtertimer_init+0x38>)
87802244:	f241 1408 	movw	r4, #4360	; 0x1108
87802248:	f04f 7580 	mov.w	r5, #16777216	; 0x1000000
8780224c:	041b      	lsls	r3, r3, #16
8780224e:	4479      	add	r1, pc
87802250:	2058      	movs	r0, #88	; 0x58
87802252:	511d      	str	r5, [r3, r4]
87802254:	bc30      	pop	{r4, r5}
87802256:	f7ff bf3d 	b.w	878020d4 <system_register_irqhandler>
8780225a:	bf00      	nop
8780225c:	ffffff4f 			; <UNDEFINED> instruction: 0xffffff4f

87802260 <filterkey_init>:
87802260:	b530      	push	{r4, r5, lr}
87802262:	228c      	movs	r2, #140	; 0x8c
87802264:	f44f 7346 	mov.w	r3, #792	; 0x318
87802268:	f2c0 220e 	movt	r2, #526	; 0x20e
8780226c:	f2c0 230e 	movt	r3, #526	; 0x20e
87802270:	f44f 4440 	mov.w	r4, #49152	; 0xc000
87802274:	f2c0 2409 	movt	r4, #521	; 0x209
87802278:	b085      	sub	sp, #20
8780227a:	2005      	movs	r0, #5
8780227c:	f24f 0180 	movw	r1, #61568	; 0xf080
87802280:	6010      	str	r0, [r2, #0]
87802282:	4620      	mov	r0, r4
87802284:	6019      	str	r1, [r3, #0]
87802286:	aa01      	add	r2, sp, #4
87802288:	2112      	movs	r1, #18
8780228a:	2500      	movs	r5, #0
8780228c:	2304      	movs	r3, #4
8780228e:	9501      	str	r5, [sp, #4]
87802290:	9303      	str	r3, [sp, #12]
87802292:	2301      	movs	r3, #1
87802294:	f88d 3008 	strb.w	r3, [sp, #8]
87802298:	f7ff fde2 	bl	87801e60 <gpio_init>
8780229c:	ee9f 3f10 	mrc	15, 4, r3, cr15, cr0, {0}
878022a0:	0c1b      	lsrs	r3, r3, #16
878022a2:	490b      	ldr	r1, [pc, #44]	; (878022d0 <filterkey_init+0x70>)
878022a4:	f241 100c 	movw	r0, #4364	; 0x110c
878022a8:	462a      	mov	r2, r5
878022aa:	041b      	lsls	r3, r3, #16
878022ac:	2508      	movs	r5, #8
878022ae:	4479      	add	r1, pc
878022b0:	501d      	str	r5, [r3, r0]
878022b2:	2063      	movs	r0, #99	; 0x63
878022b4:	f7ff ff0e 	bl	878020d4 <system_register_irqhandler>
878022b8:	4620      	mov	r0, r4
878022ba:	2112      	movs	r1, #18
878022bc:	f7ff fdf4 	bl	87801ea8 <gpio_enableint>
878022c0:	f44f 5091 	mov.w	r0, #4640	; 0x1220
878022c4:	f2c0 000a 	movt	r0, #10
878022c8:	f7ff ffac 	bl	87802224 <filtertimer_init>
878022cc:	b005      	add	sp, #20
878022ce:	bd30      	pop	{r4, r5, pc}
878022d0:	ffffff3f 			; <UNDEFINED> instruction: 0xffffff3f

878022d4 <filtertimer_stop>:
878022d4:	2300      	movs	r3, #0
878022d6:	f2c0 230d 	movt	r3, #525	; 0x20d
878022da:	681a      	ldr	r2, [r3, #0]
878022dc:	f022 0201 	bic.w	r2, r2, #1
878022e0:	601a      	str	r2, [r3, #0]
878022e2:	4770      	bx	lr

878022e4 <filtertimer_restart>:
878022e4:	2300      	movs	r3, #0
878022e6:	f2c0 230d 	movt	r3, #525	; 0x20d
878022ea:	681a      	ldr	r2, [r3, #0]
878022ec:	f022 0201 	bic.w	r2, r2, #1
878022f0:	601a      	str	r2, [r3, #0]
878022f2:	6098      	str	r0, [r3, #8]
878022f4:	681a      	ldr	r2, [r3, #0]
878022f6:	f042 0201 	orr.w	r2, r2, #1
878022fa:	601a      	str	r2, [r3, #0]
878022fc:	4770      	bx	lr
878022fe:	bf00      	nop

87802300 <uart_init>:
87802300:	b470      	push	{r4, r5, r6}
87802302:	f240 6024 	movw	r0, #1572	; 0x624
87802306:	2684      	movs	r6, #132	; 0x84
87802308:	f2c0 200e 	movt	r0, #526	; 0x20e
8780230c:	2488      	movs	r4, #136	; 0x88
8780230e:	f2c0 260e 	movt	r6, #526	; 0x20e
87802312:	f2c0 240e 	movt	r4, #526	; 0x20e
87802316:	f44f 7344 	mov.w	r3, #784	; 0x310
8780231a:	f44f 7145 	mov.w	r1, #788	; 0x314
8780231e:	f2c0 230e 	movt	r3, #526	; 0x20e
87802322:	f2c0 210e 	movt	r1, #526	; 0x20e
87802326:	2200      	movs	r2, #0
87802328:	f2c0 2202 	movt	r2, #514	; 0x202
8780232c:	2500      	movs	r5, #0
8780232e:	6035      	str	r5, [r6, #0]
87802330:	6025      	str	r5, [r4, #0]
87802332:	2403      	movs	r4, #3
87802334:	6004      	str	r4, [r0, #0]
87802336:	f241 00b0 	movw	r0, #4272	; 0x10b0
8780233a:	6018      	str	r0, [r3, #0]
8780233c:	4613      	mov	r3, r2
8780233e:	6008      	str	r0, [r1, #0]
87802340:	f8d2 1080 	ldr.w	r1, [r2, #128]	; 0x80
87802344:	f021 0101 	bic.w	r1, r1, #1
87802348:	f8c2 1080 	str.w	r1, [r2, #128]	; 0x80
8780234c:	f8d2 1084 	ldr.w	r1, [r2, #132]	; 0x84
87802350:	f021 0101 	bic.w	r1, r1, #1
87802354:	f8c2 1084 	str.w	r1, [r2, #132]	; 0x84
87802358:	f8d3 2084 	ldr.w	r2, [r3, #132]	; 0x84
8780235c:	07d2      	lsls	r2, r2, #31
8780235e:	d5fb      	bpl.n	87802358 <uart_init+0x58>
87802360:	2200      	movs	r2, #0
87802362:	f8c3 2080 	str.w	r2, [r3, #128]	; 0x80
87802366:	f8d3 2084 	ldr.w	r2, [r3, #132]	; 0x84
8780236a:	f44f 7420 	mov.w	r4, #640	; 0x280
8780236e:	2047      	movs	r0, #71	; 0x47
87802370:	f640 4134 	movw	r1, #3124	; 0xc34
87802374:	f442 4280 	orr.w	r2, r2, #16384	; 0x4000
87802378:	f042 0226 	orr.w	r2, r2, #38	; 0x26
8780237c:	f8c3 2084 	str.w	r2, [r3, #132]	; 0x84
87802380:	f8d3 2088 	ldr.w	r2, [r3, #136]	; 0x88
87802384:	f042 0204 	orr.w	r2, r2, #4
87802388:	f8c3 2088 	str.w	r2, [r3, #136]	; 0x88
8780238c:	f8d3 2080 	ldr.w	r2, [r3, #128]	; 0x80
87802390:	f422 4280 	bic.w	r2, r2, #16384	; 0x4000
87802394:	f8c3 2080 	str.w	r2, [r3, #128]	; 0x80
87802398:	f8c3 4090 	str.w	r4, [r3, #144]	; 0x90
8780239c:	f8c3 00a4 	str.w	r0, [r3, #164]	; 0xa4
878023a0:	f8c3 10a8 	str.w	r1, [r3, #168]	; 0xa8
878023a4:	f8d3 2080 	ldr.w	r2, [r3, #128]	; 0x80
878023a8:	bc70      	pop	{r4, r5, r6}
878023aa:	f042 0201 	orr.w	r2, r2, #1
878023ae:	f8c3 2080 	str.w	r2, [r3, #128]	; 0x80
878023b2:	4770      	bx	lr

878023b4 <uart_io_init>:
878023b4:	b430      	push	{r4, r5}
878023b6:	2288      	movs	r2, #136	; 0x88
878023b8:	2584      	movs	r5, #132	; 0x84
878023ba:	f2c0 220e 	movt	r2, #526	; 0x20e
878023be:	f2c0 250e 	movt	r5, #526	; 0x20e
878023c2:	f240 6024 	movw	r0, #1572	; 0x624
878023c6:	f44f 7144 	mov.w	r1, #784	; 0x310
878023ca:	f2c0 200e 	movt	r0, #526	; 0x20e
878023ce:	f2c0 210e 	movt	r1, #526	; 0x20e
878023d2:	f44f 7345 	mov.w	r3, #788	; 0x314
878023d6:	f2c0 230e 	movt	r3, #526	; 0x20e
878023da:	2400      	movs	r4, #0
878023dc:	602c      	str	r4, [r5, #0]
878023de:	6014      	str	r4, [r2, #0]
878023e0:	2403      	movs	r4, #3
878023e2:	f241 02b0 	movw	r2, #4272	; 0x10b0
878023e6:	6004      	str	r4, [r0, #0]
878023e8:	600a      	str	r2, [r1, #0]
878023ea:	bc30      	pop	{r4, r5}
878023ec:	601a      	str	r2, [r3, #0]
878023ee:	4770      	bx	lr

878023f0 <uart_setbaudrate>:
878023f0:	e92d 4ff0 	stmdb	sp!, {r4, r5, r6, r7, r8, r9, sl, fp, lr}
878023f4:	010e      	lsls	r6, r1, #4
878023f6:	b089      	sub	sp, #36	; 0x24
878023f8:	460f      	mov	r7, r1
878023fa:	4681      	mov	r9, r0
878023fc:	4690      	mov	r8, r2
878023fe:	bf08      	it	eq
87802400:	4693      	moveq	fp, r2
87802402:	d013      	beq.n	8780242c <uart_setbaudrate+0x3c>
87802404:	4634      	mov	r4, r6
87802406:	4610      	mov	r0, r2
87802408:	e000      	b.n	8780240c <uart_setbaudrate+0x1c>
8780240a:	460c      	mov	r4, r1
8780240c:	4621      	mov	r1, r4
8780240e:	f001 fbbd 	bl	87803b8c <__aeabi_uidivmod>
87802412:	4620      	mov	r0, r4
87802414:	2900      	cmp	r1, #0
87802416:	d1f8      	bne.n	8780240a <uart_setbaudrate+0x1a>
87802418:	4621      	mov	r1, r4
8780241a:	4640      	mov	r0, r8
8780241c:	f001 fa88 	bl	87803930 <__udivsi3>
87802420:	4621      	mov	r1, r4
87802422:	4683      	mov	fp, r0
87802424:	4630      	mov	r0, r6
87802426:	f001 fa83 	bl	87803930 <__udivsi3>
8780242a:	4606      	mov	r6, r0
8780242c:	f64f 73f9 	movw	r3, #65529	; 0xfff9
87802430:	f2c0 0306 	movt	r3, #6
87802434:	459b      	cmp	fp, r3
87802436:	bf98      	it	ls
87802438:	f5b6 3f80 	cmpls.w	r6, #65536	; 0x10000
8780243c:	f10b 31ff 	add.w	r1, fp, #4294967295	; 0xffffffff
87802440:	bf2c      	ite	cs
87802442:	2301      	movcs	r3, #1
87802444:	2300      	movcc	r3, #0
87802446:	d27b      	bcs.n	87802540 <uart_setbaudrate+0x150>
87802448:	f248 0201 	movw	r2, #32769	; 0x8001
8780244c:	f2c8 0200 	movt	r2, #32768	; 0x8000
87802450:	9303      	str	r3, [sp, #12]
87802452:	ea4f 140b 	mov.w	r4, fp, lsl #4
87802456:	fba1 2302 	umull	r2, r3, r1, r2
8780245a:	4620      	mov	r0, r4
8780245c:	46b2      	mov	sl, r6
8780245e:	0bd9      	lsrs	r1, r3, #15
87802460:	1e4b      	subs	r3, r1, #1
87802462:	1c4a      	adds	r2, r1, #1
87802464:	9206      	str	r2, [sp, #24]
87802466:	2b05      	cmp	r3, #5
87802468:	f200 80ae 	bhi.w	878025c8 <uart_setbaudrate+0x1d8>
8780246c:	495c      	ldr	r1, [pc, #368]	; (878025e0 <uart_setbaudrate+0x1f0>)
8780246e:	4479      	add	r1, pc
87802470:	f851 3023 	ldr.w	r3, [r1, r3, lsl #2]
87802474:	9307      	str	r3, [sp, #28]
87802476:	4645      	mov	r5, r8
87802478:	2300      	movs	r3, #0
8780247a:	b1cc      	cbz	r4, 878024b0 <uart_setbaudrate+0xc0>
8780247c:	9404      	str	r4, [sp, #16]
8780247e:	4640      	mov	r0, r8
87802480:	e000      	b.n	87802484 <uart_setbaudrate+0x94>
87802482:	4614      	mov	r4, r2
87802484:	2300      	movs	r3, #0
87802486:	4622      	mov	r2, r4
87802488:	4619      	mov	r1, r3
8780248a:	f001 fbdd 	bl	87803c48 <__aeabi_uldivmod>
8780248e:	4620      	mov	r0, r4
87802490:	2300      	movs	r3, #0
87802492:	2a00      	cmp	r2, #0
87802494:	d1f5      	bne.n	87802482 <uart_setbaudrate+0x92>
87802496:	9804      	ldr	r0, [sp, #16]
87802498:	4621      	mov	r1, r4
8780249a:	9305      	str	r3, [sp, #20]
8780249c:	f001 fa48 	bl	87803930 <__udivsi3>
878024a0:	4621      	mov	r1, r4
878024a2:	9004      	str	r0, [sp, #16]
878024a4:	4640      	mov	r0, r8
878024a6:	f001 fa43 	bl	87803930 <__udivsi3>
878024aa:	4605      	mov	r5, r0
878024ac:	e9dd 0304 	ldrd	r0, r3, [sp, #16]
878024b0:	9903      	ldr	r1, [sp, #12]
878024b2:	4602      	mov	r2, r0
878024b4:	fb0a f303 	mul.w	r3, sl, r3
878024b8:	fb05 3401 	mla	r4, r5, r1, r3
878024bc:	2300      	movs	r3, #0
878024be:	fbaa 0105 	umull	r0, r1, sl, r5
878024c2:	4421      	add	r1, r4
878024c4:	f001 fbc0 	bl	87803c48 <__aeabi_uldivmod>
878024c8:	2300      	movs	r3, #0
878024ca:	4299      	cmp	r1, r3
878024cc:	bf08      	it	eq
878024ce:	42b8      	cmpeq	r0, r7
878024d0:	d330      	bcc.n	87802534 <uart_setbaudrate+0x144>
878024d2:	1bc4      	subs	r4, r0, r7
878024d4:	9400      	str	r4, [sp, #0]
878024d6:	eb61 0303 	sbc.w	r3, r1, r3
878024da:	9301      	str	r3, [sp, #4]
878024dc:	f248 521f 	movw	r2, #34079	; 0x851f
878024e0:	f2c5 12eb 	movt	r2, #20971	; 0x51eb
878024e4:	e9dd 0100 	ldrd	r0, r1, [sp]
878024e8:	fba7 2302 	umull	r2, r3, r7, r2
878024ec:	095a      	lsrs	r2, r3, #5
878024ee:	2300      	movs	r3, #0
878024f0:	4299      	cmp	r1, r3
878024f2:	eb02 0242 	add.w	r2, r2, r2, lsl #1
878024f6:	bf08      	it	eq
878024f8:	4290      	cmpeq	r0, r2
878024fa:	d218      	bcs.n	8780252e <uart_setbaudrate+0x13e>
878024fc:	f8d9 3090 	ldr.w	r3, [r9, #144]	; 0x90
87802500:	3e01      	subs	r6, #1
87802502:	9a07      	ldr	r2, [sp, #28]
87802504:	4658      	mov	r0, fp
87802506:	f423 7360 	bic.w	r3, r3, #896	; 0x380
8780250a:	f8c9 3090 	str.w	r3, [r9, #144]	; 0x90
8780250e:	f8d9 3090 	ldr.w	r3, [r9, #144]	; 0x90
87802512:	b2b6      	uxth	r6, r6
87802514:	9906      	ldr	r1, [sp, #24]
87802516:	ea43 13c2 	orr.w	r3, r3, r2, lsl #7
8780251a:	f8c9 3090 	str.w	r3, [r9, #144]	; 0x90
8780251e:	f8c9 60a4 	str.w	r6, [r9, #164]	; 0xa4
87802522:	f001 fa05 	bl	87803930 <__udivsi3>
87802526:	3801      	subs	r0, #1
87802528:	b280      	uxth	r0, r0
8780252a:	f8c9 00a8 	str.w	r0, [r9, #168]	; 0xa8
8780252e:	b009      	add	sp, #36	; 0x24
87802530:	e8bd 8ff0 	ldmia.w	sp!, {r4, r5, r6, r7, r8, r9, sl, fp, pc}
87802534:	1a3c      	subs	r4, r7, r0
87802536:	9400      	str	r4, [sp, #0]
87802538:	eb63 0301 	sbc.w	r3, r3, r1
8780253c:	9301      	str	r3, [sp, #4]
8780253e:	e7cd      	b.n	878024dc <uart_setbaudrate+0xec>
87802540:	f646 52b9 	movw	r2, #28089	; 0x6db9
87802544:	f2c2 4293 	movt	r2, #9363	; 0x2493
87802548:	1e74      	subs	r4, r6, #1
8780254a:	f248 0a01 	movw	sl, #32769	; 0x8001
8780254e:	f2c8 0a00 	movt	sl, #32768	; 0x8000
87802552:	4658      	mov	r0, fp
87802554:	fba1 2302 	umull	r2, r3, r1, r2
87802558:	fba4 450a 	umull	r4, r5, r4, sl
8780255c:	1ac9      	subs	r1, r1, r3
8780255e:	eb03 0351 	add.w	r3, r3, r1, lsr #1
87802562:	0c9b      	lsrs	r3, r3, #18
87802564:	0bec      	lsrs	r4, r5, #15
87802566:	3301      	adds	r3, #1
87802568:	3401      	adds	r4, #1
8780256a:	429c      	cmp	r4, r3
8780256c:	bf38      	it	cc
8780256e:	461c      	movcc	r4, r3
87802570:	4621      	mov	r1, r4
87802572:	f001 f9dd 	bl	87803930 <__udivsi3>
87802576:	4621      	mov	r1, r4
87802578:	4683      	mov	fp, r0
8780257a:	4630      	mov	r0, r6
8780257c:	f001 f9d8 	bl	87803930 <__udivsi3>
87802580:	4606      	mov	r6, r0
87802582:	f1bb 0f00 	cmp.w	fp, #0
87802586:	d10c      	bne.n	878025a2 <uart_setbaudrate+0x1b2>
87802588:	b308      	cbz	r0, 878025ce <uart_setbaudrate+0x1de>
8780258a:	4682      	mov	sl, r0
8780258c:	f8cd b00c 	str.w	fp, [sp, #12]
87802590:	2301      	movs	r3, #1
87802592:	2410      	movs	r4, #16
87802594:	9306      	str	r3, [sp, #24]
87802596:	469b      	mov	fp, r3
87802598:	9404      	str	r4, [sp, #16]
8780259a:	2305      	movs	r3, #5
8780259c:	4640      	mov	r0, r8
8780259e:	9307      	str	r3, [sp, #28]
878025a0:	e770      	b.n	87802484 <uart_setbaudrate+0x94>
878025a2:	f10b 32ff 	add.w	r2, fp, #4294967295	; 0xffffffff
878025a6:	ea4f 140b 	mov.w	r4, fp, lsl #4
878025aa:	fba2 230a 	umull	r2, r3, r2, sl
878025ae:	4620      	mov	r0, r4
878025b0:	0bd9      	lsrs	r1, r3, #15
878025b2:	1c4a      	adds	r2, r1, #1
878025b4:	1e4b      	subs	r3, r1, #1
878025b6:	9206      	str	r2, [sp, #24]
878025b8:	b976      	cbnz	r6, 878025d8 <uart_setbaudrate+0x1e8>
878025ba:	2b05      	cmp	r3, #5
878025bc:	f04f 0a01 	mov.w	sl, #1
878025c0:	9603      	str	r6, [sp, #12]
878025c2:	4656      	mov	r6, sl
878025c4:	f67f af52 	bls.w	8780246c <uart_setbaudrate+0x7c>
878025c8:	2305      	movs	r3, #5
878025ca:	9307      	str	r3, [sp, #28]
878025cc:	e753      	b.n	87802476 <uart_setbaudrate+0x86>
878025ce:	f04f 0a01 	mov.w	sl, #1
878025d2:	9003      	str	r0, [sp, #12]
878025d4:	4656      	mov	r6, sl
878025d6:	e7db      	b.n	87802590 <uart_setbaudrate+0x1a0>
878025d8:	2200      	movs	r2, #0
878025da:	46b2      	mov	sl, r6
878025dc:	9203      	str	r2, [sp, #12]
878025de:	e742      	b.n	87802466 <uart_setbaudrate+0x76>
878025e0:	00001b96 	muleq	r0, r6, fp

878025e4 <uart_disable>:
878025e4:	f8d0 3080 	ldr.w	r3, [r0, #128]	; 0x80
878025e8:	f023 0301 	bic.w	r3, r3, #1
878025ec:	f8c0 3080 	str.w	r3, [r0, #128]	; 0x80
878025f0:	4770      	bx	lr
878025f2:	bf00      	nop

878025f4 <uart_enable>:
878025f4:	f8d0 3080 	ldr.w	r3, [r0, #128]	; 0x80
878025f8:	f043 0301 	orr.w	r3, r3, #1
878025fc:	f8c0 3080 	str.w	r3, [r0, #128]	; 0x80
87802600:	4770      	bx	lr
87802602:	bf00      	nop

87802604 <uart_softreset>:
87802604:	f8d0 3084 	ldr.w	r3, [r0, #132]	; 0x84
87802608:	f023 0301 	bic.w	r3, r3, #1
8780260c:	f8c0 3084 	str.w	r3, [r0, #132]	; 0x84
87802610:	f8d0 3084 	ldr.w	r3, [r0, #132]	; 0x84
87802614:	07db      	lsls	r3, r3, #31
87802616:	d5fb      	bpl.n	87802610 <uart_softreset+0xc>
87802618:	4770      	bx	lr
8780261a:	bf00      	nop

8780261c <putc>:
8780261c:	2200      	movs	r2, #0
8780261e:	f2c0 2202 	movt	r2, #514	; 0x202
87802622:	f8d2 3098 	ldr.w	r3, [r2, #152]	; 0x98
87802626:	071b      	lsls	r3, r3, #28
87802628:	d5fb      	bpl.n	87802622 <putc+0x6>
8780262a:	6410      	str	r0, [r2, #64]	; 0x40
8780262c:	4770      	bx	lr
8780262e:	bf00      	nop

87802630 <puts>:
87802630:	7801      	ldrb	r1, [r0, #0]
87802632:	b159      	cbz	r1, 8780264c <puts+0x1c>
87802634:	2200      	movs	r2, #0
87802636:	f2c0 2202 	movt	r2, #514	; 0x202
8780263a:	f8d2 3098 	ldr.w	r3, [r2, #152]	; 0x98
8780263e:	071b      	lsls	r3, r3, #28
87802640:	d5fb      	bpl.n	8780263a <puts+0xa>
87802642:	6411      	str	r1, [r2, #64]	; 0x40
87802644:	f810 1f01 	ldrb.w	r1, [r0, #1]!
87802648:	2900      	cmp	r1, #0
8780264a:	d1f6      	bne.n	8780263a <puts+0xa>
8780264c:	4770      	bx	lr
8780264e:	bf00      	nop

87802650 <getc>:
87802650:	2200      	movs	r2, #0
87802652:	f2c0 2202 	movt	r2, #514	; 0x202
87802656:	f8d2 3098 	ldr.w	r3, [r2, #152]	; 0x98
8780265a:	07db      	lsls	r3, r3, #31
8780265c:	d5fb      	bpl.n	87802656 <getc+0x6>
8780265e:	6810      	ldr	r0, [r2, #0]
87802660:	b2c0      	uxtb	r0, r0
87802662:	4770      	bx	lr

87802664 <raise>:
87802664:	4770      	bx	lr
87802666:	bf00      	nop

87802668 <lcdgpio_init>:
87802668:	b570      	push	{r4, r5, r6, lr}
8780266a:	f44f 708e 	mov.w	r0, #284	; 0x11c
8780266e:	f44f 768c 	mov.w	r6, #280	; 0x118
87802672:	f2c0 200e 	movt	r0, #526	; 0x20e
87802676:	f2c0 260e 	movt	r6, #526	; 0x20e
8780267a:	f44f 7290 	mov.w	r2, #288	; 0x120
8780267e:	f44f 7192 	mov.w	r1, #292	; 0x124
87802682:	f2c0 220e 	movt	r2, #526	; 0x20e
87802686:	f2c0 210e 	movt	r1, #526	; 0x20e
8780268a:	2300      	movs	r3, #0
8780268c:	f44f 7594 	mov.w	r5, #296	; 0x128
87802690:	6033      	str	r3, [r6, #0]
87802692:	f2c0 250e 	movt	r5, #526	; 0x20e
87802696:	6003      	str	r3, [r0, #0]
87802698:	f44f 7496 	mov.w	r4, #300	; 0x12c
8780269c:	6013      	str	r3, [r2, #0]
8780269e:	f2c0 240e 	movt	r4, #526	; 0x20e
878026a2:	600b      	str	r3, [r1, #0]
878026a4:	f44f 7098 	mov.w	r0, #304	; 0x130
878026a8:	f44f 729a 	mov.w	r2, #308	; 0x134
878026ac:	f2c0 200e 	movt	r0, #526	; 0x20e
878026b0:	f2c0 220e 	movt	r2, #526	; 0x20e
878026b4:	f44f 719c 	mov.w	r1, #312	; 0x138
878026b8:	f2c0 210e 	movt	r1, #526	; 0x20e
878026bc:	602b      	str	r3, [r5, #0]
878026be:	f44f 759e 	mov.w	r5, #316	; 0x13c
878026c2:	6023      	str	r3, [r4, #0]
878026c4:	f2c0 250e 	movt	r5, #526	; 0x20e
878026c8:	6003      	str	r3, [r0, #0]
878026ca:	f44f 74a0 	mov.w	r4, #320	; 0x140
878026ce:	6013      	str	r3, [r2, #0]
878026d0:	f2c0 240e 	movt	r4, #526	; 0x20e
878026d4:	600b      	str	r3, [r1, #0]
878026d6:	f44f 70a2 	mov.w	r0, #324	; 0x144
878026da:	f44f 72a4 	mov.w	r2, #328	; 0x148
878026de:	f2c0 200e 	movt	r0, #526	; 0x20e
878026e2:	f2c0 220e 	movt	r2, #526	; 0x20e
878026e6:	f44f 71a6 	mov.w	r1, #332	; 0x14c
878026ea:	f2c0 210e 	movt	r1, #526	; 0x20e
878026ee:	602b      	str	r3, [r5, #0]
878026f0:	6023      	str	r3, [r4, #0]
878026f2:	f44f 75a8 	mov.w	r5, #336	; 0x150
878026f6:	6003      	str	r3, [r0, #0]
878026f8:	f2c0 250e 	movt	r5, #526	; 0x20e
878026fc:	6013      	str	r3, [r2, #0]
878026fe:	f44f 74aa 	mov.w	r4, #340	; 0x154
87802702:	600b      	str	r3, [r1, #0]
87802704:	f2c0 240e 	movt	r4, #526	; 0x20e
87802708:	f44f 70ac 	mov.w	r0, #344	; 0x158
8780270c:	f44f 72ae 	mov.w	r2, #348	; 0x15c
87802710:	f2c0 200e 	movt	r0, #526	; 0x20e
87802714:	f2c0 220e 	movt	r2, #526	; 0x20e
87802718:	f44f 71b0 	mov.w	r1, #352	; 0x160
8780271c:	f2c0 210e 	movt	r1, #526	; 0x20e
87802720:	602b      	str	r3, [r5, #0]
87802722:	f44f 75b2 	mov.w	r5, #356	; 0x164
87802726:	6023      	str	r3, [r4, #0]
87802728:	f2c0 250e 	movt	r5, #526	; 0x20e
8780272c:	6003      	str	r3, [r0, #0]
8780272e:	f44f 74b4 	mov.w	r4, #360	; 0x168
87802732:	6013      	str	r3, [r2, #0]
87802734:	f2c0 240e 	movt	r4, #526	; 0x20e
87802738:	600b      	str	r3, [r1, #0]
8780273a:	f44f 70b6 	mov.w	r0, #364	; 0x16c
8780273e:	f44f 72b8 	mov.w	r2, #368	; 0x170
87802742:	f2c0 200e 	movt	r0, #526	; 0x20e
87802746:	f2c0 220e 	movt	r2, #526	; 0x20e
8780274a:	f44f 71ba 	mov.w	r1, #372	; 0x174
8780274e:	f2c0 210e 	movt	r1, #526	; 0x20e
87802752:	602b      	str	r3, [r5, #0]
87802754:	6023      	str	r3, [r4, #0]
87802756:	f44f 7582 	mov.w	r5, #260	; 0x104
8780275a:	6003      	str	r3, [r0, #0]
8780275c:	f2c0 250e 	movt	r5, #526	; 0x20e
87802760:	6013      	str	r3, [r2, #0]
87802762:	f44f 7484 	mov.w	r4, #264	; 0x108
87802766:	600b      	str	r3, [r1, #0]
87802768:	f2c0 240e 	movt	r4, #526	; 0x20e
8780276c:	f44f 7086 	mov.w	r0, #268	; 0x10c
87802770:	f240 52dc 	movw	r2, #1500	; 0x5dc
87802774:	f2c0 200e 	movt	r0, #526	; 0x20e
87802778:	f2c0 220e 	movt	r2, #526	; 0x20e
8780277c:	f44f 7188 	mov.w	r1, #272	; 0x110
87802780:	f2c0 210e 	movt	r1, #526	; 0x20e
87802784:	602b      	str	r3, [r5, #0]
87802786:	f44f 7669 	mov.w	r6, #932	; 0x3a4
8780278a:	6023      	str	r3, [r4, #0]
8780278c:	f2c0 260e 	movt	r6, #526	; 0x20e
87802790:	6003      	str	r3, [r0, #0]
87802792:	257c      	movs	r5, #124	; 0x7c
87802794:	6013      	str	r3, [r2, #0]
87802796:	f2c0 250e 	movt	r5, #526	; 0x20e
8780279a:	600b      	str	r3, [r1, #0]
8780279c:	f44f 706a 	mov.w	r0, #936	; 0x3a8
878027a0:	f44f 726b 	mov.w	r2, #940	; 0x3ac
878027a4:	f2c0 200e 	movt	r0, #526	; 0x20e
878027a8:	f2c0 220e 	movt	r2, #526	; 0x20e
878027ac:	f44f 716c 	mov.w	r1, #944	; 0x3b0
878027b0:	f44f 746d 	mov.w	r4, #948	; 0x3b4
878027b4:	f2c0 210e 	movt	r1, #526	; 0x20e
878027b8:	f2c0 240e 	movt	r4, #526	; 0x20e
878027bc:	2305      	movs	r3, #5
878027be:	602b      	str	r3, [r5, #0]
878027c0:	23b9      	movs	r3, #185	; 0xb9
878027c2:	f44f 756e 	mov.w	r5, #952	; 0x3b8
878027c6:	6033      	str	r3, [r6, #0]
878027c8:	f2c0 250e 	movt	r5, #526	; 0x20e
878027cc:	6003      	str	r3, [r0, #0]
878027ce:	6013      	str	r3, [r2, #0]
878027d0:	f44f 706f 	mov.w	r0, #956	; 0x3bc
878027d4:	600b      	str	r3, [r1, #0]
878027d6:	f2c0 200e 	movt	r0, #526	; 0x20e
878027da:	6023      	str	r3, [r4, #0]
878027dc:	f44f 7270 	mov.w	r2, #960	; 0x3c0
878027e0:	f44f 7171 	mov.w	r1, #964	; 0x3c4
878027e4:	f2c0 220e 	movt	r2, #526	; 0x20e
878027e8:	f2c0 210e 	movt	r1, #526	; 0x20e
878027ec:	f44f 7472 	mov.w	r4, #968	; 0x3c8
878027f0:	f2c0 240e 	movt	r4, #526	; 0x20e
878027f4:	602b      	str	r3, [r5, #0]
878027f6:	6003      	str	r3, [r0, #0]
878027f8:	f44f 7573 	mov.w	r5, #972	; 0x3cc
878027fc:	6013      	str	r3, [r2, #0]
878027fe:	f2c0 250e 	movt	r5, #526	; 0x20e
87802802:	600b      	str	r3, [r1, #0]
87802804:	f44f 7074 	mov.w	r0, #976	; 0x3d0
87802808:	6023      	str	r3, [r4, #0]
8780280a:	f2c0 200e 	movt	r0, #526	; 0x20e
8780280e:	f44f 7275 	mov.w	r2, #980	; 0x3d4
87802812:	f44f 7176 	mov.w	r1, #984	; 0x3d8
87802816:	f2c0 220e 	movt	r2, #526	; 0x20e
8780281a:	f2c0 210e 	movt	r1, #526	; 0x20e
8780281e:	f44f 7477 	mov.w	r4, #988	; 0x3dc
87802822:	f2c0 240e 	movt	r4, #526	; 0x20e
87802826:	602b      	str	r3, [r5, #0]
87802828:	f44f 7578 	mov.w	r5, #992	; 0x3e0
8780282c:	6003      	str	r3, [r0, #0]
8780282e:	f2c0 250e 	movt	r5, #526	; 0x20e
87802832:	6013      	str	r3, [r2, #0]
87802834:	f44f 7079 	mov.w	r0, #996	; 0x3e4
87802838:	600b      	str	r3, [r1, #0]
8780283a:	f2c0 200e 	movt	r0, #526	; 0x20e
8780283e:	6023      	str	r3, [r4, #0]
87802840:	f44f 727a 	mov.w	r2, #1000	; 0x3e8
87802844:	f44f 717b 	mov.w	r1, #1004	; 0x3ec
87802848:	f2c0 220e 	movt	r2, #526	; 0x20e
8780284c:	f2c0 210e 	movt	r1, #526	; 0x20e
87802850:	f44f 747c 	mov.w	r4, #1008	; 0x3f0
87802854:	f2c0 240e 	movt	r4, #526	; 0x20e
87802858:	602b      	str	r3, [r5, #0]
8780285a:	6003      	str	r3, [r0, #0]
8780285c:	f44f 757d 	mov.w	r5, #1012	; 0x3f4
87802860:	6013      	str	r3, [r2, #0]
87802862:	f2c0 250e 	movt	r5, #526	; 0x20e
87802866:	600b      	str	r3, [r1, #0]
87802868:	f44f 707e 	mov.w	r0, #1016	; 0x3f8
8780286c:	6023      	str	r3, [r4, #0]
8780286e:	f2c0 200e 	movt	r0, #526	; 0x20e
87802872:	f44f 727f 	mov.w	r2, #1020	; 0x3fc
87802876:	f44f 6180 	mov.w	r1, #1024	; 0x400
8780287a:	f2c0 220e 	movt	r2, #526	; 0x20e
8780287e:	f2c0 210e 	movt	r1, #526	; 0x20e
87802882:	f44f 7464 	mov.w	r4, #912	; 0x390
87802886:	f2c0 240e 	movt	r4, #526	; 0x20e
8780288a:	602b      	str	r3, [r5, #0]
8780288c:	f44f 7565 	mov.w	r5, #916	; 0x394
87802890:	6003      	str	r3, [r0, #0]
87802892:	f2c0 250e 	movt	r5, #526	; 0x20e
87802896:	6013      	str	r3, [r2, #0]
87802898:	f44f 7066 	mov.w	r0, #920	; 0x398
8780289c:	600b      	str	r3, [r1, #0]
8780289e:	f2c0 200e 	movt	r0, #526	; 0x20e
878028a2:	6023      	str	r3, [r4, #0]
878028a4:	f44f 7267 	mov.w	r2, #924	; 0x39c
878028a8:	f44f 7142 	mov.w	r1, #776	; 0x308
878028ac:	f2c0 220e 	movt	r2, #526	; 0x20e
878028b0:	f2c0 210e 	movt	r1, #526	; 0x20e
878028b4:	f44f 4440 	mov.w	r4, #49152	; 0xc000
878028b8:	f2c0 2409 	movt	r4, #521	; 0x209
878028bc:	b084      	sub	sp, #16
878028be:	602b      	str	r3, [r5, #0]
878028c0:	2501      	movs	r5, #1
878028c2:	6003      	str	r3, [r0, #0]
878028c4:	4620      	mov	r0, r4
878028c6:	6013      	str	r3, [r2, #0]
878028c8:	aa01      	add	r2, sp, #4
878028ca:	600b      	str	r3, [r1, #0]
878028cc:	2108      	movs	r1, #8
878028ce:	9501      	str	r5, [sp, #4]
878028d0:	f88d 5008 	strb.w	r5, [sp, #8]
878028d4:	f7ff fac4 	bl	87801e60 <gpio_init>
878028d8:	462a      	mov	r2, r5
878028da:	4620      	mov	r0, r4
878028dc:	2108      	movs	r1, #8
878028de:	f7ff fa63 	bl	87801da8 <gpio_pinwrite>
878028e2:	b004      	add	sp, #16
878028e4:	bd70      	pop	{r4, r5, r6, pc}
878028e6:	bf00      	nop

878028e8 <lcdclk_init>:
878028e8:	b4f0      	push	{r4, r5, r6, r7}
878028ea:	f44f 4400 	mov.w	r4, #32768	; 0x8000
878028ee:	f2c0 240c 	movt	r4, #524	; 0x20c
878028f2:	2600      	movs	r6, #0
878028f4:	f440 1081 	orr.w	r0, r0, #1056768	; 0x102000
878028f8:	f44f 4380 	mov.w	r3, #16384	; 0x4000
878028fc:	f8c4 60b0 	str.w	r6, [r4, #176]	; 0xb0
87802900:	f2c0 230c 	movt	r3, #524	; 0x20c
87802904:	f8c4 60c0 	str.w	r6, [r4, #192]	; 0xc0
87802908:	1e4f      	subs	r7, r1, #1
8780290a:	f8c4 00a0 	str.w	r0, [r4, #160]	; 0xa0
8780290e:	1e55      	subs	r5, r2, #1
87802910:	f8d4 0170 	ldr.w	r0, [r4, #368]	; 0x170
87802914:	f020 4040 	bic.w	r0, r0, #3221225472	; 0xc0000000
87802918:	f8c4 0170 	str.w	r0, [r4, #368]	; 0x170
8780291c:	f8c4 6170 	str.w	r6, [r4, #368]	; 0x170
87802920:	6b98      	ldr	r0, [r3, #56]	; 0x38
87802922:	f420 3060 	bic.w	r0, r0, #229376	; 0x38000
87802926:	6398      	str	r0, [r3, #56]	; 0x38
87802928:	6b98      	ldr	r0, [r3, #56]	; 0x38
8780292a:	f440 3080 	orr.w	r0, r0, #65536	; 0x10000
8780292e:	6398      	str	r0, [r3, #56]	; 0x38
87802930:	6b98      	ldr	r0, [r3, #56]	; 0x38
87802932:	f420 40e0 	bic.w	r0, r0, #28672	; 0x7000
87802936:	6398      	str	r0, [r3, #56]	; 0x38
87802938:	6b99      	ldr	r1, [r3, #56]	; 0x38
8780293a:	ea41 3107 	orr.w	r1, r1, r7, lsl #12
8780293e:	6399      	str	r1, [r3, #56]	; 0x38
87802940:	6999      	ldr	r1, [r3, #24]
87802942:	f021 7160 	bic.w	r1, r1, #58720256	; 0x3800000
87802946:	6199      	str	r1, [r3, #24]
87802948:	699a      	ldr	r2, [r3, #24]
8780294a:	ea42 52c5 	orr.w	r2, r2, r5, lsl #23
8780294e:	619a      	str	r2, [r3, #24]
87802950:	6b9a      	ldr	r2, [r3, #56]	; 0x38
87802952:	bcf0      	pop	{r4, r5, r6, r7}
87802954:	f422 6260 	bic.w	r2, r2, #3584	; 0xe00
87802958:	639a      	str	r2, [r3, #56]	; 0x38
8780295a:	6b9a      	ldr	r2, [r3, #56]	; 0x38
8780295c:	639a      	str	r2, [r3, #56]	; 0x38
8780295e:	4770      	bx	lr

87802960 <lcd_init>:
87802960:	b5f8      	push	{r3, r4, r5, r6, r7, lr}
87802962:	f44f 4400 	mov.w	r4, #32768	; 0x8000
87802966:	f7ff fe7f 	bl	87802668 <lcdgpio_init>
8780296a:	f2c0 241c 	movt	r4, #540	; 0x21c
8780296e:	2205      	movs	r2, #5
87802970:	2103      	movs	r1, #3
87802972:	2020      	movs	r0, #32
87802974:	f7ff ffb8 	bl	878028e8 <lcdclk_init>
87802978:	f04f 4300 	mov.w	r3, #2147483648	; 0x80000000
8780297c:	200a      	movs	r0, #10
8780297e:	6023      	str	r3, [r4, #0]
87802980:	f7ff f99c 	bl	87801cbc <delayms>
87802984:	4b30      	ldr	r3, [pc, #192]	; (87802a48 <lcd_init+0xe8>)
87802986:	4a31      	ldr	r2, [pc, #196]	; (87802a4c <lcd_init+0xec>)
87802988:	2100      	movs	r1, #0
8780298a:	447b      	add	r3, pc
8780298c:	6021      	str	r1, [r4, #0]
8780298e:	f04f 0e04 	mov.w	lr, #4
87802992:	f44f 7016 	mov.w	r0, #600	; 0x258
87802996:	589d      	ldr	r5, [r3, r2]
87802998:	f2c0 4000 	movt	r0, #1024	; 0x400
8780299c:	f04f 4209 	mov.w	r2, #2298478592	; 0x89000000
878029a0:	f06f 467f 	mvn.w	r6, #4278190080	; 0xff000000
878029a4:	f04f 0c03 	mov.w	ip, #3
878029a8:	270c      	movs	r7, #12
878029aa:	61a9      	str	r1, [r5, #24]
878029ac:	6028      	str	r0, [r5, #0]
878029ae:	208c      	movs	r0, #140	; 0x8c
878029b0:	616a      	str	r2, [r5, #20]
878029b2:	f885 e004 	strb.w	lr, [r5, #4]
878029b6:	61ee      	str	r6, [r5, #28]
878029b8:	6823      	ldr	r3, [r4, #0]
878029ba:	816f      	strh	r7, [r5, #10]
878029bc:	f44f 27e0 	mov.w	r7, #458752	; 0x70000
878029c0:	f443 2320 	orr.w	r3, r3, #655360	; 0xa0000
878029c4:	81e8      	strh	r0, [r5, #14]
878029c6:	f8a5 c006 	strh.w	ip, [r5, #6]
878029ca:	20a0      	movs	r0, #160	; 0xa0
878029cc:	f443 6372 	orr.w	r3, r3, #3872	; 0xf20
878029d0:	8228      	strh	r0, [r5, #16]
878029d2:	2014      	movs	r0, #20
878029d4:	8128      	strh	r0, [r5, #8]
878029d6:	81a8      	strh	r0, [r5, #12]
878029d8:	f44f 6080 	mov.w	r0, #1024	; 0x400
878029dc:	6023      	str	r3, [r4, #0]
878029de:	f2c0 2058 	movt	r0, #600	; 0x258
878029e2:	6127      	str	r7, [r4, #16]
878029e4:	4663      	mov	r3, ip
878029e6:	6320      	str	r0, [r4, #48]	; 0x30
878029e8:	f2c1 1330 	movt	r3, #4400	; 0x1130
878029ec:	6721      	str	r1, [r4, #112]	; 0x70
878029ee:	f240 217b 	movw	r1, #635	; 0x27b
878029f2:	6723      	str	r3, [r4, #112]	; 0x70
878029f4:	f44f 63a8 	mov.w	r3, #1344	; 0x540
878029f8:	f8c4 1080 	str.w	r1, [r4, #128]	; 0x80
878029fc:	f2c0 0350 	movt	r3, #80	; 0x50
87802a00:	2117      	movs	r1, #23
87802a02:	f8c4 3090 	str.w	r3, [r4, #144]	; 0x90
87802a06:	f2c0 01a0 	movt	r1, #160	; 0xa0
87802a0a:	f44f 6380 	mov.w	r3, #1024	; 0x400
87802a0e:	f8c4 10a0 	str.w	r1, [r4, #160]	; 0xa0
87802a12:	f2c0 0304 	movt	r3, #4
87802a16:	f8c4 30b0 	str.w	r3, [r4, #176]	; 0xb0
87802a1a:	200a      	movs	r0, #10
87802a1c:	6422      	str	r2, [r4, #64]	; 0x40
87802a1e:	6522      	str	r2, [r4, #80]	; 0x50
87802a20:	6823      	ldr	r3, [r4, #0]
87802a22:	f043 0301 	orr.w	r3, r3, #1
87802a26:	6023      	str	r3, [r4, #0]
87802a28:	f7ff f948 	bl	87801cbc <delayms>
87802a2c:	8869      	ldrh	r1, [r5, #2]
87802a2e:	882a      	ldrh	r2, [r5, #0]
87802a30:	696b      	ldr	r3, [r5, #20]
87802a32:	fb02 f201 	mul.w	r2, r2, r1
87802a36:	b12a      	cbz	r2, 87802a44 <lcd_init+0xe4>
87802a38:	eb03 0282 	add.w	r2, r3, r2, lsl #2
87802a3c:	f843 6b04 	str.w	r6, [r3], #4
87802a40:	429a      	cmp	r2, r3
87802a42:	d1fb      	bne.n	87802a3c <lcd_init+0xdc>
87802a44:	bdf8      	pop	{r3, r4, r5, r6, r7, pc}
87802a46:	bf00      	nop
87802a48:	ffffd672 			; <UNDEFINED> instruction: 0xffffd672
87802a4c:	00000160 	andeq	r0, r0, r0, ror #2

87802a50 <lcd_reset>:
87802a50:	f44f 4300 	mov.w	r3, #32768	; 0x8000
87802a54:	f2c0 231c 	movt	r3, #540	; 0x21c
87802a58:	f04f 4200 	mov.w	r2, #2147483648	; 0x80000000
87802a5c:	601a      	str	r2, [r3, #0]
87802a5e:	4770      	bx	lr

87802a60 <lcd_noreset>:
87802a60:	f44f 4300 	mov.w	r3, #32768	; 0x8000
87802a64:	f2c0 231c 	movt	r3, #540	; 0x21c
87802a68:	2200      	movs	r2, #0
87802a6a:	601a      	str	r2, [r3, #0]
87802a6c:	4770      	bx	lr
87802a6e:	bf00      	nop

87802a70 <lcd_enable>:
87802a70:	f44f 4300 	mov.w	r3, #32768	; 0x8000
87802a74:	f2c0 231c 	movt	r3, #540	; 0x21c
87802a78:	681a      	ldr	r2, [r3, #0]
87802a7a:	f042 0201 	orr.w	r2, r2, #1
87802a7e:	601a      	str	r2, [r3, #0]
87802a80:	4770      	bx	lr
87802a82:	bf00      	nop

87802a84 <lcd_drawpoint>:
87802a84:	4b07      	ldr	r3, [pc, #28]	; (87802aa4 <lcd_drawpoint+0x20>)
87802a86:	b430      	push	{r4, r5}
87802a88:	447b      	add	r3, pc
87802a8a:	4c07      	ldr	r4, [pc, #28]	; (87802aa8 <lcd_drawpoint+0x24>)
87802a8c:	591d      	ldr	r5, [r3, r4]
87802a8e:	886c      	ldrh	r4, [r5, #2]
87802a90:	792b      	ldrb	r3, [r5, #4]
87802a92:	696d      	ldr	r5, [r5, #20]
87802a94:	fb01 0004 	mla	r0, r1, r4, r0
87802a98:	fb03 f300 	mul.w	r3, r3, r0
87802a9c:	515a      	str	r2, [r3, r5]
87802a9e:	bc30      	pop	{r4, r5}
87802aa0:	4770      	bx	lr
87802aa2:	bf00      	nop
87802aa4:	ffffd574 			; <UNDEFINED> instruction: 0xffffd574
87802aa8:	00000160 	andeq	r0, r0, r0, ror #2

87802aac <lcd_readpoint>:
87802aac:	4b07      	ldr	r3, [pc, #28]	; (87802acc <lcd_readpoint+0x20>)
87802aae:	4a08      	ldr	r2, [pc, #32]	; (87802ad0 <lcd_readpoint+0x24>)
87802ab0:	447b      	add	r3, pc
87802ab2:	b410      	push	{r4}
87802ab4:	589c      	ldr	r4, [r3, r2]
87802ab6:	8862      	ldrh	r2, [r4, #2]
87802ab8:	7923      	ldrb	r3, [r4, #4]
87802aba:	6964      	ldr	r4, [r4, #20]
87802abc:	fb01 0002 	mla	r0, r1, r2, r0
87802ac0:	fb03 f300 	mul.w	r3, r3, r0
87802ac4:	5918      	ldr	r0, [r3, r4]
87802ac6:	f85d 4b04 	ldr.w	r4, [sp], #4
87802aca:	4770      	bx	lr
87802acc:	ffffd54c 			; <UNDEFINED> instruction: 0xffffd54c
87802ad0:	00000160 	andeq	r0, r0, r0, ror #2

87802ad4 <lcd_clear>:
87802ad4:	4b08      	ldr	r3, [pc, #32]	; (87802af8 <lcd_clear+0x24>)
87802ad6:	4a09      	ldr	r2, [pc, #36]	; (87802afc <lcd_clear+0x28>)
87802ad8:	447b      	add	r3, pc
87802ada:	589b      	ldr	r3, [r3, r2]
87802adc:	8859      	ldrh	r1, [r3, #2]
87802ade:	881a      	ldrh	r2, [r3, #0]
87802ae0:	695b      	ldr	r3, [r3, #20]
87802ae2:	fb02 f201 	mul.w	r2, r2, r1
87802ae6:	b12a      	cbz	r2, 87802af4 <lcd_clear+0x20>
87802ae8:	eb03 0282 	add.w	r2, r3, r2, lsl #2
87802aec:	f843 0b04 	str.w	r0, [r3], #4
87802af0:	429a      	cmp	r2, r3
87802af2:	d1fb      	bne.n	87802aec <lcd_clear+0x18>
87802af4:	4770      	bx	lr
87802af6:	bf00      	nop
87802af8:	ffffd524 			; <UNDEFINED> instruction: 0xffffd524
87802afc:	00000160 	andeq	r0, r0, r0, ror #2

87802b00 <lcd_fill>:
87802b00:	e92d 43f0 	stmdb	sp!, {r4, r5, r6, r7, r8, r9, lr}
87802b04:	4698      	mov	r8, r3
87802b06:	4c16      	ldr	r4, [pc, #88]	; (87802b60 <lcd_fill+0x60>)
87802b08:	4d16      	ldr	r5, [pc, #88]	; (87802b64 <lcd_fill+0x64>)
87802b0a:	447c      	add	r4, pc
87802b0c:	9b07      	ldr	r3, [sp, #28]
87802b0e:	5966      	ldr	r6, [r4, r5]
87802b10:	f8b6 9002 	ldrh.w	r9, [r6, #2]
87802b14:	8834      	ldrh	r4, [r6, #0]
87802b16:	4591      	cmp	r9, r2
87802b18:	bf9c      	itt	ls
87802b1a:	f109 32ff 	addls.w	r2, r9, #4294967295	; 0xffffffff
87802b1e:	b292      	uxthls	r2, r2
87802b20:	4544      	cmp	r4, r8
87802b22:	bf9c      	itt	ls
87802b24:	f104 34ff 	addls.w	r4, r4, #4294967295	; 0xffffffff
87802b28:	fa1f f884 	uxthls.w	r8, r4
87802b2c:	4588      	cmp	r8, r1
87802b2e:	d315      	bcc.n	87802b5c <lcd_fill+0x5c>
87802b30:	4282      	cmp	r2, r0
87802b32:	bf24      	itt	cs
87802b34:	fb01 fe09 	mulcs.w	lr, r1, r9
87802b38:	4604      	movcs	r4, r0
87802b3a:	d30b      	bcc.n	87802b54 <lcd_fill+0x54>
87802b3c:	f896 c004 	ldrb.w	ip, [r6, #4]
87802b40:	eb04 050e 	add.w	r5, r4, lr
87802b44:	3401      	adds	r4, #1
87802b46:	6977      	ldr	r7, [r6, #20]
87802b48:	fb05 f50c 	mul.w	r5, r5, ip
87802b4c:	b2a4      	uxth	r4, r4
87802b4e:	42a2      	cmp	r2, r4
87802b50:	51eb      	str	r3, [r5, r7]
87802b52:	d2f3      	bcs.n	87802b3c <lcd_fill+0x3c>
87802b54:	3101      	adds	r1, #1
87802b56:	b289      	uxth	r1, r1
87802b58:	4588      	cmp	r8, r1
87802b5a:	d2e9      	bcs.n	87802b30 <lcd_fill+0x30>
87802b5c:	e8bd 83f0 	ldmia.w	sp!, {r4, r5, r6, r7, r8, r9, pc}
87802b60:	ffffd4f2 			; <UNDEFINED> instruction: 0xffffd4f2
87802b64:	00000160 	andeq	r0, r0, r0, ror #2

87802b68 <lcd_drawline>:
87802b68:	e92d 4ff0 	stmdb	sp!, {r4, r5, r6, r7, r8, r9, sl, fp, lr}
87802b6c:	eba2 0a00 	sub.w	sl, r2, r0
87802b70:	4688      	mov	r8, r1
87802b72:	f1ba 0f00 	cmp.w	sl, #0
87802b76:	b085      	sub	sp, #20
87802b78:	4926      	ldr	r1, [pc, #152]	; (87802c14 <lcd_drawline+0xac>)
87802b7a:	eba3 0908 	sub.w	r9, r3, r8
87802b7e:	4607      	mov	r7, r0
87802b80:	4479      	add	r1, pc
87802b82:	bfc4      	itt	gt
87802b84:	2301      	movgt	r3, #1
87802b86:	9302      	strgt	r3, [sp, #8]
87802b88:	dc07      	bgt.n	87802b9a <lcd_drawline+0x32>
87802b8a:	bf1b      	ittet	ne
87802b8c:	f1ca 0a00 	rsbne	sl, sl, #0
87802b90:	f04f 33ff 	movne.w	r3, #4294967295	; 0xffffffff
87802b94:	f8cd a008 	streq.w	sl, [sp, #8]
87802b98:	9302      	strne	r3, [sp, #8]
87802b9a:	f1b9 0f00 	cmp.w	r9, #0
87802b9e:	bfc4      	itt	gt
87802ba0:	2301      	movgt	r3, #1
87802ba2:	9303      	strgt	r3, [sp, #12]
87802ba4:	dd2b      	ble.n	87802bfe <lcd_drawline+0x96>
87802ba6:	4a1c      	ldr	r2, [pc, #112]	; (87802c18 <lcd_drawline+0xb0>)
87802ba8:	45ca      	cmp	sl, r9
87802baa:	46d3      	mov	fp, sl
87802bac:	f04f 0500 	mov.w	r5, #0
87802bb0:	bfb8      	it	lt
87802bb2:	46cb      	movlt	fp, r9
87802bb4:	f10b 0301 	add.w	r3, fp, #1
87802bb8:	9300      	str	r3, [sp, #0]
87802bba:	462e      	mov	r6, r5
87802bbc:	588b      	ldr	r3, [r1, r2]
87802bbe:	462c      	mov	r4, r5
87802bc0:	9301      	str	r3, [sp, #4]
87802bc2:	9b01      	ldr	r3, [sp, #4]
87802bc4:	fa1f f188 	uxth.w	r1, r8
87802bc8:	b2b8      	uxth	r0, r7
87802bca:	4456      	add	r6, sl
87802bcc:	444d      	add	r5, r9
87802bce:	3401      	adds	r4, #1
87802bd0:	699a      	ldr	r2, [r3, #24]
87802bd2:	f7ff ff57 	bl	87802a84 <lcd_drawpoint>
87802bd6:	455e      	cmp	r6, fp
87802bd8:	bfc8      	it	gt
87802bda:	eba6 060b 	subgt.w	r6, r6, fp
87802bde:	b2a4      	uxth	r4, r4
87802be0:	bfc4      	itt	gt
87802be2:	9b02      	ldrgt	r3, [sp, #8]
87802be4:	18ff      	addgt	r7, r7, r3
87802be6:	455d      	cmp	r5, fp
87802be8:	bfc2      	ittt	gt
87802bea:	eba5 050b 	subgt.w	r5, r5, fp
87802bee:	9b03      	ldrgt	r3, [sp, #12]
87802bf0:	4498      	addgt	r8, r3
87802bf2:	9b00      	ldr	r3, [sp, #0]
87802bf4:	429c      	cmp	r4, r3
87802bf6:	dde4      	ble.n	87802bc2 <lcd_drawline+0x5a>
87802bf8:	b005      	add	sp, #20
87802bfa:	e8bd 8ff0 	ldmia.w	sp!, {r4, r5, r6, r7, r8, r9, sl, fp, pc}
87802bfe:	bf08      	it	eq
87802c00:	f8cd 900c 	streq.w	r9, [sp, #12]
87802c04:	d0cf      	beq.n	87802ba6 <lcd_drawline+0x3e>
87802c06:	f04f 33ff 	mov.w	r3, #4294967295	; 0xffffffff
87802c0a:	f1c9 0900 	rsb	r9, r9, #0
87802c0e:	9303      	str	r3, [sp, #12]
87802c10:	e7c9      	b.n	87802ba6 <lcd_drawline+0x3e>
87802c12:	bf00      	nop
87802c14:	ffffd47c 			; <UNDEFINED> instruction: 0xffffd47c
87802c18:	00000160 	andeq	r0, r0, r0, ror #2

87802c1c <lcd_draw_rectangle>:
87802c1c:	e92d 41f0 	stmdb	sp!, {r4, r5, r6, r7, r8, lr}
87802c20:	461c      	mov	r4, r3
87802c22:	4606      	mov	r6, r0
87802c24:	460d      	mov	r5, r1
87802c26:	460b      	mov	r3, r1
87802c28:	4617      	mov	r7, r2
87802c2a:	f7ff ff9d 	bl	87802b68 <lcd_drawline>
87802c2e:	4623      	mov	r3, r4
87802c30:	4632      	mov	r2, r6
87802c32:	4629      	mov	r1, r5
87802c34:	4630      	mov	r0, r6
87802c36:	f7ff ff97 	bl	87802b68 <lcd_drawline>
87802c3a:	4623      	mov	r3, r4
87802c3c:	463a      	mov	r2, r7
87802c3e:	4621      	mov	r1, r4
87802c40:	4630      	mov	r0, r6
87802c42:	f7ff ff91 	bl	87802b68 <lcd_drawline>
87802c46:	4623      	mov	r3, r4
87802c48:	463a      	mov	r2, r7
87802c4a:	4629      	mov	r1, r5
87802c4c:	4638      	mov	r0, r7
87802c4e:	e8bd 41f0 	ldmia.w	sp!, {r4, r5, r6, r7, r8, lr}
87802c52:	f7ff bf89 	b.w	87802b68 <lcd_drawline>
87802c56:	bf00      	nop

87802c58 <lcd_draw_Circle>:
87802c58:	e92d 4ff0 	stmdb	sp!, {r4, r5, r6, r7, r8, r9, sl, fp, lr}
87802c5c:	468b      	mov	fp, r1
87802c5e:	b085      	sub	sp, #20
87802c60:	4936      	ldr	r1, [pc, #216]	; (87802d3c <lcd_draw_Circle+0xe4>)
87802c62:	4613      	mov	r3, r2
87802c64:	f1c2 0201 	rsb	r2, r2, #1
87802c68:	9000      	str	r0, [sp, #0]
87802c6a:	4479      	add	r1, pc
87802c6c:	9201      	str	r2, [sp, #4]
87802c6e:	2b00      	cmp	r3, #0
87802c70:	d061      	beq.n	87802d36 <lcd_draw_Circle+0xde>
87802c72:	4a33      	ldr	r2, [pc, #204]	; (87802d40 <lcd_draw_Circle+0xe8>)
87802c74:	2700      	movs	r7, #0
87802c76:	588e      	ldr	r6, [r1, r2]
87802c78:	b29d      	uxth	r5, r3
87802c7a:	9303      	str	r3, [sp, #12]
87802c7c:	9b00      	ldr	r3, [sp, #0]
87802c7e:	b2bc      	uxth	r4, r7
87802c80:	eb05 0a0b 	add.w	sl, r5, fp
87802c84:	69b2      	ldr	r2, [r6, #24]
87802c86:	1919      	adds	r1, r3, r4
87802c88:	eb0b 0904 	add.w	r9, fp, r4
87802c8c:	fa1f fa8a 	uxth.w	sl, sl
87802c90:	b289      	uxth	r1, r1
87802c92:	9102      	str	r1, [sp, #8]
87802c94:	fa1f f989 	uxth.w	r9, r9
87802c98:	4608      	mov	r0, r1
87802c9a:	4651      	mov	r1, sl
87802c9c:	f7ff fef2 	bl	87802a84 <lcd_drawpoint>
87802ca0:	9a00      	ldr	r2, [sp, #0]
87802ca2:	4649      	mov	r1, r9
87802ca4:	eb05 0802 	add.w	r8, r5, r2
87802ca8:	69b2      	ldr	r2, [r6, #24]
87802caa:	fa1f f888 	uxth.w	r8, r8
87802cae:	4640      	mov	r0, r8
87802cb0:	f7ff fee8 	bl	87802a84 <lcd_drawpoint>
87802cb4:	9a00      	ldr	r2, [sp, #0]
87802cb6:	4651      	mov	r1, sl
87802cb8:	1b10      	subs	r0, r2, r4
87802cba:	69b2      	ldr	r2, [r6, #24]
87802cbc:	ebab 0404 	sub.w	r4, fp, r4
87802cc0:	fa1f fa80 	uxth.w	sl, r0
87802cc4:	b2a4      	uxth	r4, r4
87802cc6:	4650      	mov	r0, sl
87802cc8:	f7ff fedc 	bl	87802a84 <lcd_drawpoint>
87802ccc:	9a00      	ldr	r2, [sp, #0]
87802cce:	4649      	mov	r1, r9
87802cd0:	1b50      	subs	r0, r2, r5
87802cd2:	ebab 0505 	sub.w	r5, fp, r5
87802cd6:	69b2      	ldr	r2, [r6, #24]
87802cd8:	fa1f f980 	uxth.w	r9, r0
87802cdc:	b2ad      	uxth	r5, r5
87802cde:	4648      	mov	r0, r9
87802ce0:	f7ff fed0 	bl	87802a84 <lcd_drawpoint>
87802ce4:	4650      	mov	r0, sl
87802ce6:	69b2      	ldr	r2, [r6, #24]
87802ce8:	4629      	mov	r1, r5
87802cea:	f7ff fecb 	bl	87802a84 <lcd_drawpoint>
87802cee:	4648      	mov	r0, r9
87802cf0:	69b2      	ldr	r2, [r6, #24]
87802cf2:	4621      	mov	r1, r4
87802cf4:	f7ff fec6 	bl	87802a84 <lcd_drawpoint>
87802cf8:	4629      	mov	r1, r5
87802cfa:	9802      	ldr	r0, [sp, #8]
87802cfc:	69b2      	ldr	r2, [r6, #24]
87802cfe:	f7ff fec1 	bl	87802a84 <lcd_drawpoint>
87802d02:	4621      	mov	r1, r4
87802d04:	69b2      	ldr	r2, [r6, #24]
87802d06:	4640      	mov	r0, r8
87802d08:	f7ff febc 	bl	87802a84 <lcd_drawpoint>
87802d0c:	9b03      	ldr	r3, [sp, #12]
87802d0e:	9901      	ldr	r1, [sp, #4]
87802d10:	1afa      	subs	r2, r7, r3
87802d12:	2900      	cmp	r1, #0
87802d14:	eb01 0242 	add.w	r2, r1, r2, lsl #1
87802d18:	bfae      	itee	ge
87802d1a:	f103 33ff 	addge.w	r3, r3, #4294967295	; 0xffffffff
87802d1e:	460a      	movlt	r2, r1
87802d20:	eb02 0247 	addlt.w	r2, r2, r7, lsl #1
87802d24:	f107 0701 	add.w	r7, r7, #1
87802d28:	bfb5      	itete	lt
87802d2a:	3203      	addlt	r2, #3
87802d2c:	3205      	addge	r2, #5
87802d2e:	9201      	strlt	r2, [sp, #4]
87802d30:	9201      	strge	r2, [sp, #4]
87802d32:	42bb      	cmp	r3, r7
87802d34:	dca0      	bgt.n	87802c78 <lcd_draw_Circle+0x20>
87802d36:	b005      	add	sp, #20
87802d38:	e8bd 8ff0 	ldmia.w	sp!, {r4, r5, r6, r7, r8, r9, sl, fp, pc}
87802d3c:	ffffd392 			; <UNDEFINED> instruction: 0xffffd392
87802d40:	00000160 	andeq	r0, r0, r0, ror #2

87802d44 <lcd_showchar>:
87802d44:	e92d 4ff0 	stmdb	sp!, {r4, r5, r6, r7, r8, r9, sl, fp, lr}
87802d48:	461e      	mov	r6, r3
87802d4a:	f013 0307 	ands.w	r3, r3, #7
87802d4e:	ea4f 0456 	mov.w	r4, r6, lsr #1
87802d52:	b089      	sub	sp, #36	; 0x24
87802d54:	4683      	mov	fp, r0
87802d56:	bf18      	it	ne
87802d58:	2301      	movne	r3, #1
87802d5a:	eb03 03d6 	add.w	r3, r3, r6, lsr #3
87802d5e:	fb13 f004 	smulbb	r0, r3, r4
87802d62:	4b40      	ldr	r3, [pc, #256]	; (87802e64 <lcd_showchar+0x120>)
87802d64:	447b      	add	r3, pc
87802d66:	9302      	str	r3, [sp, #8]
87802d68:	f89d 3048 	ldrb.w	r3, [sp, #72]	; 0x48
87802d6c:	9301      	str	r3, [sp, #4]
87802d6e:	f010 03ff 	ands.w	r3, r0, #255	; 0xff
87802d72:	9303      	str	r3, [sp, #12]
87802d74:	d04a      	beq.n	87802e0c <lcd_showchar+0xc8>
87802d76:	3a20      	subs	r2, #32
87802d78:	4689      	mov	r9, r1
87802d7a:	483b      	ldr	r0, [pc, #236]	; (87802e68 <lcd_showchar+0x124>)
87802d7c:	464c      	mov	r4, r9
87802d7e:	b2d2      	uxtb	r2, r2
87802d80:	493a      	ldr	r1, [pc, #232]	; (87802e6c <lcd_showchar+0x128>)
87802d82:	4d3b      	ldr	r5, [pc, #236]	; (87802e70 <lcd_showchar+0x12c>)
87802d84:	4478      	add	r0, pc
87802d86:	b212      	sxth	r2, r2
87802d88:	4479      	add	r1, pc
87802d8a:	447d      	add	r5, pc
87802d8c:	f500 7015 	add.w	r0, r0, #596	; 0x254
87802d90:	eb02 0cc2 	add.w	ip, r2, r2, lsl #3
87802d94:	eb02 0742 	add.w	r7, r2, r2, lsl #1
87802d98:	f04f 0a00 	mov.w	sl, #0
87802d9c:	eb01 038c 	add.w	r3, r1, ip, lsl #2
87802da0:	f601 515c 	addw	r1, r1, #3420	; 0xd5c
87802da4:	9307      	str	r3, [sp, #28]
87802da6:	eb01 1302 	add.w	r3, r1, r2, lsl #4
87802daa:	9306      	str	r3, [sp, #24]
87802dac:	eb00 0387 	add.w	r3, r0, r7, lsl #2
87802db0:	9304      	str	r3, [sp, #16]
87802db2:	eb05 13c2 	add.w	r3, r5, r2, lsl #7
87802db6:	9305      	str	r3, [sp, #20]
87802db8:	2e0c      	cmp	r6, #12
87802dba:	d036      	beq.n	87802e2a <lcd_showchar+0xe6>
87802dbc:	2e10      	cmp	r6, #16
87802dbe:	d038      	beq.n	87802e32 <lcd_showchar+0xee>
87802dc0:	2e18      	cmp	r6, #24
87802dc2:	d04a      	beq.n	87802e5a <lcd_showchar+0x116>
87802dc4:	2e20      	cmp	r6, #32
87802dc6:	d121      	bne.n	87802e0c <lcd_showchar+0xc8>
87802dc8:	9b05      	ldr	r3, [sp, #20]
87802dca:	f813 500a 	ldrb.w	r5, [r3, sl]
87802dce:	4a29      	ldr	r2, [pc, #164]	; (87802e74 <lcd_showchar+0x130>)
87802dd0:	f104 0808 	add.w	r8, r4, #8
87802dd4:	9b02      	ldr	r3, [sp, #8]
87802dd6:	fa1f f888 	uxth.w	r8, r8
87802dda:	589f      	ldr	r7, [r3, r2]
87802ddc:	062b      	lsls	r3, r5, #24
87802dde:	d41e      	bmi.n	87802e1e <lcd_showchar+0xda>
87802de0:	9b01      	ldr	r3, [sp, #4]
87802de2:	b1b3      	cbz	r3, 87802e12 <lcd_showchar+0xce>
87802de4:	3401      	adds	r4, #1
87802de6:	883a      	ldrh	r2, [r7, #0]
87802de8:	006d      	lsls	r5, r5, #1
87802dea:	b2a4      	uxth	r4, r4
87802dec:	42a2      	cmp	r2, r4
87802dee:	b2ed      	uxtb	r5, r5
87802df0:	eba4 0109 	sub.w	r1, r4, r9
87802df4:	d90a      	bls.n	87802e0c <lcd_showchar+0xc8>
87802df6:	42b1      	cmp	r1, r6
87802df8:	d01f      	beq.n	87802e3a <lcd_showchar+0xf6>
87802dfa:	45a0      	cmp	r8, r4
87802dfc:	d1ee      	bne.n	87802ddc <lcd_showchar+0x98>
87802dfe:	f10a 0a01 	add.w	sl, sl, #1
87802e02:	9b03      	ldr	r3, [sp, #12]
87802e04:	fa5f f28a 	uxtb.w	r2, sl
87802e08:	429a      	cmp	r2, r3
87802e0a:	d3d5      	bcc.n	87802db8 <lcd_showchar+0x74>
87802e0c:	b009      	add	sp, #36	; 0x24
87802e0e:	e8bd 8ff0 	ldmia.w	sp!, {r4, r5, r6, r7, r8, r9, sl, fp, pc}
87802e12:	69fa      	ldr	r2, [r7, #28]
87802e14:	4621      	mov	r1, r4
87802e16:	4658      	mov	r0, fp
87802e18:	f7ff fe34 	bl	87802a84 <lcd_drawpoint>
87802e1c:	e7e2      	b.n	87802de4 <lcd_showchar+0xa0>
87802e1e:	69ba      	ldr	r2, [r7, #24]
87802e20:	4621      	mov	r1, r4
87802e22:	4658      	mov	r0, fp
87802e24:	f7ff fe2e 	bl	87802a84 <lcd_drawpoint>
87802e28:	e7dc      	b.n	87802de4 <lcd_showchar+0xa0>
87802e2a:	9b04      	ldr	r3, [sp, #16]
87802e2c:	f813 500a 	ldrb.w	r5, [r3, sl]
87802e30:	e7cd      	b.n	87802dce <lcd_showchar+0x8a>
87802e32:	9b06      	ldr	r3, [sp, #24]
87802e34:	f813 500a 	ldrb.w	r5, [r3, sl]
87802e38:	e7c9      	b.n	87802dce <lcd_showchar+0x8a>
87802e3a:	f10b 0b01 	add.w	fp, fp, #1
87802e3e:	887a      	ldrh	r2, [r7, #2]
87802e40:	fa1f fb8b 	uxth.w	fp, fp
87802e44:	455a      	cmp	r2, fp
87802e46:	d9e1      	bls.n	87802e0c <lcd_showchar+0xc8>
87802e48:	f10a 0a01 	add.w	sl, sl, #1
87802e4c:	9b03      	ldr	r3, [sp, #12]
87802e4e:	464c      	mov	r4, r9
87802e50:	fa5f f28a 	uxtb.w	r2, sl
87802e54:	429a      	cmp	r2, r3
87802e56:	d3af      	bcc.n	87802db8 <lcd_showchar+0x74>
87802e58:	e7d8      	b.n	87802e0c <lcd_showchar+0xc8>
87802e5a:	9b07      	ldr	r3, [sp, #28]
87802e5c:	f813 500a 	ldrb.w	r5, [r3, sl]
87802e60:	e7b5      	b.n	87802dce <lcd_showchar+0x8a>
87802e62:	bf00      	nop
87802e64:	ffffd298 			; <UNDEFINED> instruction: 0xffffd298
87802e68:	00002390 	muleq	r0, r0, r3
87802e6c:	00001294 	muleq	r0, r4, r2
87802e70:	00002a52 	andeq	r2, r0, r2, asr sl
87802e74:	00000160 	andeq	r0, r0, r0, ror #2

87802e78 <lcd_pow>:
87802e78:	1e4b      	subs	r3, r1, #1
87802e7a:	2201      	movs	r2, #1
87802e7c:	b2db      	uxtb	r3, r3
87802e7e:	b129      	cbz	r1, 87802e8c <lcd_pow+0x14>
87802e80:	3b01      	subs	r3, #1
87802e82:	fb00 f202 	mul.w	r2, r0, r2
87802e86:	b2db      	uxtb	r3, r3
87802e88:	2bff      	cmp	r3, #255	; 0xff
87802e8a:	d1f9      	bne.n	87802e80 <lcd_pow+0x8>
87802e8c:	4610      	mov	r0, r2
87802e8e:	4770      	bx	lr

87802e90 <lcd_shownum>:
87802e90:	e92d 4ff0 	stmdb	sp!, {r4, r5, r6, r7, r8, r9, sl, fp, lr}
87802e94:	b089      	sub	sp, #36	; 0x24
87802e96:	9103      	str	r1, [sp, #12]
87802e98:	f89d 8048 	ldrb.w	r8, [sp, #72]	; 0x48
87802e9c:	2b00      	cmp	r3, #0
87802e9e:	d043      	beq.n	87802f28 <lcd_shownum+0x98>
87802ea0:	4693      	mov	fp, r2
87802ea2:	1e5a      	subs	r2, r3, #1
87802ea4:	2600      	movs	r6, #0
87802ea6:	f64c 4acd 	movw	sl, #52429	; 0xcccd
87802eaa:	f6cc 4acc 	movt	sl, #52428	; 0xcccc
87802eae:	fa5f f982 	uxtb.w	r9, r2
87802eb2:	4605      	mov	r5, r0
87802eb4:	4637      	mov	r7, r6
87802eb6:	240a      	movs	r4, #10
87802eb8:	3b02      	subs	r3, #2
87802eba:	9207      	str	r2, [sp, #28]
87802ebc:	9306      	str	r3, [sp, #24]
87802ebe:	f109 0301 	add.w	r3, r9, #1
87802ec2:	9305      	str	r3, [sp, #20]
87802ec4:	ea4f 0358 	mov.w	r3, r8, lsr #1
87802ec8:	9304      	str	r3, [sp, #16]
87802eca:	9b06      	ldr	r3, [sp, #24]
87802ecc:	b2f2      	uxtb	r2, r6
87802ece:	454a      	cmp	r2, r9
87802ed0:	eba3 0302 	sub.w	r3, r3, r2
87802ed4:	bf08      	it	eq
87802ed6:	4658      	moveq	r0, fp
87802ed8:	b2db      	uxtb	r3, r3
87802eda:	d009      	beq.n	87802ef0 <lcd_shownum+0x60>
87802edc:	2101      	movs	r1, #1
87802ede:	3b01      	subs	r3, #1
87802ee0:	fb04 f101 	mul.w	r1, r4, r1
87802ee4:	b2db      	uxtb	r3, r3
87802ee6:	2bff      	cmp	r3, #255	; 0xff
87802ee8:	d1f9      	bne.n	87802ede <lcd_shownum+0x4e>
87802eea:	4658      	mov	r0, fp
87802eec:	f000 fd20 	bl	87803930 <__udivsi3>
87802ef0:	fba0 230a 	umull	r2, r3, r0, sl
87802ef4:	08db      	lsrs	r3, r3, #3
87802ef6:	fb04 0313 	mls	r3, r4, r3, r0
87802efa:	b2da      	uxtb	r2, r3
87802efc:	b927      	cbnz	r7, 87802f08 <lcd_shownum+0x78>
87802efe:	9907      	ldr	r1, [sp, #28]
87802f00:	42b1      	cmp	r1, r6
87802f02:	dd01      	ble.n	87802f08 <lcd_shownum+0x78>
87802f04:	b19b      	cbz	r3, 87802f2e <lcd_shownum+0x9e>
87802f06:	2701      	movs	r7, #1
87802f08:	3230      	adds	r2, #48	; 0x30
87802f0a:	2100      	movs	r1, #0
87802f0c:	4643      	mov	r3, r8
87802f0e:	9100      	str	r1, [sp, #0]
87802f10:	b2d2      	uxtb	r2, r2
87802f12:	9903      	ldr	r1, [sp, #12]
87802f14:	4628      	mov	r0, r5
87802f16:	f7ff ff15 	bl	87802d44 <lcd_showchar>
87802f1a:	9b04      	ldr	r3, [sp, #16]
87802f1c:	3601      	adds	r6, #1
87802f1e:	441d      	add	r5, r3
87802f20:	9b05      	ldr	r3, [sp, #20]
87802f22:	42b3      	cmp	r3, r6
87802f24:	b2ad      	uxth	r5, r5
87802f26:	d1d0      	bne.n	87802eca <lcd_shownum+0x3a>
87802f28:	b009      	add	sp, #36	; 0x24
87802f2a:	e8bd 8ff0 	ldmia.w	sp!, {r4, r5, r6, r7, r8, r9, sl, fp, pc}
87802f2e:	9700      	str	r7, [sp, #0]
87802f30:	4643      	mov	r3, r8
87802f32:	2220      	movs	r2, #32
87802f34:	9903      	ldr	r1, [sp, #12]
87802f36:	4628      	mov	r0, r5
87802f38:	f7ff ff04 	bl	87802d44 <lcd_showchar>
87802f3c:	e7ed      	b.n	87802f1a <lcd_shownum+0x8a>
87802f3e:	bf00      	nop

87802f40 <lcd_showxnum>:
87802f40:	e92d 4ff0 	stmdb	sp!, {r4, r5, r6, r7, r8, r9, sl, fp, lr}
87802f44:	b08b      	sub	sp, #44	; 0x2c
87802f46:	4693      	mov	fp, r2
87802f48:	f89d 2054 	ldrb.w	r2, [sp, #84]	; 0x54
87802f4c:	9103      	str	r1, [sp, #12]
87802f4e:	f89d 8050 	ldrb.w	r8, [sp, #80]	; 0x50
87802f52:	9209      	str	r2, [sp, #36]	; 0x24
87802f54:	2b00      	cmp	r3, #0
87802f56:	d045      	beq.n	87802fe4 <lcd_showxnum+0xa4>
87802f58:	1e59      	subs	r1, r3, #1
87802f5a:	2600      	movs	r6, #0
87802f5c:	f64c 4acd 	movw	sl, #52429	; 0xcccd
87802f60:	f6cc 4acc 	movt	sl, #52428	; 0xcccc
87802f64:	fa5f f981 	uxtb.w	r9, r1
87802f68:	4605      	mov	r5, r0
87802f6a:	4637      	mov	r7, r6
87802f6c:	240a      	movs	r4, #10
87802f6e:	3b02      	subs	r3, #2
87802f70:	9108      	str	r1, [sp, #32]
87802f72:	9306      	str	r3, [sp, #24]
87802f74:	f109 0301 	add.w	r3, r9, #1
87802f78:	9305      	str	r3, [sp, #20]
87802f7a:	ea4f 0358 	mov.w	r3, r8, lsr #1
87802f7e:	9304      	str	r3, [sp, #16]
87802f80:	f002 0301 	and.w	r3, r2, #1
87802f84:	9307      	str	r3, [sp, #28]
87802f86:	9b06      	ldr	r3, [sp, #24]
87802f88:	b2f2      	uxtb	r2, r6
87802f8a:	454a      	cmp	r2, r9
87802f8c:	eba3 0302 	sub.w	r3, r3, r2
87802f90:	bf08      	it	eq
87802f92:	4658      	moveq	r0, fp
87802f94:	b2db      	uxtb	r3, r3
87802f96:	d009      	beq.n	87802fac <lcd_showxnum+0x6c>
87802f98:	2101      	movs	r1, #1
87802f9a:	3b01      	subs	r3, #1
87802f9c:	fb04 f101 	mul.w	r1, r4, r1
87802fa0:	b2db      	uxtb	r3, r3
87802fa2:	2bff      	cmp	r3, #255	; 0xff
87802fa4:	d1f9      	bne.n	87802f9a <lcd_showxnum+0x5a>
87802fa6:	4658      	mov	r0, fp
87802fa8:	f000 fcc2 	bl	87803930 <__udivsi3>
87802fac:	fba0 230a 	umull	r2, r3, r0, sl
87802fb0:	08db      	lsrs	r3, r3, #3
87802fb2:	fb04 0313 	mls	r3, r4, r3, r0
87802fb6:	b2da      	uxtb	r2, r3
87802fb8:	b927      	cbnz	r7, 87802fc4 <lcd_showxnum+0x84>
87802fba:	9908      	ldr	r1, [sp, #32]
87802fbc:	42b1      	cmp	r1, r6
87802fbe:	dd01      	ble.n	87802fc4 <lcd_showxnum+0x84>
87802fc0:	b19b      	cbz	r3, 87802fea <lcd_showxnum+0xaa>
87802fc2:	2701      	movs	r7, #1
87802fc4:	9b07      	ldr	r3, [sp, #28]
87802fc6:	3230      	adds	r2, #48	; 0x30
87802fc8:	9903      	ldr	r1, [sp, #12]
87802fca:	4628      	mov	r0, r5
87802fcc:	b2d2      	uxtb	r2, r2
87802fce:	9300      	str	r3, [sp, #0]
87802fd0:	4643      	mov	r3, r8
87802fd2:	f7ff feb7 	bl	87802d44 <lcd_showchar>
87802fd6:	9b04      	ldr	r3, [sp, #16]
87802fd8:	3601      	adds	r6, #1
87802fda:	441d      	add	r5, r3
87802fdc:	9b05      	ldr	r3, [sp, #20]
87802fde:	42b3      	cmp	r3, r6
87802fe0:	b2ad      	uxth	r5, r5
87802fe2:	d1d0      	bne.n	87802f86 <lcd_showxnum+0x46>
87802fe4:	b00b      	add	sp, #44	; 0x2c
87802fe6:	e8bd 8ff0 	ldmia.w	sp!, {r4, r5, r6, r7, r8, r9, sl, fp, pc}
87802fea:	9b09      	ldr	r3, [sp, #36]	; 0x24
87802fec:	4628      	mov	r0, r5
87802fee:	9903      	ldr	r1, [sp, #12]
87802ff0:	f013 0f80 	tst.w	r3, #128	; 0x80
87802ff4:	9b07      	ldr	r3, [sp, #28]
87802ff6:	bf14      	ite	ne
87802ff8:	2230      	movne	r2, #48	; 0x30
87802ffa:	2220      	moveq	r2, #32
87802ffc:	9300      	str	r3, [sp, #0]
87802ffe:	4643      	mov	r3, r8
87803000:	f7ff fea0 	bl	87802d44 <lcd_showchar>
87803004:	e7e7      	b.n	87802fd6 <lcd_showxnum+0x96>
87803006:	bf00      	nop

87803008 <lcd_show_string>:
87803008:	e92d 4ff0 	stmdb	sp!, {r4, r5, r6, r7, r8, r9, sl, fp, lr}
8780300c:	b085      	sub	sp, #20
8780300e:	440b      	add	r3, r1
87803010:	eb00 0802 	add.w	r8, r0, r2
87803014:	9f0f      	ldr	r7, [sp, #60]	; 0x3c
87803016:	fa1f f983 	uxth.w	r9, r3
8780301a:	f89d 6038 	ldrb.w	r6, [sp, #56]	; 0x38
8780301e:	783a      	ldrb	r2, [r7, #0]
87803020:	f1a2 0320 	sub.w	r3, r2, #32
87803024:	2b5e      	cmp	r3, #94	; 0x5e
87803026:	d821      	bhi.n	8780306c <lcd_show_string+0x64>
87803028:	b2c3      	uxtb	r3, r0
8780302a:	460d      	mov	r5, r1
8780302c:	fa1f f888 	uxth.w	r8, r8
87803030:	4604      	mov	r4, r0
87803032:	ea4f 0b56 	mov.w	fp, r6, lsr #1
87803036:	9303      	str	r3, [sp, #12]
87803038:	f04f 0a00 	mov.w	sl, #0
8780303c:	e00b      	b.n	87803056 <lcd_show_string+0x4e>
8780303e:	f8cd a000 	str.w	sl, [sp]
87803042:	445c      	add	r4, fp
87803044:	f7ff fe7e 	bl	87802d44 <lcd_showchar>
87803048:	f817 2f01 	ldrb.w	r2, [r7, #1]!
8780304c:	b2a4      	uxth	r4, r4
8780304e:	f1a2 0320 	sub.w	r3, r2, #32
87803052:	2b5e      	cmp	r3, #94	; 0x5e
87803054:	d80a      	bhi.n	8780306c <lcd_show_string+0x64>
87803056:	45a0      	cmp	r8, r4
87803058:	eb05 0106 	add.w	r1, r5, r6
8780305c:	4633      	mov	r3, r6
8780305e:	bf9c      	itt	ls
87803060:	b28d      	uxthls	r5, r1
87803062:	9c03      	ldrls	r4, [sp, #12]
87803064:	454d      	cmp	r5, r9
87803066:	4629      	mov	r1, r5
87803068:	4620      	mov	r0, r4
8780306a:	d3e8      	bcc.n	8780303e <lcd_show_string+0x36>
8780306c:	b005      	add	sp, #20
8780306e:	e8bd 8ff0 	ldmia.w	sp!, {r4, r5, r6, r7, r8, r9, sl, fp, pc}
87803072:	bf00      	nop

87803074 <rtc_isleapyear.part.0>:
87803074:	0783      	lsls	r3, r0, #30
87803076:	d10e      	bne.n	87803096 <rtc_isleapyear.part.0+0x22>
87803078:	f248 521f 	movw	r2, #34079	; 0x851f
8780307c:	f2c5 12eb 	movt	r2, #20971	; 0x51eb
87803080:	2164      	movs	r1, #100	; 0x64
87803082:	fba0 2302 	umull	r2, r3, r0, r2
87803086:	095b      	lsrs	r3, r3, #5
87803088:	fb01 0013 	mls	r0, r1, r3, r0
8780308c:	b280      	uxth	r0, r0
8780308e:	3000      	adds	r0, #0
87803090:	bf18      	it	ne
87803092:	2001      	movne	r0, #1
87803094:	4770      	bx	lr
87803096:	2000      	movs	r0, #0
87803098:	4770      	bx	lr
8780309a:	bf00      	nop

8780309c <rtc_init>:
8780309c:	f44f 4340 	mov.w	r3, #49152	; 0xc000
878030a0:	f2c0 230c 	movt	r3, #524	; 0x20c
878030a4:	6859      	ldr	r1, [r3, #4]
878030a6:	461a      	mov	r2, r3
878030a8:	f041 4100 	orr.w	r1, r1, #2147483648	; 0x80000000
878030ac:	f441 7180 	orr.w	r1, r1, #256	; 0x100
878030b0:	6059      	str	r1, [r3, #4]
878030b2:	6b99      	ldr	r1, [r3, #56]	; 0x38
878030b4:	f041 0101 	orr.w	r1, r1, #1
878030b8:	6399      	str	r1, [r3, #56]	; 0x38
878030ba:	6b93      	ldr	r3, [r2, #56]	; 0x38
878030bc:	07db      	lsls	r3, r3, #31
878030be:	d5fc      	bpl.n	878030ba <rtc_init+0x1e>
878030c0:	4770      	bx	lr
878030c2:	bf00      	nop

878030c4 <rtc_enable>:
878030c4:	f44f 4340 	mov.w	r3, #49152	; 0xc000
878030c8:	f2c0 230c 	movt	r3, #524	; 0x20c
878030cc:	6b99      	ldr	r1, [r3, #56]	; 0x38
878030ce:	461a      	mov	r2, r3
878030d0:	f041 0101 	orr.w	r1, r1, #1
878030d4:	6399      	str	r1, [r3, #56]	; 0x38
878030d6:	6b93      	ldr	r3, [r2, #56]	; 0x38
878030d8:	07db      	lsls	r3, r3, #31
878030da:	d5fc      	bpl.n	878030d6 <rtc_enable+0x12>
878030dc:	4770      	bx	lr
878030de:	bf00      	nop

878030e0 <rtc_disable>:
878030e0:	f44f 4340 	mov.w	r3, #49152	; 0xc000
878030e4:	f2c0 230c 	movt	r3, #524	; 0x20c
878030e8:	6b99      	ldr	r1, [r3, #56]	; 0x38
878030ea:	461a      	mov	r2, r3
878030ec:	f021 0101 	bic.w	r1, r1, #1
878030f0:	6399      	str	r1, [r3, #56]	; 0x38
878030f2:	6b93      	ldr	r3, [r2, #56]	; 0x38
878030f4:	07db      	lsls	r3, r3, #31
878030f6:	d4fc      	bmi.n	878030f2 <rtc_disable+0x12>
878030f8:	4770      	bx	lr
878030fa:	bf00      	nop

878030fc <rtc_isleapyear>:
878030fc:	f248 521f 	movw	r2, #34079	; 0x851f
87803100:	f2c5 12eb 	movt	r2, #20971	; 0x51eb
87803104:	b410      	push	{r4}
87803106:	f44f 74c8 	mov.w	r4, #400	; 0x190
8780310a:	fba0 2302 	umull	r2, r3, r0, r2
8780310e:	09db      	lsrs	r3, r3, #7
87803110:	fb04 0313 	mls	r3, r4, r3, r0
87803114:	b29b      	uxth	r3, r3
87803116:	b113      	cbz	r3, 8780311e <rtc_isleapyear+0x22>
87803118:	f85d 4b04 	ldr.w	r4, [sp], #4
8780311c:	e7aa      	b.n	87803074 <rtc_isleapyear.part.0>
8780311e:	2001      	movs	r0, #1
87803120:	f85d 4b04 	ldr.w	r4, [sp], #4
87803124:	4770      	bx	lr
87803126:	bf00      	nop

87803128 <rtc_coverdate_to_seconds>:
87803128:	f8df c0dc 	ldr.w	ip, [pc, #220]	; 87803208 <rtc_coverdate_to_seconds+0xe0>
8780312c:	e92d 47f0 	stmdb	sp!, {r4, r5, r6, r7, r8, r9, sl, lr}
87803130:	44fc      	add	ip, pc
87803132:	4607      	mov	r7, r0
87803134:	8806      	ldrh	r6, [r0, #0]
87803136:	e8bc 000f 	ldmia.w	ip!, {r0, r1, r2, r3}
8780313a:	b088      	sub	sp, #32
8780313c:	ad01      	add	r5, sp, #4
8780313e:	f240 74b2 	movw	r4, #1970	; 0x7b2
87803142:	42a6      	cmp	r6, r4
87803144:	f897 8002 	ldrb.w	r8, [r7, #2]
87803148:	c50f      	stmia	r5!, {r0, r1, r2, r3}
8780314a:	e89c 0007 	ldmia.w	ip, {r0, r1, r2}
8780314e:	c503      	stmia	r5!, {r0, r1}
87803150:	802a      	strh	r2, [r5, #0]
87803152:	d94d      	bls.n	878031f0 <rtc_coverdate_to_seconds+0xc8>
87803154:	f248 591f 	movw	r9, #34079	; 0x851f
87803158:	2500      	movs	r5, #0
8780315a:	f2c5 19eb 	movt	r9, #20971	; 0x51eb
8780315e:	f44f 7ac8 	mov.w	sl, #400	; 0x190
87803162:	e008      	b.n	87803176 <rtc_coverdate_to_seconds+0x4e>
87803164:	f7ff ff86 	bl	87803074 <rtc_isleapyear.part.0>
87803168:	b970      	cbnz	r0, 87803188 <rtc_coverdate_to_seconds+0x60>
8780316a:	3401      	adds	r4, #1
8780316c:	f205 156d 	addw	r5, r5, #365	; 0x16d
87803170:	b2a4      	uxth	r4, r4
87803172:	42b4      	cmp	r4, r6
87803174:	d00e      	beq.n	87803194 <rtc_coverdate_to_seconds+0x6c>
87803176:	fba4 2309 	umull	r2, r3, r4, r9
8780317a:	4620      	mov	r0, r4
8780317c:	09db      	lsrs	r3, r3, #7
8780317e:	fb0a 4313 	mls	r3, sl, r3, r4
87803182:	b29b      	uxth	r3, r3
87803184:	2b00      	cmp	r3, #0
87803186:	d1ed      	bne.n	87803164 <rtc_coverdate_to_seconds+0x3c>
87803188:	3401      	adds	r4, #1
8780318a:	f505 75b7 	add.w	r5, r5, #366	; 0x16e
8780318e:	b2a4      	uxth	r4, r4
87803190:	42b4      	cmp	r4, r6
87803192:	d1f0      	bne.n	87803176 <rtc_coverdate_to_seconds+0x4e>
87803194:	f248 521f 	movw	r2, #34079	; 0x851f
87803198:	f2c5 12eb 	movt	r2, #20971	; 0x51eb
8780319c:	f44f 71c8 	mov.w	r1, #400	; 0x190
878031a0:	a808      	add	r0, sp, #32
878031a2:	fba4 2302 	umull	r2, r3, r4, r2
878031a6:	eb00 0048 	add.w	r0, r0, r8, lsl #1
878031aa:	f830 0c1c 	ldrh.w	r0, [r0, #-28]
878031ae:	4405      	add	r5, r0
878031b0:	09db      	lsrs	r3, r3, #7
878031b2:	fb01 4313 	mls	r3, r1, r3, r4
878031b6:	b29b      	uxth	r3, r3
878031b8:	b9fb      	cbnz	r3, 878031fa <rtc_coverdate_to_seconds+0xd2>
878031ba:	f1b8 0f02 	cmp.w	r8, #2
878031be:	bf88      	it	hi
878031c0:	3501      	addhi	r5, #1
878031c2:	797b      	ldrb	r3, [r7, #5]
878031c4:	f44f 6661 	mov.w	r6, #3600	; 0xe10
878031c8:	793a      	ldrb	r2, [r7, #4]
878031ca:	f44f 41a3 	mov.w	r1, #20864	; 0x5180
878031ce:	78f8      	ldrb	r0, [r7, #3]
878031d0:	f2c0 0101 	movt	r1, #1
878031d4:	ebc3 1303 	rsb	r3, r3, r3, lsl #4
878031d8:	79bc      	ldrb	r4, [r7, #6]
878031da:	3801      	subs	r0, #1
878031dc:	009b      	lsls	r3, r3, #2
878031de:	4405      	add	r5, r0
878031e0:	fb06 3002 	mla	r0, r6, r2, r3
878031e4:	4420      	add	r0, r4
878031e6:	fb01 0005 	mla	r0, r1, r5, r0
878031ea:	b008      	add	sp, #32
878031ec:	e8bd 87f0 	ldmia.w	sp!, {r4, r5, r6, r7, r8, r9, sl, pc}
878031f0:	ab08      	add	r3, sp, #32
878031f2:	eb03 0348 	add.w	r3, r3, r8, lsl #1
878031f6:	f833 5c1c 	ldrh.w	r5, [r3, #-28]
878031fa:	4620      	mov	r0, r4
878031fc:	f7ff ff3a 	bl	87803074 <rtc_isleapyear.part.0>
87803200:	2800      	cmp	r0, #0
87803202:	d1da      	bne.n	878031ba <rtc_coverdate_to_seconds+0x92>
87803204:	e7dd      	b.n	878031c2 <rtc_coverdate_to_seconds+0x9a>
87803206:	bf00      	nop
87803208:	0000562c 	andeq	r5, r0, ip, lsr #12

8780320c <rtc_setdatetime>:
8780320c:	b538      	push	{r3, r4, r5, lr}
8780320e:	f44f 4340 	mov.w	r3, #49152	; 0xc000
87803212:	f2c0 230c 	movt	r3, #524	; 0x20c
87803216:	6b9d      	ldr	r5, [r3, #56]	; 0x38
87803218:	461c      	mov	r4, r3
8780321a:	6b9a      	ldr	r2, [r3, #56]	; 0x38
8780321c:	f022 0201 	bic.w	r2, r2, #1
87803220:	639a      	str	r2, [r3, #56]	; 0x38
87803222:	6ba3      	ldr	r3, [r4, #56]	; 0x38
87803224:	07d9      	lsls	r1, r3, #31
87803226:	d4fc      	bmi.n	87803222 <rtc_setdatetime+0x16>
87803228:	f7ff ff7e 	bl	87803128 <rtc_coverdate_to_seconds>
8780322c:	07ea      	lsls	r2, r5, #31
8780322e:	ea4f 4350 	mov.w	r3, r0, lsr #17
87803232:	ea4f 30c0 	mov.w	r0, r0, lsl #15
87803236:	6523      	str	r3, [r4, #80]	; 0x50
87803238:	6560      	str	r0, [r4, #84]	; 0x54
8780323a:	d50a      	bpl.n	87803252 <rtc_setdatetime+0x46>
8780323c:	6ba3      	ldr	r3, [r4, #56]	; 0x38
8780323e:	f44f 4240 	mov.w	r2, #49152	; 0xc000
87803242:	f2c0 220c 	movt	r2, #524	; 0x20c
87803246:	f043 0301 	orr.w	r3, r3, #1
8780324a:	63a3      	str	r3, [r4, #56]	; 0x38
8780324c:	6b93      	ldr	r3, [r2, #56]	; 0x38
8780324e:	07db      	lsls	r3, r3, #31
87803250:	d5fc      	bpl.n	8780324c <rtc_setdatetime+0x40>
87803252:	bd38      	pop	{r3, r4, r5, pc}

87803254 <rtc_convertseconds_to_datetime>:
87803254:	e92d 4ff0 	stmdb	sp!, {r4, r5, r6, r7, r8, r9, sl, fp, lr}
87803258:	f244 5407 	movw	r4, #17671	; 0x4507
8780325c:	f2cc 242e 	movt	r4, #49710	; 0xc22e
87803260:	f44f 4ea3 	mov.w	lr, #20864	; 0x5180
87803264:	f2c0 0e01 	movt	lr, #1
87803268:	f24b 3ac5 	movw	sl, #46021	; 0xb3c5
8780326c:	fba0 4504 	umull	r4, r5, r0, r4
87803270:	f2c9 1aa2 	movt	sl, #37282	; 0x91a2
87803274:	f44f 6661 	mov.w	r6, #3600	; 0xe10
87803278:	f648 0989 	movw	r9, #34953	; 0x8889
8780327c:	f6c8 0988 	movt	r9, #34952	; 0x8888
87803280:	4688      	mov	r8, r1
87803282:	f240 74b2 	movw	r4, #1970	; 0x7b2
87803286:	800c      	strh	r4, [r1, #0]
87803288:	4b37      	ldr	r3, [pc, #220]	; (87803368 <rtc_convertseconds_to_datetime+0x114>)
8780328a:	223c      	movs	r2, #60	; 0x3c
8780328c:	0c2d      	lsrs	r5, r5, #16
8780328e:	b085      	sub	sp, #20
87803290:	447b      	add	r3, pc
87803292:	fb0e 0015 	mls	r0, lr, r5, r0
87803296:	331c      	adds	r3, #28
87803298:	466f      	mov	r7, sp
8780329a:	3501      	adds	r5, #1
8780329c:	46bc      	mov	ip, r7
8780329e:	fba0 ab0a 	umull	sl, fp, r0, sl
878032a2:	ea4f 2edb 	mov.w	lr, fp, lsr #11
878032a6:	f881 e004 	strb.w	lr, [r1, #4]
878032aa:	f44f 7bc8 	mov.w	fp, #400	; 0x190
878032ae:	fb06 0e1e 	mls	lr, r6, lr, r0
878032b2:	f240 166d 	movw	r6, #365	; 0x16d
878032b6:	46b2      	mov	sl, r6
878032b8:	fbae 0109 	umull	r0, r1, lr, r9
878032bc:	f248 591f 	movw	r9, #34079	; 0x851f
878032c0:	f2c5 19eb 	movt	r9, #20971	; 0x51eb
878032c4:	0949      	lsrs	r1, r1, #5
878032c6:	f888 1005 	strb.w	r1, [r8, #5]
878032ca:	fb02 ee11 	mls	lr, r2, r1, lr
878032ce:	cb0f      	ldmia	r3, {r0, r1, r2, r3}
878032d0:	f888 e006 	strb.w	lr, [r8, #6]
878032d4:	e8ac 0007 	stmia.w	ip!, {r0, r1, r2}
878032d8:	f88c 3000 	strb.w	r3, [ip]
878032dc:	42ae      	cmp	r6, r5
878032de:	f104 0301 	add.w	r3, r4, #1
878032e2:	d216      	bcs.n	87803312 <rtc_convertseconds_to_datetime+0xbe>
878032e4:	b29c      	uxth	r4, r3
878032e6:	1bad      	subs	r5, r5, r6
878032e8:	f8a8 4000 	strh.w	r4, [r8]
878032ec:	f44f 76b7 	mov.w	r6, #366	; 0x16e
878032f0:	fba4 2309 	umull	r2, r3, r4, r9
878032f4:	4620      	mov	r0, r4
878032f6:	09db      	lsrs	r3, r3, #7
878032f8:	fb0b 4313 	mls	r3, fp, r3, r4
878032fc:	b29b      	uxth	r3, r3
878032fe:	2b00      	cmp	r3, #0
87803300:	d0ec      	beq.n	878032dc <rtc_convertseconds_to_datetime+0x88>
87803302:	f7ff feb7 	bl	87803074 <rtc_isleapyear.part.0>
87803306:	1c63      	adds	r3, r4, #1
87803308:	2800      	cmp	r0, #0
8780330a:	bf08      	it	eq
8780330c:	4656      	moveq	r6, sl
8780330e:	42ae      	cmp	r6, r5
87803310:	d3e8      	bcc.n	878032e4 <rtc_convertseconds_to_datetime+0x90>
87803312:	f248 521f 	movw	r2, #34079	; 0x851f
87803316:	f2c5 12eb 	movt	r2, #20971	; 0x51eb
8780331a:	f44f 71c8 	mov.w	r1, #400	; 0x190
8780331e:	fba4 2302 	umull	r2, r3, r4, r2
87803322:	09db      	lsrs	r3, r3, #7
87803324:	fb01 4313 	mls	r3, r1, r3, r4
87803328:	b29b      	uxth	r3, r3
8780332a:	b18b      	cbz	r3, 87803350 <rtc_convertseconds_to_datetime+0xfc>
8780332c:	4620      	mov	r0, r4
8780332e:	f7ff fea1 	bl	87803074 <rtc_isleapyear.part.0>
87803332:	b968      	cbnz	r0, 87803350 <rtc_convertseconds_to_datetime+0xfc>
87803334:	2301      	movs	r3, #1
87803336:	f817 2f01 	ldrb.w	r2, [r7, #1]!
8780333a:	42aa      	cmp	r2, r5
8780333c:	d20c      	bcs.n	87803358 <rtc_convertseconds_to_datetime+0x104>
8780333e:	3301      	adds	r3, #1
87803340:	1aad      	subs	r5, r5, r2
87803342:	2b0d      	cmp	r3, #13
87803344:	d1f7      	bne.n	87803336 <rtc_convertseconds_to_datetime+0xe2>
87803346:	f888 5003 	strb.w	r5, [r8, #3]
8780334a:	b005      	add	sp, #20
8780334c:	e8bd 8ff0 	ldmia.w	sp!, {r4, r5, r6, r7, r8, r9, sl, fp, pc}
87803350:	231d      	movs	r3, #29
87803352:	f88d 3002 	strb.w	r3, [sp, #2]
87803356:	e7ed      	b.n	87803334 <rtc_convertseconds_to_datetime+0xe0>
87803358:	f888 3002 	strb.w	r3, [r8, #2]
8780335c:	f888 5003 	strb.w	r5, [r8, #3]
87803360:	b005      	add	sp, #20
87803362:	e8bd 8ff0 	ldmia.w	sp!, {r4, r5, r6, r7, r8, r9, sl, fp, pc}
87803366:	bf00      	nop
87803368:	000054cc 	andeq	r5, r0, ip, asr #9

8780336c <rtc_getseconds>:
8780336c:	f44f 4340 	mov.w	r3, #49152	; 0xc000
87803370:	f2c0 230c 	movt	r3, #524	; 0x20c
87803374:	6d18      	ldr	r0, [r3, #80]	; 0x50
87803376:	6d5b      	ldr	r3, [r3, #84]	; 0x54
87803378:	0bdb      	lsrs	r3, r3, #15
8780337a:	ea43 4040 	orr.w	r0, r3, r0, lsl #17
8780337e:	4770      	bx	lr

87803380 <rtc_getdatetime>:
87803380:	f44f 4340 	mov.w	r3, #49152	; 0xc000
87803384:	f2c0 230c 	movt	r3, #524	; 0x20c
87803388:	4601      	mov	r1, r0
8780338a:	6d18      	ldr	r0, [r3, #80]	; 0x50
8780338c:	6d5b      	ldr	r3, [r3, #84]	; 0x54
8780338e:	0bdb      	lsrs	r3, r3, #15
87803390:	ea43 4040 	orr.w	r0, r3, r0, lsl #17
87803394:	f7ff bf5e 	b.w	87803254 <rtc_convertseconds_to_datetime>

87803398 <i2c_check_and_clear_error.part.1>:
87803398:	4602      	mov	r2, r0
8780339a:	2004      	movs	r0, #4
8780339c:	8993      	ldrh	r3, [r2, #12]
8780339e:	f023 0310 	bic.w	r3, r3, #16
878033a2:	041b      	lsls	r3, r3, #16
878033a4:	0c1b      	lsrs	r3, r3, #16
878033a6:	8193      	strh	r3, [r2, #12]
878033a8:	8913      	ldrh	r3, [r2, #8]
878033aa:	f023 0380 	bic.w	r3, r3, #128	; 0x80
878033ae:	041b      	lsls	r3, r3, #16
878033b0:	0c1b      	lsrs	r3, r3, #16
878033b2:	8113      	strh	r3, [r2, #8]
878033b4:	8913      	ldrh	r3, [r2, #8]
878033b6:	b29b      	uxth	r3, r3
878033b8:	f043 0380 	orr.w	r3, r3, #128	; 0x80
878033bc:	8113      	strh	r3, [r2, #8]
878033be:	4770      	bx	lr

878033c0 <i2c_init>:
878033c0:	8903      	ldrh	r3, [r0, #8]
878033c2:	2215      	movs	r2, #21
878033c4:	f023 0380 	bic.w	r3, r3, #128	; 0x80
878033c8:	041b      	lsls	r3, r3, #16
878033ca:	0c1b      	lsrs	r3, r3, #16
878033cc:	8103      	strh	r3, [r0, #8]
878033ce:	8082      	strh	r2, [r0, #4]
878033d0:	8903      	ldrh	r3, [r0, #8]
878033d2:	b29b      	uxth	r3, r3
878033d4:	f043 0380 	orr.w	r3, r3, #128	; 0x80
878033d8:	8103      	strh	r3, [r0, #8]
878033da:	4770      	bx	lr

878033dc <i2c_master_repeated_start>:
878033dc:	4603      	mov	r3, r0
878033de:	8980      	ldrh	r0, [r0, #12]
878033e0:	0680      	lsls	r0, r0, #26
878033e2:	d502      	bpl.n	878033ea <i2c_master_repeated_start+0xe>
878033e4:	8918      	ldrh	r0, [r3, #8]
878033e6:	0680      	lsls	r0, r0, #26
878033e8:	d511      	bpl.n	8780340e <i2c_master_repeated_start+0x32>
878033ea:	f1a2 0201 	sub.w	r2, r2, #1
878033ee:	2000      	movs	r0, #0
878033f0:	b410      	push	{r4}
878033f2:	fab2 f282 	clz	r2, r2
878033f6:	891c      	ldrh	r4, [r3, #8]
878033f8:	0952      	lsrs	r2, r2, #5
878033fa:	ea42 0141 	orr.w	r1, r2, r1, lsl #1
878033fe:	b2a2      	uxth	r2, r4
87803400:	f85d 4b04 	ldr.w	r4, [sp], #4
87803404:	f042 0214 	orr.w	r2, r2, #20
87803408:	811a      	strh	r2, [r3, #8]
8780340a:	8219      	strh	r1, [r3, #16]
8780340c:	4770      	bx	lr
8780340e:	2001      	movs	r0, #1
87803410:	4770      	bx	lr
87803412:	bf00      	nop

87803414 <i2c_master_start>:
87803414:	8983      	ldrh	r3, [r0, #12]
87803416:	f013 0320 	ands.w	r3, r3, #32
8780341a:	d110      	bne.n	8780343e <i2c_master_start+0x2a>
8780341c:	b410      	push	{r4}
8780341e:	0049      	lsls	r1, r1, #1
87803420:	8904      	ldrh	r4, [r0, #8]
87803422:	2a01      	cmp	r2, #1
87803424:	bf14      	ite	ne
87803426:	460a      	movne	r2, r1
87803428:	f041 0201 	orreq.w	r2, r1, #1
8780342c:	b2a1      	uxth	r1, r4
8780342e:	f85d 4b04 	ldr.w	r4, [sp], #4
87803432:	f041 0130 	orr.w	r1, r1, #48	; 0x30
87803436:	8101      	strh	r1, [r0, #8]
87803438:	8202      	strh	r2, [r0, #16]
8780343a:	4618      	mov	r0, r3
8780343c:	4770      	bx	lr
8780343e:	2301      	movs	r3, #1
87803440:	4618      	mov	r0, r3
87803442:	4770      	bx	lr

87803444 <i2c_check_and_clear_error>:
87803444:	06cb      	lsls	r3, r1, #27
87803446:	d405      	bmi.n	87803454 <i2c_check_and_clear_error+0x10>
87803448:	f011 0f01 	tst.w	r1, #1
8780344c:	bf14      	ite	ne
8780344e:	2003      	movne	r0, #3
87803450:	2000      	moveq	r0, #0
87803452:	4770      	bx	lr
87803454:	e7a0      	b.n	87803398 <i2c_check_and_clear_error.part.1>
87803456:	bf00      	nop

87803458 <i2c_master_stop>:
87803458:	8902      	ldrh	r2, [r0, #8]
8780345a:	f64f 73ff 	movw	r3, #65535	; 0xffff
8780345e:	f022 0238 	bic.w	r2, r2, #56	; 0x38
87803462:	0412      	lsls	r2, r2, #16
87803464:	0c12      	lsrs	r2, r2, #16
87803466:	8102      	strh	r2, [r0, #8]
87803468:	e000      	b.n	8780346c <i2c_master_stop+0x14>
8780346a:	b13b      	cbz	r3, 8780347c <i2c_master_stop+0x24>
8780346c:	8982      	ldrh	r2, [r0, #12]
8780346e:	3b01      	subs	r3, #1
87803470:	f012 0220 	ands.w	r2, r2, #32
87803474:	b29b      	uxth	r3, r3
87803476:	d1f8      	bne.n	8780346a <i2c_master_stop+0x12>
87803478:	4610      	mov	r0, r2
8780347a:	4770      	bx	lr
8780347c:	2005      	movs	r0, #5
8780347e:	4770      	bx	lr

87803480 <i2c_master_write>:
87803480:	b538      	push	{r3, r4, r5, lr}
87803482:	4604      	mov	r4, r0
87803484:	89a3      	ldrh	r3, [r4, #12]
87803486:	061d      	lsls	r5, r3, #24
87803488:	d5fc      	bpl.n	87803484 <i2c_master_write+0x4>
8780348a:	89a3      	ldrh	r3, [r4, #12]
8780348c:	188d      	adds	r5, r1, r2
8780348e:	f023 0302 	bic.w	r3, r3, #2
87803492:	041b      	lsls	r3, r3, #16
87803494:	0c1b      	lsrs	r3, r3, #16
87803496:	81a3      	strh	r3, [r4, #12]
87803498:	8923      	ldrh	r3, [r4, #8]
8780349a:	b29b      	uxth	r3, r3
8780349c:	f043 0310 	orr.w	r3, r3, #16
878034a0:	8123      	strh	r3, [r4, #8]
878034a2:	42a9      	cmp	r1, r5
878034a4:	d011      	beq.n	878034ca <i2c_master_write+0x4a>
878034a6:	f811 3b01 	ldrb.w	r3, [r1], #1
878034aa:	8223      	strh	r3, [r4, #16]
878034ac:	89a3      	ldrh	r3, [r4, #12]
878034ae:	0798      	lsls	r0, r3, #30
878034b0:	d5fc      	bpl.n	878034ac <i2c_master_write+0x2c>
878034b2:	89a3      	ldrh	r3, [r4, #12]
878034b4:	f023 0302 	bic.w	r3, r3, #2
878034b8:	041b      	lsls	r3, r3, #16
878034ba:	0c1b      	lsrs	r3, r3, #16
878034bc:	81a3      	strh	r3, [r4, #12]
878034be:	89a3      	ldrh	r3, [r4, #12]
878034c0:	b29b      	uxth	r3, r3
878034c2:	06da      	lsls	r2, r3, #27
878034c4:	d418      	bmi.n	878034f8 <i2c_master_write+0x78>
878034c6:	07db      	lsls	r3, r3, #31
878034c8:	d5eb      	bpl.n	878034a2 <i2c_master_write+0x22>
878034ca:	89a2      	ldrh	r2, [r4, #12]
878034cc:	f64f 73ff 	movw	r3, #65535	; 0xffff
878034d0:	f022 0202 	bic.w	r2, r2, #2
878034d4:	0412      	lsls	r2, r2, #16
878034d6:	0c12      	lsrs	r2, r2, #16
878034d8:	81a2      	strh	r2, [r4, #12]
878034da:	8922      	ldrh	r2, [r4, #8]
878034dc:	f022 0238 	bic.w	r2, r2, #56	; 0x38
878034e0:	0412      	lsls	r2, r2, #16
878034e2:	0c12      	lsrs	r2, r2, #16
878034e4:	8122      	strh	r2, [r4, #8]
878034e6:	e000      	b.n	878034ea <i2c_master_write+0x6a>
878034e8:	b12b      	cbz	r3, 878034f6 <i2c_master_write+0x76>
878034ea:	89a2      	ldrh	r2, [r4, #12]
878034ec:	3b01      	subs	r3, #1
878034ee:	f012 0f20 	tst.w	r2, #32
878034f2:	b29b      	uxth	r3, r3
878034f4:	d1f8      	bne.n	878034e8 <i2c_master_write+0x68>
878034f6:	bd38      	pop	{r3, r4, r5, pc}
878034f8:	4620      	mov	r0, r4
878034fa:	f7ff ff4d 	bl	87803398 <i2c_check_and_clear_error.part.1>
878034fe:	2800      	cmp	r0, #0
87803500:	d0cf      	beq.n	878034a2 <i2c_master_write+0x22>
87803502:	e7e2      	b.n	878034ca <i2c_master_write+0x4a>

87803504 <i2c_master_read>:
87803504:	b430      	push	{r4, r5}
87803506:	b082      	sub	sp, #8
87803508:	2300      	movs	r3, #0
8780350a:	f88d 3007 	strb.w	r3, [sp, #7]
8780350e:	f89d 3007 	ldrb.w	r3, [sp, #7]
87803512:	3301      	adds	r3, #1
87803514:	b2db      	uxtb	r3, r3
87803516:	f88d 3007 	strb.w	r3, [sp, #7]
8780351a:	8983      	ldrh	r3, [r0, #12]
8780351c:	061c      	lsls	r4, r3, #24
8780351e:	d5fc      	bpl.n	8780351a <i2c_master_read+0x16>
87803520:	8983      	ldrh	r3, [r0, #12]
87803522:	2a01      	cmp	r2, #1
87803524:	f102 35ff 	add.w	r5, r2, #4294967295	; 0xffffffff
87803528:	f023 0302 	bic.w	r3, r3, #2
8780352c:	ea4f 4303 	mov.w	r3, r3, lsl #16
87803530:	ea4f 4313 	mov.w	r3, r3, lsr #16
87803534:	8183      	strh	r3, [r0, #12]
87803536:	8903      	ldrh	r3, [r0, #8]
87803538:	f023 0318 	bic.w	r3, r3, #24
8780353c:	ea4f 4303 	mov.w	r3, r3, lsl #16
87803540:	ea4f 4313 	mov.w	r3, r3, lsr #16
87803544:	8103      	strh	r3, [r0, #8]
87803546:	d02c      	beq.n	878035a2 <i2c_master_read+0x9e>
87803548:	8a03      	ldrh	r3, [r0, #16]
8780354a:	b2db      	uxtb	r3, r3
8780354c:	f88d 3007 	strb.w	r3, [sp, #7]
87803550:	b322      	cbz	r2, 8780359c <i2c_master_read+0x98>
87803552:	462a      	mov	r2, r5
87803554:	460c      	mov	r4, r1
87803556:	8983      	ldrh	r3, [r0, #12]
87803558:	079b      	lsls	r3, r3, #30
8780355a:	d5fc      	bpl.n	87803556 <i2c_master_read+0x52>
8780355c:	8983      	ldrh	r3, [r0, #12]
8780355e:	f023 0302 	bic.w	r3, r3, #2
87803562:	041b      	lsls	r3, r3, #16
87803564:	0c1b      	lsrs	r3, r3, #16
87803566:	8183      	strh	r3, [r0, #12]
87803568:	b132      	cbz	r2, 87803578 <i2c_master_read+0x74>
8780356a:	2a01      	cmp	r2, #1
8780356c:	d023      	beq.n	878035b6 <i2c_master_read+0xb2>
8780356e:	8a03      	ldrh	r3, [r0, #16]
87803570:	3a01      	subs	r2, #1
87803572:	f804 3b01 	strb.w	r3, [r4], #1
87803576:	e7ee      	b.n	87803556 <i2c_master_read+0x52>
87803578:	8902      	ldrh	r2, [r0, #8]
8780357a:	f64f 73ff 	movw	r3, #65535	; 0xffff
8780357e:	f022 0238 	bic.w	r2, r2, #56	; 0x38
87803582:	0412      	lsls	r2, r2, #16
87803584:	0c12      	lsrs	r2, r2, #16
87803586:	8102      	strh	r2, [r0, #8]
87803588:	e000      	b.n	8780358c <i2c_master_read+0x88>
8780358a:	b12b      	cbz	r3, 87803598 <i2c_master_read+0x94>
8780358c:	8982      	ldrh	r2, [r0, #12]
8780358e:	3b01      	subs	r3, #1
87803590:	f012 0f20 	tst.w	r2, #32
87803594:	b29b      	uxth	r3, r3
87803596:	d1f8      	bne.n	8780358a <i2c_master_read+0x86>
87803598:	8a03      	ldrh	r3, [r0, #16]
8780359a:	554b      	strb	r3, [r1, r5]
8780359c:	b002      	add	sp, #8
8780359e:	bc30      	pop	{r4, r5}
878035a0:	4770      	bx	lr
878035a2:	8903      	ldrh	r3, [r0, #8]
878035a4:	b29b      	uxth	r3, r3
878035a6:	f043 0308 	orr.w	r3, r3, #8
878035aa:	8103      	strh	r3, [r0, #8]
878035ac:	8a03      	ldrh	r3, [r0, #16]
878035ae:	b2db      	uxtb	r3, r3
878035b0:	f88d 3007 	strb.w	r3, [sp, #7]
878035b4:	e7cd      	b.n	87803552 <i2c_master_read+0x4e>
878035b6:	8903      	ldrh	r3, [r0, #8]
878035b8:	b29b      	uxth	r3, r3
878035ba:	f043 0308 	orr.w	r3, r3, #8
878035be:	8103      	strh	r3, [r0, #8]
878035c0:	e7d5      	b.n	8780356e <i2c_master_read+0x6a>
878035c2:	bf00      	nop

878035c4 <i2c_master_transfer>:
878035c4:	b538      	push	{r3, r4, r5, lr}
878035c6:	8983      	ldrh	r3, [r0, #12]
878035c8:	684c      	ldr	r4, [r1, #4]
878035ca:	f023 0312 	bic.w	r3, r3, #18
878035ce:	041b      	lsls	r3, r3, #16
878035d0:	0c1b      	lsrs	r3, r3, #16
878035d2:	8183      	strh	r3, [r0, #12]
878035d4:	8983      	ldrh	r3, [r0, #12]
878035d6:	061b      	lsls	r3, r3, #24
878035d8:	d5fc      	bpl.n	878035d4 <i2c_master_transfer+0x10>
878035da:	7b0a      	ldrb	r2, [r1, #12]
878035dc:	780b      	ldrb	r3, [r1, #0]
878035de:	b922      	cbnz	r2, 878035ea <i2c_master_transfer+0x26>
878035e0:	8985      	ldrh	r5, [r0, #12]
878035e2:	06ad      	lsls	r5, r5, #26
878035e4:	d529      	bpl.n	8780363a <i2c_master_transfer+0x76>
878035e6:	2001      	movs	r0, #1
878035e8:	bd38      	pop	{r3, r4, r5, pc}
878035ea:	8984      	ldrh	r4, [r0, #12]
878035ec:	06a4      	lsls	r4, r4, #26
878035ee:	d4fa      	bmi.n	878035e6 <i2c_master_transfer+0x22>
878035f0:	8904      	ldrh	r4, [r0, #8]
878035f2:	005b      	lsls	r3, r3, #1
878035f4:	b2a4      	uxth	r4, r4
878035f6:	f044 0430 	orr.w	r4, r4, #48	; 0x30
878035fa:	8104      	strh	r4, [r0, #8]
878035fc:	8203      	strh	r3, [r0, #16]
878035fe:	8983      	ldrh	r3, [r0, #12]
87803600:	079c      	lsls	r4, r3, #30
87803602:	d5fc      	bpl.n	878035fe <i2c_master_transfer+0x3a>
87803604:	8983      	ldrh	r3, [r0, #12]
87803606:	4604      	mov	r4, r0
87803608:	460d      	mov	r5, r1
8780360a:	b29b      	uxth	r3, r3
8780360c:	06d8      	lsls	r0, r3, #27
8780360e:	d41f      	bmi.n	87803650 <i2c_master_transfer+0x8c>
87803610:	07d9      	lsls	r1, r3, #31
87803612:	d523      	bpl.n	8780365c <i2c_master_transfer+0x98>
87803614:	2003      	movs	r0, #3
87803616:	8922      	ldrh	r2, [r4, #8]
87803618:	f64f 73ff 	movw	r3, #65535	; 0xffff
8780361c:	f022 0238 	bic.w	r2, r2, #56	; 0x38
87803620:	0412      	lsls	r2, r2, #16
87803622:	0c12      	lsrs	r2, r2, #16
87803624:	8122      	strh	r2, [r4, #8]
87803626:	e001      	b.n	8780362c <i2c_master_transfer+0x68>
87803628:	2b00      	cmp	r3, #0
8780362a:	d0dd      	beq.n	878035e8 <i2c_master_transfer+0x24>
8780362c:	89a2      	ldrh	r2, [r4, #12]
8780362e:	3b01      	subs	r3, #1
87803630:	f012 0f20 	tst.w	r2, #32
87803634:	b29b      	uxth	r3, r3
87803636:	d1f7      	bne.n	87803628 <i2c_master_transfer+0x64>
87803638:	bd38      	pop	{r3, r4, r5, pc}
8780363a:	8905      	ldrh	r5, [r0, #8]
8780363c:	005b      	lsls	r3, r3, #1
8780363e:	2c01      	cmp	r4, #1
87803640:	bf08      	it	eq
87803642:	f043 0301 	orreq.w	r3, r3, #1
87803646:	b2ac      	uxth	r4, r5
87803648:	f044 0430 	orr.w	r4, r4, #48	; 0x30
8780364c:	8104      	strh	r4, [r0, #8]
8780364e:	e7d5      	b.n	878035fc <i2c_master_transfer+0x38>
87803650:	4620      	mov	r0, r4
87803652:	f7ff fea1 	bl	87803398 <i2c_check_and_clear_error.part.1>
87803656:	2800      	cmp	r0, #0
87803658:	d1dd      	bne.n	87803616 <i2c_master_transfer+0x52>
8780365a:	7b0a      	ldrb	r2, [r1, #12]
8780365c:	b33a      	cbz	r2, 878036ae <i2c_master_transfer+0xea>
8780365e:	68a8      	ldr	r0, [r5, #8]
87803660:	3a01      	subs	r2, #1
87803662:	89a3      	ldrh	r3, [r4, #12]
87803664:	b2d2      	uxtb	r2, r2
87803666:	f023 0302 	bic.w	r3, r3, #2
8780366a:	00d1      	lsls	r1, r2, #3
8780366c:	041b      	lsls	r3, r3, #16
8780366e:	fa20 f101 	lsr.w	r1, r0, r1
87803672:	0c1b      	lsrs	r3, r3, #16
87803674:	81a3      	strh	r3, [r4, #12]
87803676:	b28b      	uxth	r3, r1
87803678:	732a      	strb	r2, [r5, #12]
8780367a:	8223      	strh	r3, [r4, #16]
8780367c:	89a3      	ldrh	r3, [r4, #12]
8780367e:	079b      	lsls	r3, r3, #30
87803680:	d5fc      	bpl.n	8780367c <i2c_master_transfer+0xb8>
87803682:	89a3      	ldrh	r3, [r4, #12]
87803684:	b29b      	uxth	r3, r3
87803686:	06d9      	lsls	r1, r3, #27
87803688:	d41f      	bmi.n	878036ca <i2c_master_transfer+0x106>
8780368a:	07d9      	lsls	r1, r3, #31
8780368c:	d425      	bmi.n	878036da <i2c_master_transfer+0x116>
8780368e:	2a00      	cmp	r2, #0
87803690:	d1e6      	bne.n	87803660 <i2c_master_transfer+0x9c>
87803692:	686b      	ldr	r3, [r5, #4]
87803694:	2b01      	cmp	r3, #1
87803696:	d03b      	beq.n	87803710 <i2c_master_transfer+0x14c>
87803698:	b913      	cbnz	r3, 878036a0 <i2c_master_transfer+0xdc>
8780369a:	696b      	ldr	r3, [r5, #20]
8780369c:	2b00      	cmp	r3, #0
8780369e:	d130      	bne.n	87803702 <i2c_master_transfer+0x13e>
878036a0:	2000      	movs	r0, #0
878036a2:	bd38      	pop	{r3, r4, r5, pc}
878036a4:	4620      	mov	r0, r4
878036a6:	f7ff fe77 	bl	87803398 <i2c_check_and_clear_error.part.1>
878036aa:	2800      	cmp	r0, #0
878036ac:	d14f      	bne.n	8780374e <i2c_master_transfer+0x18a>
878036ae:	686b      	ldr	r3, [r5, #4]
878036b0:	2b00      	cmp	r3, #0
878036b2:	d0f2      	beq.n	8780369a <i2c_master_transfer+0xd6>
878036b4:	2b01      	cmp	r3, #1
878036b6:	d1f3      	bne.n	878036a0 <i2c_master_transfer+0xdc>
878036b8:	696b      	ldr	r3, [r5, #20]
878036ba:	2b00      	cmp	r3, #0
878036bc:	d0f0      	beq.n	878036a0 <i2c_master_transfer+0xdc>
878036be:	6929      	ldr	r1, [r5, #16]
878036c0:	4620      	mov	r0, r4
878036c2:	696a      	ldr	r2, [r5, #20]
878036c4:	f7ff ff1e 	bl	87803504 <i2c_master_read>
878036c8:	e7ea      	b.n	878036a0 <i2c_master_transfer+0xdc>
878036ca:	4620      	mov	r0, r4
878036cc:	f7ff fe64 	bl	87803398 <i2c_check_and_clear_error.part.1>
878036d0:	b920      	cbnz	r0, 878036dc <i2c_master_transfer+0x118>
878036d2:	7b2a      	ldrb	r2, [r5, #12]
878036d4:	2a00      	cmp	r2, #0
878036d6:	d1c2      	bne.n	8780365e <i2c_master_transfer+0x9a>
878036d8:	e7db      	b.n	87803692 <i2c_master_transfer+0xce>
878036da:	2003      	movs	r0, #3
878036dc:	8922      	ldrh	r2, [r4, #8]
878036de:	f64f 73ff 	movw	r3, #65535	; 0xffff
878036e2:	f022 0238 	bic.w	r2, r2, #56	; 0x38
878036e6:	0412      	lsls	r2, r2, #16
878036e8:	0c12      	lsrs	r2, r2, #16
878036ea:	8122      	strh	r2, [r4, #8]
878036ec:	e002      	b.n	878036f4 <i2c_master_transfer+0x130>
878036ee:	2b00      	cmp	r3, #0
878036f0:	f43f af7a 	beq.w	878035e8 <i2c_master_transfer+0x24>
878036f4:	89a2      	ldrh	r2, [r4, #12]
878036f6:	3b01      	subs	r3, #1
878036f8:	f012 0f20 	tst.w	r2, #32
878036fc:	b29b      	uxth	r3, r3
878036fe:	d1f6      	bne.n	878036ee <i2c_master_transfer+0x12a>
87803700:	bd38      	pop	{r3, r4, r5, pc}
87803702:	6929      	ldr	r1, [r5, #16]
87803704:	4620      	mov	r0, r4
87803706:	696a      	ldr	r2, [r5, #20]
87803708:	f7ff feba 	bl	87803480 <i2c_master_write>
8780370c:	686b      	ldr	r3, [r5, #4]
8780370e:	e7d1      	b.n	878036b4 <i2c_master_transfer+0xf0>
87803710:	89a3      	ldrh	r3, [r4, #12]
87803712:	f023 0302 	bic.w	r3, r3, #2
87803716:	041b      	lsls	r3, r3, #16
87803718:	0c1b      	lsrs	r3, r3, #16
8780371a:	81a3      	strh	r3, [r4, #12]
8780371c:	89a3      	ldrh	r3, [r4, #12]
8780371e:	069b      	lsls	r3, r3, #26
87803720:	d502      	bpl.n	87803728 <i2c_master_transfer+0x164>
87803722:	8923      	ldrh	r3, [r4, #8]
87803724:	0698      	lsls	r0, r3, #26
87803726:	d509      	bpl.n	8780373c <i2c_master_transfer+0x178>
87803728:	8922      	ldrh	r2, [r4, #8]
8780372a:	782b      	ldrb	r3, [r5, #0]
8780372c:	b292      	uxth	r2, r2
8780372e:	005b      	lsls	r3, r3, #1
87803730:	f042 0214 	orr.w	r2, r2, #20
87803734:	f043 0301 	orr.w	r3, r3, #1
87803738:	8122      	strh	r2, [r4, #8]
8780373a:	8223      	strh	r3, [r4, #16]
8780373c:	89a3      	ldrh	r3, [r4, #12]
8780373e:	0799      	lsls	r1, r3, #30
87803740:	d5fc      	bpl.n	8780373c <i2c_master_transfer+0x178>
87803742:	89a3      	ldrh	r3, [r4, #12]
87803744:	b29b      	uxth	r3, r3
87803746:	06da      	lsls	r2, r3, #27
87803748:	d4ac      	bmi.n	878036a4 <i2c_master_transfer+0xe0>
8780374a:	07db      	lsls	r3, r3, #31
8780374c:	d5b4      	bpl.n	878036b8 <i2c_master_transfer+0xf4>
8780374e:	8922      	ldrh	r2, [r4, #8]
87803750:	f64f 73ff 	movw	r3, #65535	; 0xffff
87803754:	f022 0238 	bic.w	r2, r2, #56	; 0x38
87803758:	0412      	lsls	r2, r2, #16
8780375a:	0c12      	lsrs	r2, r2, #16
8780375c:	8122      	strh	r2, [r4, #8]
8780375e:	e000      	b.n	87803762 <i2c_master_transfer+0x19e>
87803760:	b12b      	cbz	r3, 8780376e <i2c_master_transfer+0x1aa>
87803762:	89a2      	ldrh	r2, [r4, #12]
87803764:	3b01      	subs	r3, #1
87803766:	f012 0f20 	tst.w	r2, #32
8780376a:	b29b      	uxth	r3, r3
8780376c:	d1f8      	bne.n	87803760 <i2c_master_transfer+0x19c>
8780376e:	2006      	movs	r0, #6
87803770:	bd38      	pop	{r3, r4, r5, pc}
87803772:	bf00      	nop

87803774 <ap3216c_writeonebyte>:
87803774:	b500      	push	{lr}
87803776:	b089      	sub	sp, #36	; 0x24
87803778:	f10d 0307 	add.w	r3, sp, #7
8780377c:	f88d 0008 	strb.w	r0, [sp, #8]
87803780:	2000      	movs	r0, #0
87803782:	9104      	str	r1, [sp, #16]
87803784:	f2c0 201a 	movt	r0, #538	; 0x21a
87803788:	a902      	add	r1, sp, #8
8780378a:	9306      	str	r3, [sp, #24]
8780378c:	f88d 2007 	strb.w	r2, [sp, #7]
87803790:	2301      	movs	r3, #1
87803792:	2200      	movs	r2, #0
87803794:	f88d 3014 	strb.w	r3, [sp, #20]
87803798:	9203      	str	r2, [sp, #12]
8780379a:	9307      	str	r3, [sp, #28]
8780379c:	f7ff ff12 	bl	878035c4 <i2c_master_transfer>
878037a0:	3000      	adds	r0, #0
878037a2:	bf18      	it	ne
878037a4:	2001      	movne	r0, #1
878037a6:	b009      	add	sp, #36	; 0x24
878037a8:	f85d fb04 	ldr.w	pc, [sp], #4

878037ac <ap3216c_init>:
878037ac:	b570      	push	{r4, r5, r6, lr}
878037ae:	20b8      	movs	r0, #184	; 0xb8
878037b0:	24b4      	movs	r4, #180	; 0xb4
878037b2:	f2c0 200e 	movt	r0, #526	; 0x20e
878037b6:	f2c0 240e 	movt	r4, #526	; 0x20e
878037ba:	f240 56a4 	movw	r6, #1444	; 0x5a4
878037be:	f2c0 260e 	movt	r6, #526	; 0x20e
878037c2:	2512      	movs	r5, #18
878037c4:	f44f 62b5 	mov.w	r2, #1448	; 0x5a8
878037c8:	6025      	str	r5, [r4, #0]
878037ca:	f2c0 220e 	movt	r2, #526	; 0x20e
878037ce:	2401      	movs	r4, #1
878037d0:	f44f 7150 	mov.w	r1, #832	; 0x340
878037d4:	6034      	str	r4, [r6, #0]
878037d6:	f2c0 210e 	movt	r1, #526	; 0x20e
878037da:	6005      	str	r5, [r0, #0]
878037dc:	f44f 7351 	mov.w	r3, #836	; 0x344
878037e0:	2500      	movs	r5, #0
878037e2:	f2c0 230e 	movt	r3, #526	; 0x20e
878037e6:	f2c0 251a 	movt	r5, #538	; 0x21a
878037ea:	b088      	sub	sp, #32
878037ec:	2002      	movs	r0, #2
878037ee:	6010      	str	r0, [r2, #0]
878037f0:	f247 02b0 	movw	r2, #28848	; 0x70b0
878037f4:	4628      	mov	r0, r5
878037f6:	600a      	str	r2, [r1, #0]
878037f8:	601a      	str	r2, [r3, #0]
878037fa:	f7ff fde1 	bl	878033c0 <i2c_init>
878037fe:	2204      	movs	r2, #4
87803800:	2100      	movs	r1, #0
87803802:	201e      	movs	r0, #30
87803804:	f7ff ffb6 	bl	87803774 <ap3216c_writeonebyte>
87803808:	2032      	movs	r0, #50	; 0x32
8780380a:	f7fe fa57 	bl	87801cbc <delayms>
8780380e:	2203      	movs	r2, #3
87803810:	2100      	movs	r1, #0
87803812:	201e      	movs	r0, #30
87803814:	f7ff ffae 	bl	87803774 <ap3216c_writeonebyte>
87803818:	4628      	mov	r0, r5
8780381a:	a902      	add	r1, sp, #8
8780381c:	2200      	movs	r2, #0
8780381e:	f10d 0307 	add.w	r3, sp, #7
87803822:	9403      	str	r4, [sp, #12]
87803824:	9306      	str	r3, [sp, #24]
87803826:	231e      	movs	r3, #30
87803828:	f88d 4014 	strb.w	r4, [sp, #20]
8780382c:	f88d 2007 	strb.w	r2, [sp, #7]
87803830:	9407      	str	r4, [sp, #28]
87803832:	9204      	str	r2, [sp, #16]
87803834:	f88d 3008 	strb.w	r3, [sp, #8]
87803838:	f7ff fec4 	bl	878035c4 <i2c_master_transfer>
8780383c:	f89d 0007 	ldrb.w	r0, [sp, #7]
87803840:	3803      	subs	r0, #3
87803842:	bf18      	it	ne
87803844:	2001      	movne	r0, #1
87803846:	b008      	add	sp, #32
87803848:	bd70      	pop	{r4, r5, r6, pc}
8780384a:	bf00      	nop

8780384c <ap3216c_readonebyte>:
8780384c:	b500      	push	{lr}
8780384e:	b089      	sub	sp, #36	; 0x24
87803850:	2200      	movs	r2, #0
87803852:	f10d 0307 	add.w	r3, sp, #7
87803856:	f88d 0008 	strb.w	r0, [sp, #8]
8780385a:	2000      	movs	r0, #0
8780385c:	9104      	str	r1, [sp, #16]
8780385e:	f2c0 201a 	movt	r0, #538	; 0x21a
87803862:	a902      	add	r1, sp, #8
87803864:	9306      	str	r3, [sp, #24]
87803866:	f88d 2007 	strb.w	r2, [sp, #7]
8780386a:	2301      	movs	r3, #1
8780386c:	9303      	str	r3, [sp, #12]
8780386e:	f88d 3014 	strb.w	r3, [sp, #20]
87803872:	9307      	str	r3, [sp, #28]
87803874:	f7ff fea6 	bl	878035c4 <i2c_master_transfer>
87803878:	f89d 0007 	ldrb.w	r0, [sp, #7]
8780387c:	b009      	add	sp, #36	; 0x24
8780387e:	f85d fb04 	ldr.w	pc, [sp], #4
87803882:	bf00      	nop

87803884 <ap3216c_readdata>:
87803884:	e92d 4ff0 	stmdb	sp!, {r4, r5, r6, r7, r8, r9, sl, fp, lr}
87803888:	b08d      	sub	sp, #52	; 0x34
8780388a:	f10d 040f 	add.w	r4, sp, #15
8780388e:	2500      	movs	r5, #0
87803890:	f10d 0818 	add.w	r8, sp, #24
87803894:	f2c0 251a 	movt	r5, #538	; 0x21a
87803898:	4683      	mov	fp, r0
8780389a:	46a2      	mov	sl, r4
8780389c:	f04f 090a 	mov.w	r9, #10
878038a0:	2600      	movs	r6, #0
878038a2:	271e      	movs	r7, #30
878038a4:	e9cd 1200 	strd	r1, r2, [sp]
878038a8:	4641      	mov	r1, r8
878038aa:	4628      	mov	r0, r5
878038ac:	2301      	movs	r3, #1
878038ae:	940a      	str	r4, [sp, #40]	; 0x28
878038b0:	f8cd 9020 	str.w	r9, [sp, #32]
878038b4:	4499      	add	r9, r3
878038b6:	f88d 600f 	strb.w	r6, [sp, #15]
878038ba:	f88d 7018 	strb.w	r7, [sp, #24]
878038be:	9307      	str	r3, [sp, #28]
878038c0:	f88d 3024 	strb.w	r3, [sp, #36]	; 0x24
878038c4:	930b      	str	r3, [sp, #44]	; 0x2c
878038c6:	f7ff fe7d 	bl	878035c4 <i2c_master_transfer>
878038ca:	f89d 100f 	ldrb.w	r1, [sp, #15]
878038ce:	f1b9 0f10 	cmp.w	r9, #16
878038d2:	f80a 1f01 	strb.w	r1, [sl, #1]!
878038d6:	d1e7      	bne.n	878038a8 <ap3216c_readdata+0x24>
878038d8:	f89d 3010 	ldrb.w	r3, [sp, #16]
878038dc:	0619      	lsls	r1, r3, #24
878038de:	f89d 1013 	ldrb.w	r1, [sp, #19]
878038e2:	bf57      	itett	pl
878038e4:	f003 0303 	andpl.w	r3, r3, #3
878038e8:	f8ab 6000 	strhmi.w	r6, [fp]
878038ec:	f89d 2011 	ldrbpl.w	r2, [sp, #17]
878038f0:	ea43 0382 	orrpl.w	r3, r3, r2, lsl #2
878038f4:	f89d 2012 	ldrb.w	r2, [sp, #18]
878038f8:	bf58      	it	pl
878038fa:	f8ab 3000 	strhpl.w	r3, [fp]
878038fe:	ea42 2201 	orr.w	r2, r2, r1, lsl #8
87803902:	9901      	ldr	r1, [sp, #4]
87803904:	f89d 3014 	ldrb.w	r3, [sp, #20]
87803908:	800a      	strh	r2, [r1, #0]
8780390a:	065a      	lsls	r2, r3, #25
8780390c:	bf5b      	ittet	pl
8780390e:	f003 030f 	andpl.w	r3, r3, #15
87803912:	f89d 2015 	ldrbpl.w	r2, [sp, #21]
87803916:	2300      	movmi	r3, #0
87803918:	0112      	lslpl	r2, r2, #4
8780391a:	bf5c      	itt	pl
8780391c:	f402 727c 	andpl.w	r2, r2, #1008	; 0x3f0
87803920:	4313      	orrpl	r3, r2
87803922:	9a00      	ldr	r2, [sp, #0]
87803924:	8013      	strh	r3, [r2, #0]
87803926:	b00d      	add	sp, #52	; 0x34
87803928:	e8bd 8ff0 	ldmia.w	sp!, {r4, r5, r6, r7, r8, r9, sl, fp, pc}
8780392c:	0000      	movs	r0, r0
	...

87803930 <__udivsi3>:
87803930:	1e4a      	subs	r2, r1, #1
87803932:	bf08      	it	eq
87803934:	4770      	bxeq	lr
87803936:	f0c0 8124 	bcc.w	87803b82 <__udivsi3+0x252>
8780393a:	4288      	cmp	r0, r1
8780393c:	f240 8116 	bls.w	87803b6c <__udivsi3+0x23c>
87803940:	4211      	tst	r1, r2
87803942:	f000 8117 	beq.w	87803b74 <__udivsi3+0x244>
87803946:	fab0 f380 	clz	r3, r0
8780394a:	fab1 f281 	clz	r2, r1
8780394e:	eba2 0303 	sub.w	r3, r2, r3
87803952:	f1c3 031f 	rsb	r3, r3, #31
87803956:	a204      	add	r2, pc, #16	; (adr r2, 87803968 <__udivsi3+0x38>)
87803958:	eb02 1303 	add.w	r3, r2, r3, lsl #4
8780395c:	f04f 0200 	mov.w	r2, #0
87803960:	469f      	mov	pc, r3
87803962:	bf00      	nop
87803964:	f3af 8000 	nop.w
87803968:	ebb0 7fc1 	cmp.w	r0, r1, lsl #31
8780396c:	bf00      	nop
8780396e:	eb42 0202 	adc.w	r2, r2, r2
87803972:	bf28      	it	cs
87803974:	eba0 70c1 	subcs.w	r0, r0, r1, lsl #31
87803978:	ebb0 7f81 	cmp.w	r0, r1, lsl #30
8780397c:	bf00      	nop
8780397e:	eb42 0202 	adc.w	r2, r2, r2
87803982:	bf28      	it	cs
87803984:	eba0 7081 	subcs.w	r0, r0, r1, lsl #30
87803988:	ebb0 7f41 	cmp.w	r0, r1, lsl #29
8780398c:	bf00      	nop
8780398e:	eb42 0202 	adc.w	r2, r2, r2
87803992:	bf28      	it	cs
87803994:	eba0 7041 	subcs.w	r0, r0, r1, lsl #29
87803998:	ebb0 7f01 	cmp.w	r0, r1, lsl #28
8780399c:	bf00      	nop
8780399e:	eb42 0202 	adc.w	r2, r2, r2
878039a2:	bf28      	it	cs
878039a4:	eba0 7001 	subcs.w	r0, r0, r1, lsl #28
878039a8:	ebb0 6fc1 	cmp.w	r0, r1, lsl #27
878039ac:	bf00      	nop
878039ae:	eb42 0202 	adc.w	r2, r2, r2
878039b2:	bf28      	it	cs
878039b4:	eba0 60c1 	subcs.w	r0, r0, r1, lsl #27
878039b8:	ebb0 6f81 	cmp.w	r0, r1, lsl #26
878039bc:	bf00      	nop
878039be:	eb42 0202 	adc.w	r2, r2, r2
878039c2:	bf28      	it	cs
878039c4:	eba0 6081 	subcs.w	r0, r0, r1, lsl #26
878039c8:	ebb0 6f41 	cmp.w	r0, r1, lsl #25
878039cc:	bf00      	nop
878039ce:	eb42 0202 	adc.w	r2, r2, r2
878039d2:	bf28      	it	cs
878039d4:	eba0 6041 	subcs.w	r0, r0, r1, lsl #25
878039d8:	ebb0 6f01 	cmp.w	r0, r1, lsl #24
878039dc:	bf00      	nop
878039de:	eb42 0202 	adc.w	r2, r2, r2
878039e2:	bf28      	it	cs
878039e4:	eba0 6001 	subcs.w	r0, r0, r1, lsl #24
878039e8:	ebb0 5fc1 	cmp.w	r0, r1, lsl #23
878039ec:	bf00      	nop
878039ee:	eb42 0202 	adc.w	r2, r2, r2
878039f2:	bf28      	it	cs
878039f4:	eba0 50c1 	subcs.w	r0, r0, r1, lsl #23
878039f8:	ebb0 5f81 	cmp.w	r0, r1, lsl #22
878039fc:	bf00      	nop
878039fe:	eb42 0202 	adc.w	r2, r2, r2
87803a02:	bf28      	it	cs
87803a04:	eba0 5081 	subcs.w	r0, r0, r1, lsl #22
87803a08:	ebb0 5f41 	cmp.w	r0, r1, lsl #21
87803a0c:	bf00      	nop
87803a0e:	eb42 0202 	adc.w	r2, r2, r2
87803a12:	bf28      	it	cs
87803a14:	eba0 5041 	subcs.w	r0, r0, r1, lsl #21
87803a18:	ebb0 5f01 	cmp.w	r0, r1, lsl #20
87803a1c:	bf00      	nop
87803a1e:	eb42 0202 	adc.w	r2, r2, r2
87803a22:	bf28      	it	cs
87803a24:	eba0 5001 	subcs.w	r0, r0, r1, lsl #20
87803a28:	ebb0 4fc1 	cmp.w	r0, r1, lsl #19
87803a2c:	bf00      	nop
87803a2e:	eb42 0202 	adc.w	r2, r2, r2
87803a32:	bf28      	it	cs
87803a34:	eba0 40c1 	subcs.w	r0, r0, r1, lsl #19
87803a38:	ebb0 4f81 	cmp.w	r0, r1, lsl #18
87803a3c:	bf00      	nop
87803a3e:	eb42 0202 	adc.w	r2, r2, r2
87803a42:	bf28      	it	cs
87803a44:	eba0 4081 	subcs.w	r0, r0, r1, lsl #18
87803a48:	ebb0 4f41 	cmp.w	r0, r1, lsl #17
87803a4c:	bf00      	nop
87803a4e:	eb42 0202 	adc.w	r2, r2, r2
87803a52:	bf28      	it	cs
87803a54:	eba0 4041 	subcs.w	r0, r0, r1, lsl #17
87803a58:	ebb0 4f01 	cmp.w	r0, r1, lsl #16
87803a5c:	bf00      	nop
87803a5e:	eb42 0202 	adc.w	r2, r2, r2
87803a62:	bf28      	it	cs
87803a64:	eba0 4001 	subcs.w	r0, r0, r1, lsl #16
87803a68:	ebb0 3fc1 	cmp.w	r0, r1, lsl #15
87803a6c:	bf00      	nop
87803a6e:	eb42 0202 	adc.w	r2, r2, r2
87803a72:	bf28      	it	cs
87803a74:	eba0 30c1 	subcs.w	r0, r0, r1, lsl #15
87803a78:	ebb0 3f81 	cmp.w	r0, r1, lsl #14
87803a7c:	bf00      	nop
87803a7e:	eb42 0202 	adc.w	r2, r2, r2
87803a82:	bf28      	it	cs
87803a84:	eba0 3081 	subcs.w	r0, r0, r1, lsl #14
87803a88:	ebb0 3f41 	cmp.w	r0, r1, lsl #13
87803a8c:	bf00      	nop
87803a8e:	eb42 0202 	adc.w	r2, r2, r2
87803a92:	bf28      	it	cs
87803a94:	eba0 3041 	subcs.w	r0, r0, r1, lsl #13
87803a98:	ebb0 3f01 	cmp.w	r0, r1, lsl #12
87803a9c:	bf00      	nop
87803a9e:	eb42 0202 	adc.w	r2, r2, r2
87803aa2:	bf28      	it	cs
87803aa4:	eba0 3001 	subcs.w	r0, r0, r1, lsl #12
87803aa8:	ebb0 2fc1 	cmp.w	r0, r1, lsl #11
87803aac:	bf00      	nop
87803aae:	eb42 0202 	adc.w	r2, r2, r2
87803ab2:	bf28      	it	cs
87803ab4:	eba0 20c1 	subcs.w	r0, r0, r1, lsl #11
87803ab8:	ebb0 2f81 	cmp.w	r0, r1, lsl #10
87803abc:	bf00      	nop
87803abe:	eb42 0202 	adc.w	r2, r2, r2
87803ac2:	bf28      	it	cs
87803ac4:	eba0 2081 	subcs.w	r0, r0, r1, lsl #10
87803ac8:	ebb0 2f41 	cmp.w	r0, r1, lsl #9
87803acc:	bf00      	nop
87803ace:	eb42 0202 	adc.w	r2, r2, r2
87803ad2:	bf28      	it	cs
87803ad4:	eba0 2041 	subcs.w	r0, r0, r1, lsl #9
87803ad8:	ebb0 2f01 	cmp.w	r0, r1, lsl #8
87803adc:	bf00      	nop
87803ade:	eb42 0202 	adc.w	r2, r2, r2
87803ae2:	bf28      	it	cs
87803ae4:	eba0 2001 	subcs.w	r0, r0, r1, lsl #8
87803ae8:	ebb0 1fc1 	cmp.w	r0, r1, lsl #7
87803aec:	bf00      	nop
87803aee:	eb42 0202 	adc.w	r2, r2, r2
87803af2:	bf28      	it	cs
87803af4:	eba0 10c1 	subcs.w	r0, r0, r1, lsl #7
87803af8:	ebb0 1f81 	cmp.w	r0, r1, lsl #6
87803afc:	bf00      	nop
87803afe:	eb42 0202 	adc.w	r2, r2, r2
87803b02:	bf28      	it	cs
87803b04:	eba0 1081 	subcs.w	r0, r0, r1, lsl #6
87803b08:	ebb0 1f41 	cmp.w	r0, r1, lsl #5
87803b0c:	bf00      	nop
87803b0e:	eb42 0202 	adc.w	r2, r2, r2
87803b12:	bf28      	it	cs
87803b14:	eba0 1041 	subcs.w	r0, r0, r1, lsl #5
87803b18:	ebb0 1f01 	cmp.w	r0, r1, lsl #4
87803b1c:	bf00      	nop
87803b1e:	eb42 0202 	adc.w	r2, r2, r2
87803b22:	bf28      	it	cs
87803b24:	eba0 1001 	subcs.w	r0, r0, r1, lsl #4
87803b28:	ebb0 0fc1 	cmp.w	r0, r1, lsl #3
87803b2c:	bf00      	nop
87803b2e:	eb42 0202 	adc.w	r2, r2, r2
87803b32:	bf28      	it	cs
87803b34:	eba0 00c1 	subcs.w	r0, r0, r1, lsl #3
87803b38:	ebb0 0f81 	cmp.w	r0, r1, lsl #2
87803b3c:	bf00      	nop
87803b3e:	eb42 0202 	adc.w	r2, r2, r2
87803b42:	bf28      	it	cs
87803b44:	eba0 0081 	subcs.w	r0, r0, r1, lsl #2
87803b48:	ebb0 0f41 	cmp.w	r0, r1, lsl #1
87803b4c:	bf00      	nop
87803b4e:	eb42 0202 	adc.w	r2, r2, r2
87803b52:	bf28      	it	cs
87803b54:	eba0 0041 	subcs.w	r0, r0, r1, lsl #1
87803b58:	ebb0 0f01 	cmp.w	r0, r1
87803b5c:	bf00      	nop
87803b5e:	eb42 0202 	adc.w	r2, r2, r2
87803b62:	bf28      	it	cs
87803b64:	eba0 0001 	subcs.w	r0, r0, r1
87803b68:	4610      	mov	r0, r2
87803b6a:	4770      	bx	lr
87803b6c:	bf0c      	ite	eq
87803b6e:	2001      	moveq	r0, #1
87803b70:	2000      	movne	r0, #0
87803b72:	4770      	bx	lr
87803b74:	fab1 f281 	clz	r2, r1
87803b78:	f1c2 021f 	rsb	r2, r2, #31
87803b7c:	fa20 f002 	lsr.w	r0, r0, r2
87803b80:	4770      	bx	lr
87803b82:	b108      	cbz	r0, 87803b88 <__udivsi3+0x258>
87803b84:	f04f 30ff 	mov.w	r0, #4294967295	; 0xffffffff
87803b88:	f000 b876 	b.w	87803c78 <__aeabi_idiv0>

87803b8c <__aeabi_uidivmod>:
87803b8c:	2900      	cmp	r1, #0
87803b8e:	d0f8      	beq.n	87803b82 <__udivsi3+0x252>
87803b90:	e92d 4003 	stmdb	sp!, {r0, r1, lr}
87803b94:	f7ff fecc 	bl	87803930 <__udivsi3>
87803b98:	e8bd 4006 	ldmia.w	sp!, {r1, r2, lr}
87803b9c:	fb02 f300 	mul.w	r3, r2, r0
87803ba0:	eba1 0103 	sub.w	r1, r1, r3
87803ba4:	4770      	bx	lr
87803ba6:	bf00      	nop

87803ba8 <__aeabi_ldivmod>:
87803ba8:	b97b      	cbnz	r3, 87803bca <__aeabi_ldivmod+0x22>
87803baa:	b972      	cbnz	r2, 87803bca <__aeabi_ldivmod+0x22>
87803bac:	2900      	cmp	r1, #0
87803bae:	bfbe      	ittt	lt
87803bb0:	2000      	movlt	r0, #0
87803bb2:	f04f 4100 	movlt.w	r1, #2147483648	; 0x80000000
87803bb6:	e006      	blt.n	87803bc6 <__aeabi_ldivmod+0x1e>
87803bb8:	bf08      	it	eq
87803bba:	2800      	cmpeq	r0, #0
87803bbc:	bf1c      	itt	ne
87803bbe:	f06f 4100 	mvnne.w	r1, #2147483648	; 0x80000000
87803bc2:	f04f 30ff 	movne.w	r0, #4294967295	; 0xffffffff
87803bc6:	f000 b857 	b.w	87803c78 <__aeabi_idiv0>
87803bca:	f1ad 0c08 	sub.w	ip, sp, #8
87803bce:	e96d ce04 	strd	ip, lr, [sp, #-16]!
87803bd2:	2900      	cmp	r1, #0
87803bd4:	db09      	blt.n	87803bea <__aeabi_ldivmod+0x42>
87803bd6:	2b00      	cmp	r3, #0
87803bd8:	db1a      	blt.n	87803c10 <__aeabi_ldivmod+0x68>
87803bda:	f000 f853 	bl	87803c84 <__udivmoddi4>
87803bde:	f8dd e004 	ldr.w	lr, [sp, #4]
87803be2:	e9dd 2302 	ldrd	r2, r3, [sp, #8]
87803be6:	b004      	add	sp, #16
87803be8:	4770      	bx	lr
87803bea:	4240      	negs	r0, r0
87803bec:	eb61 0141 	sbc.w	r1, r1, r1, lsl #1
87803bf0:	2b00      	cmp	r3, #0
87803bf2:	db1b      	blt.n	87803c2c <__aeabi_ldivmod+0x84>
87803bf4:	f000 f846 	bl	87803c84 <__udivmoddi4>
87803bf8:	f8dd e004 	ldr.w	lr, [sp, #4]
87803bfc:	e9dd 2302 	ldrd	r2, r3, [sp, #8]
87803c00:	b004      	add	sp, #16
87803c02:	4240      	negs	r0, r0
87803c04:	eb61 0141 	sbc.w	r1, r1, r1, lsl #1
87803c08:	4252      	negs	r2, r2
87803c0a:	eb63 0343 	sbc.w	r3, r3, r3, lsl #1
87803c0e:	4770      	bx	lr
87803c10:	4252      	negs	r2, r2
87803c12:	eb63 0343 	sbc.w	r3, r3, r3, lsl #1
87803c16:	f000 f835 	bl	87803c84 <__udivmoddi4>
87803c1a:	f8dd e004 	ldr.w	lr, [sp, #4]
87803c1e:	e9dd 2302 	ldrd	r2, r3, [sp, #8]
87803c22:	b004      	add	sp, #16
87803c24:	4240      	negs	r0, r0
87803c26:	eb61 0141 	sbc.w	r1, r1, r1, lsl #1
87803c2a:	4770      	bx	lr
87803c2c:	4252      	negs	r2, r2
87803c2e:	eb63 0343 	sbc.w	r3, r3, r3, lsl #1
87803c32:	f000 f827 	bl	87803c84 <__udivmoddi4>
87803c36:	f8dd e004 	ldr.w	lr, [sp, #4]
87803c3a:	e9dd 2302 	ldrd	r2, r3, [sp, #8]
87803c3e:	b004      	add	sp, #16
87803c40:	4252      	negs	r2, r2
87803c42:	eb63 0343 	sbc.w	r3, r3, r3, lsl #1
87803c46:	4770      	bx	lr

87803c48 <__aeabi_uldivmod>:
87803c48:	b953      	cbnz	r3, 87803c60 <__aeabi_uldivmod+0x18>
87803c4a:	b94a      	cbnz	r2, 87803c60 <__aeabi_uldivmod+0x18>
87803c4c:	2900      	cmp	r1, #0
87803c4e:	bf08      	it	eq
87803c50:	2800      	cmpeq	r0, #0
87803c52:	bf1c      	itt	ne
87803c54:	f04f 31ff 	movne.w	r1, #4294967295	; 0xffffffff
87803c58:	f04f 30ff 	movne.w	r0, #4294967295	; 0xffffffff
87803c5c:	f000 b80c 	b.w	87803c78 <__aeabi_idiv0>
87803c60:	f1ad 0c08 	sub.w	ip, sp, #8
87803c64:	e96d ce04 	strd	ip, lr, [sp, #-16]!
87803c68:	f000 f80c 	bl	87803c84 <__udivmoddi4>
87803c6c:	f8dd e004 	ldr.w	lr, [sp, #4]
87803c70:	e9dd 2302 	ldrd	r2, r3, [sp, #8]
87803c74:	b004      	add	sp, #16
87803c76:	4770      	bx	lr

87803c78 <__aeabi_idiv0>:
87803c78:	b502      	push	{r1, lr}
87803c7a:	f04f 0008 	mov.w	r0, #8
87803c7e:	f7fe fcf1 	bl	87802664 <raise>
87803c82:	bd02      	pop	{r1, pc}

87803c84 <__udivmoddi4>:
87803c84:	e92d 43f0 	stmdb	sp!, {r4, r5, r6, r7, r8, r9, lr}
87803c88:	460d      	mov	r5, r1
87803c8a:	429d      	cmp	r5, r3
87803c8c:	4604      	mov	r4, r0
87803c8e:	4610      	mov	r0, r2
87803c90:	4619      	mov	r1, r3
87803c92:	bf08      	it	eq
87803c94:	4284      	cmpeq	r4, r0
87803c96:	9a07      	ldr	r2, [sp, #28]
87803c98:	bf3c      	itt	cc
87803c9a:	2000      	movcc	r0, #0
87803c9c:	2100      	movcc	r1, #0
87803c9e:	d36a      	bcc.n	87803d76 <__udivmoddi4+0xf2>
87803ca0:	fab1 f681 	clz	r6, r1
87803ca4:	2900      	cmp	r1, #0
87803ca6:	d06f      	beq.n	87803d88 <__udivmoddi4+0x104>
87803ca8:	fab5 f385 	clz	r3, r5
87803cac:	2d00      	cmp	r5, #0
87803cae:	d067      	beq.n	87803d80 <__udivmoddi4+0xfc>
87803cb0:	1af3      	subs	r3, r6, r3
87803cb2:	f1a3 0c20 	sub.w	ip, r3, #32
87803cb6:	fa01 f703 	lsl.w	r7, r1, r3
87803cba:	fa00 fe0c 	lsl.w	lr, r0, ip
87803cbe:	f1c3 0820 	rsb	r8, r3, #32
87803cc2:	fa20 f108 	lsr.w	r1, r0, r8
87803cc6:	fa00 f603 	lsl.w	r6, r0, r3
87803cca:	ea47 070e 	orr.w	r7, r7, lr
87803cce:	469e      	mov	lr, r3
87803cd0:	430f      	orrs	r7, r1
87803cd2:	42bd      	cmp	r5, r7
87803cd4:	bf08      	it	eq
87803cd6:	42b4      	cmpeq	r4, r6
87803cd8:	bf3c      	itt	cc
87803cda:	2000      	movcc	r0, #0
87803cdc:	2100      	movcc	r1, #0
87803cde:	d30c      	bcc.n	87803cfa <__udivmoddi4+0x76>
87803ce0:	f04f 0901 	mov.w	r9, #1
87803ce4:	1ba4      	subs	r4, r4, r6
87803ce6:	fa29 f808 	lsr.w	r8, r9, r8
87803cea:	fa09 f10c 	lsl.w	r1, r9, ip
87803cee:	fa09 f003 	lsl.w	r0, r9, r3
87803cf2:	ea41 0108 	orr.w	r1, r1, r8
87803cf6:	eb65 0507 	sbc.w	r5, r5, r7
87803cfa:	2b00      	cmp	r3, #0
87803cfc:	d03b      	beq.n	87803d76 <__udivmoddi4+0xf2>
87803cfe:	087f      	lsrs	r7, r7, #1
87803d00:	ea4f 0636 	mov.w	r6, r6, rrx
87803d04:	e009      	b.n	87803d1a <__udivmoddi4+0x96>
87803d06:	1ba4      	subs	r4, r4, r6
87803d08:	eb65 0507 	sbc.w	r5, r5, r7
87803d0c:	1924      	adds	r4, r4, r4
87803d0e:	416d      	adcs	r5, r5
87803d10:	3401      	adds	r4, #1
87803d12:	f145 0500 	adc.w	r5, r5, #0
87803d16:	3b01      	subs	r3, #1
87803d18:	d007      	beq.n	87803d2a <__udivmoddi4+0xa6>
87803d1a:	42bd      	cmp	r5, r7
87803d1c:	bf08      	it	eq
87803d1e:	42b4      	cmpeq	r4, r6
87803d20:	d2f1      	bcs.n	87803d06 <__udivmoddi4+0x82>
87803d22:	1924      	adds	r4, r4, r4
87803d24:	416d      	adcs	r5, r5
87803d26:	3b01      	subs	r3, #1
87803d28:	d1f7      	bne.n	87803d1a <__udivmoddi4+0x96>
87803d2a:	f1ce 0720 	rsb	r7, lr, #32
87803d2e:	fa24 f60e 	lsr.w	r6, r4, lr
87803d32:	fa05 f707 	lsl.w	r7, r5, r7
87803d36:	f1ae 0320 	sub.w	r3, lr, #32
87803d3a:	fa25 f303 	lsr.w	r3, r5, r3
87803d3e:	fa25 fc0e 	lsr.w	ip, r5, lr
87803d42:	1900      	adds	r0, r0, r4
87803d44:	ea46 0607 	orr.w	r6, r6, r7
87803d48:	ea46 0403 	orr.w	r4, r6, r3
87803d4c:	4169      	adcs	r1, r5
87803d4e:	4665      	mov	r5, ip
87803d50:	f1ae 0c20 	sub.w	ip, lr, #32
87803d54:	fa05 f70e 	lsl.w	r7, r5, lr
87803d58:	fa04 fc0c 	lsl.w	ip, r4, ip
87803d5c:	fa04 f60e 	lsl.w	r6, r4, lr
87803d60:	f1ce 0320 	rsb	r3, lr, #32
87803d64:	fa24 f303 	lsr.w	r3, r4, r3
87803d68:	ea47 070c 	orr.w	r7, r7, ip
87803d6c:	1b80      	subs	r0, r0, r6
87803d6e:	ea47 0703 	orr.w	r7, r7, r3
87803d72:	eb61 0107 	sbc.w	r1, r1, r7
87803d76:	b10a      	cbz	r2, 87803d7c <__udivmoddi4+0xf8>
87803d78:	e9c2 4500 	strd	r4, r5, [r2]
87803d7c:	e8bd 83f0 	ldmia.w	sp!, {r4, r5, r6, r7, r8, r9, pc}
87803d80:	fab4 f384 	clz	r3, r4
87803d84:	3320      	adds	r3, #32
87803d86:	e793      	b.n	87803cb0 <__udivmoddi4+0x2c>
87803d88:	fab0 f380 	clz	r3, r0
87803d8c:	f103 0620 	add.w	r6, r3, #32
87803d90:	fab5 f385 	clz	r3, r5
87803d94:	2d00      	cmp	r5, #0
87803d96:	d18b      	bne.n	87803cb0 <__udivmoddi4+0x2c>
87803d98:	e7f2      	b.n	87803d80 <__udivmoddi4+0xfc>
87803d9a:	bf00      	nop
87803d9c:	0000      	movs	r0, r0
	...

87803da0 <__main_from_arm>:
87803da0:	e51ff004 	ldr	pc, [pc, #-4]	; 87803da4 <__main_from_arm+0x4>
87803da4:	87803da9 	strhi	r3, [r0, r9, lsr #27]

Disassembly of section .text.startup:

87803da8 <main>:
87803da8:	e92d 43f0 	stmdb	sp!, {r4, r5, r6, r7, r8, r9, lr}
87803dac:	b085      	sub	sp, #20
87803dae:	4d5e      	ldr	r5, [pc, #376]	; (87803f28 <main+0x180>)
87803db0:	f7fe f93a 	bl	87802028 <int_init>
87803db4:	f7fd febc 	bl	87801b30 <imx6u_clkinit>
87803db8:	2410      	movs	r4, #16
87803dba:	f7fd ff4d 	bl	87801c58 <delay_init>
87803dbe:	447d      	add	r5, pc
87803dc0:	f7fd fea6 	bl	87801b10 <clk_enable>
87803dc4:	4f59      	ldr	r7, [pc, #356]	; (87803f2c <main+0x184>)
87803dc6:	f7fd ff15 	bl	87801bf4 <led_init>
87803dca:	4626      	mov	r6, r4
87803dcc:	f7fd ffb4 	bl	87801d38 <beep_init>
87803dd0:	447f      	add	r7, pc
87803dd2:	f7fe fa95 	bl	87802300 <uart_init>
87803dd6:	f7fe fdc3 	bl	87802960 <lcd_init>
87803dda:	4855      	ldr	r0, [pc, #340]	; (87803f30 <main+0x188>)
87803ddc:	4955      	ldr	r1, [pc, #340]	; (87803f34 <main+0x18c>)
87803dde:	4623      	mov	r3, r4
87803de0:	22c8      	movs	r2, #200	; 0xc8
87803de2:	f855 9000 	ldr.w	r9, [r5, r0]
87803de6:	4479      	add	r1, pc
87803de8:	f44f 057f 	mov.w	r5, #16711680	; 0xff0000
87803dec:	9101      	str	r1, [sp, #4]
87803dee:	9400      	str	r4, [sp, #0]
87803df0:	2132      	movs	r1, #50	; 0x32
87803df2:	f8c9 5018 	str.w	r5, [r9, #24]
87803df6:	201e      	movs	r0, #30
87803df8:	f7ff f906 	bl	87803008 <lcd_show_string>
87803dfc:	484e      	ldr	r0, [pc, #312]	; (87803f38 <main+0x190>)
87803dfe:	4623      	mov	r3, r4
87803e00:	22c8      	movs	r2, #200	; 0xc8
87803e02:	4478      	add	r0, pc
87803e04:	2146      	movs	r1, #70	; 0x46
87803e06:	9001      	str	r0, [sp, #4]
87803e08:	201e      	movs	r0, #30
87803e0a:	9400      	str	r4, [sp, #0]
87803e0c:	f7ff f8fc 	bl	87803008 <lcd_show_string>
87803e10:	484a      	ldr	r0, [pc, #296]	; (87803f3c <main+0x194>)
87803e12:	4623      	mov	r3, r4
87803e14:	22c8      	movs	r2, #200	; 0xc8
87803e16:	4478      	add	r0, pc
87803e18:	215a      	movs	r1, #90	; 0x5a
87803e1a:	9001      	str	r0, [sp, #4]
87803e1c:	201e      	movs	r0, #30
87803e1e:	9400      	str	r4, [sp, #0]
87803e20:	f7ff f8f2 	bl	87803008 <lcd_show_string>
87803e24:	4846      	ldr	r0, [pc, #280]	; (87803f40 <main+0x198>)
87803e26:	4d47      	ldr	r5, [pc, #284]	; (87803f44 <main+0x19c>)
87803e28:	4623      	mov	r3, r4
87803e2a:	4478      	add	r0, pc
87803e2c:	9400      	str	r4, [sp, #0]
87803e2e:	9001      	str	r0, [sp, #4]
87803e30:	22c8      	movs	r2, #200	; 0xc8
87803e32:	216e      	movs	r1, #110	; 0x6e
87803e34:	201e      	movs	r0, #30
87803e36:	f7ff f8e7 	bl	87803008 <lcd_show_string>
87803e3a:	447d      	add	r5, pc
87803e3c:	e014      	b.n	87803e68 <main+0xc0>
87803e3e:	9701      	str	r7, [sp, #4]
87803e40:	201e      	movs	r0, #30
87803e42:	9600      	str	r6, [sp, #0]
87803e44:	f7ff f8e0 	bl	87803008 <lcd_show_string>
87803e48:	f44f 70fa 	mov.w	r0, #500	; 0x1f4
87803e4c:	f7fd ff36 	bl	87801cbc <delayms>
87803e50:	e9cd 6500 	strd	r6, r5, [sp]
87803e54:	2310      	movs	r3, #16
87803e56:	22c8      	movs	r2, #200	; 0xc8
87803e58:	2182      	movs	r1, #130	; 0x82
87803e5a:	201e      	movs	r0, #30
87803e5c:	f7ff f8d4 	bl	87803008 <lcd_show_string>
87803e60:	f44f 70fa 	mov.w	r0, #500	; 0x1f4
87803e64:	f7fd ff2a 	bl	87801cbc <delayms>
87803e68:	f7ff fca0 	bl	878037ac <ap3216c_init>
87803e6c:	2310      	movs	r3, #16
87803e6e:	22c8      	movs	r2, #200	; 0xc8
87803e70:	2182      	movs	r1, #130	; 0x82
87803e72:	4604      	mov	r4, r0
87803e74:	2800      	cmp	r0, #0
87803e76:	d1e2      	bne.n	87803e3e <main+0x96>
87803e78:	4833      	ldr	r0, [pc, #204]	; (87803f48 <main+0x1a0>)
87803e7a:	461d      	mov	r5, r3
87803e7c:	f10d 080c 	add.w	r8, sp, #12
87803e80:	f10d 070e 	add.w	r7, sp, #14
87803e84:	4478      	add	r0, pc
87803e86:	e9cd 3000 	strd	r3, r0, [sp]
87803e8a:	201e      	movs	r0, #30
87803e8c:	f10d 060a 	add.w	r6, sp, #10
87803e90:	f7ff f8ba 	bl	87803008 <lcd_show_string>
87803e94:	482d      	ldr	r0, [pc, #180]	; (87803f4c <main+0x1a4>)
87803e96:	462b      	mov	r3, r5
87803e98:	22c8      	movs	r2, #200	; 0xc8
87803e9a:	4478      	add	r0, pc
87803e9c:	21a0      	movs	r1, #160	; 0xa0
87803e9e:	9001      	str	r0, [sp, #4]
87803ea0:	201e      	movs	r0, #30
87803ea2:	9500      	str	r5, [sp, #0]
87803ea4:	f7ff f8b0 	bl	87803008 <lcd_show_string>
87803ea8:	4829      	ldr	r0, [pc, #164]	; (87803f50 <main+0x1a8>)
87803eaa:	462b      	mov	r3, r5
87803eac:	22c8      	movs	r2, #200	; 0xc8
87803eae:	4478      	add	r0, pc
87803eb0:	21b4      	movs	r1, #180	; 0xb4
87803eb2:	9001      	str	r0, [sp, #4]
87803eb4:	201e      	movs	r0, #30
87803eb6:	9500      	str	r5, [sp, #0]
87803eb8:	f7ff f8a6 	bl	87803008 <lcd_show_string>
87803ebc:	4925      	ldr	r1, [pc, #148]	; (87803f54 <main+0x1ac>)
87803ebe:	22c8      	movs	r2, #200	; 0xc8
87803ec0:	462b      	mov	r3, r5
87803ec2:	4479      	add	r1, pc
87803ec4:	9500      	str	r5, [sp, #0]
87803ec6:	9101      	str	r1, [sp, #4]
87803ec8:	201e      	movs	r0, #30
87803eca:	4611      	mov	r1, r2
87803ecc:	f7ff f89c 	bl	87803008 <lcd_show_string>
87803ed0:	23ff      	movs	r3, #255	; 0xff
87803ed2:	f8c9 3018 	str.w	r3, [r9, #24]
87803ed6:	4642      	mov	r2, r8
87803ed8:	4639      	mov	r1, r7
87803eda:	4630      	mov	r0, r6
87803edc:	f084 0401 	eor.w	r4, r4, #1
87803ee0:	f7ff fcd0 	bl	87803884 <ap3216c_readdata>
87803ee4:	f8bd 200a 	ldrh.w	r2, [sp, #10]
87803ee8:	9500      	str	r5, [sp, #0]
87803eea:	2305      	movs	r3, #5
87803eec:	21a0      	movs	r1, #160	; 0xa0
87803eee:	203e      	movs	r0, #62	; 0x3e
87803ef0:	f7fe ffce 	bl	87802e90 <lcd_shownum>
87803ef4:	f8bd 200e 	ldrh.w	r2, [sp, #14]
87803ef8:	9500      	str	r5, [sp, #0]
87803efa:	2305      	movs	r3, #5
87803efc:	21b4      	movs	r1, #180	; 0xb4
87803efe:	203e      	movs	r0, #62	; 0x3e
87803f00:	f7fe ffc6 	bl	87802e90 <lcd_shownum>
87803f04:	b2e4      	uxtb	r4, r4
87803f06:	f8bd 200c 	ldrh.w	r2, [sp, #12]
87803f0a:	2305      	movs	r3, #5
87803f0c:	21c8      	movs	r1, #200	; 0xc8
87803f0e:	9500      	str	r5, [sp, #0]
87803f10:	203e      	movs	r0, #62	; 0x3e
87803f12:	f7fe ffbd 	bl	87802e90 <lcd_shownum>
87803f16:	2078      	movs	r0, #120	; 0x78
87803f18:	f7fd fed0 	bl	87801cbc <delayms>
87803f1c:	2000      	movs	r0, #0
87803f1e:	4621      	mov	r1, r4
87803f20:	f7fd fe84 	bl	87801c2c <led_switch>
87803f24:	e7d7      	b.n	87803ed6 <main+0x12e>
87803f26:	bf00      	nop
87803f28:	ffffc23e 			; <UNDEFINED> instruction: 0xffffc23e
87803f2c:	000001c4 	andeq	r0, r0, r4, asr #3
87803f30:	00000160 	andeq	r0, r0, r0, ror #2
87803f34:	0000016e 	andeq	r0, r0, lr, ror #2
87803f38:	00000166 	andeq	r0, r0, r6, ror #2
87803f3c:	00000162 	andeq	r0, r0, r2, ror #2
87803f40:	0000015e 	andeq	r0, r0, lr, asr r1
87803f44:	00000172 	andeq	r0, r0, r2, ror r1
87803f48:	00000140 	andeq	r0, r0, r0, asr #2
87803f4c:	0000013a 	andeq	r0, r0, sl, lsr r1
87803f50:	0000012e 	andeq	r0, r0, lr, lsr #2
87803f54:	00000122 	andeq	r0, r0, r2, lsr #2

Disassembly of section .rodata:

87803f58 <digits.8888-0x98>:
87803f58:	4f52455a 	svcmi	0x0052455a
87803f5c:	584d492d 	stmdapl	sp, {r0, r2, r3, r5, r8, fp, lr}^
87803f60:	49205536 	stmdbmi	r0!, {r1, r2, r4, r5, r8, sl, ip, lr}
87803f64:	54204349 	strtpl	r4, [r0], #-841	; 0xfffffcb7
87803f68:	00545345 	subseq	r5, r4, r5, asr #6
87803f6c:	32335041 	eorscc	r5, r3, #65	; 0x41
87803f70:	20433631 	subcs	r3, r3, r1, lsr r6
87803f74:	54534554 	ldrbpl	r4, [r3], #-1364	; 0xfffffaac
87803f78:	00000000 	andeq	r0, r0, r0
87803f7c:	4d4f5441 	cfstrdmi	mvd5, [pc, #-260]	; 87803e80 <main+0xd8>
87803f80:	494c4140 	stmdbmi	ip, {r6, r8, lr}^
87803f84:	45544e45 	ldrbmi	r4, [r4, #-3653]	; 0xfffff1bb
87803f88:	0000004b 	andeq	r0, r0, fp, asr #32
87803f8c:	39313032 	ldmdbcc	r1!, {r1, r4, r5, ip, sp}
87803f90:	322f332f 	eorcc	r3, pc, #-1140850688	; 0xbc000000
87803f94:	00000036 	andeq	r0, r0, r6, lsr r0
87803f98:	32335041 	eorscc	r5, r3, #65	; 0x41
87803f9c:	20433631 	subcs	r3, r3, r1, lsr r6
87803fa0:	63656843 	cmnvs	r5, #4390912	; 0x430000
87803fa4:	6146206b 	cmpvs	r6, fp, rrx
87803fa8:	64656c69 	strbtvs	r6, [r5], #-3177	; 0xfffff397
87803fac:	00000021 	andeq	r0, r0, r1, lsr #32
87803fb0:	61656c50 	cmnvs	r5, r0, asr ip
87803fb4:	43206573 			; <UNDEFINED> instruction: 0x43206573
87803fb8:	6b636568 	blvs	890dd560 <__bss_end+0x18d3f98>
87803fbc:	20202021 	eorcs	r2, r0, r1, lsr #32
87803fc0:	20202020 	eorcs	r2, r0, r0, lsr #32
87803fc4:	00000020 	andeq	r0, r0, r0, lsr #32
87803fc8:	32335041 	eorscc	r5, r3, #65	; 0x41
87803fcc:	20433631 	subcs	r3, r3, r1, lsr r6
87803fd0:	64616552 	strbtvs	r6, [r1], #-1362	; 0xfffffaae
87803fd4:	00002179 	andeq	r2, r0, r9, ror r1
87803fd8:	3a524920 	bcc	88c96460 <__bss_end+0x148ce98>
87803fdc:	00000000 	andeq	r0, r0, r0
87803fe0:	3a535020 	bcc	88cd8068 <__bss_end+0x14ceaa0>
87803fe4:	00000000 	andeq	r0, r0, r0
87803fe8:	3a534c41 	bcc	88cd70f4 <__bss_end+0x14cdb2c>
87803fec:	00000000 	andeq	r0, r0, r0

87803ff0 <digits.8888>:
87803ff0:	33323130 	teqcc	r2, #48, 2
87803ff4:	37363534 			; <UNDEFINED> instruction: 0x37363534
87803ff8:	42413938 	submi	r3, r1, #56, 18	; 0xe0000
87803ffc:	46454443 	strbmi	r4, [r5], -r3, asr #8
87804000:	4c554e3c 	mrrcmi	14, 3, r4, r5, cr12
87804004:	00003e4c 	andeq	r3, r0, ip, asr #28

87804008 <CSWTCH.9>:
87804008:	00000004 	andeq	r0, r0, r4
8780400c:	00000003 	andeq	r0, r0, r3
87804010:	00000002 	andeq	r0, r0, r2
87804014:	00000001 	andeq	r0, r0, r1
87804018:	00000000 	andeq	r0, r0, r0
8780401c:	00000006 	andeq	r0, r0, r6

87804020 <asc2_2412>:
	...
87804050:	0f000000 	svceq	0x00000000
87804054:	fe0f3880 	vcmla.f16	d3, d31, d0[0], #0
87804058:	38800f38 	stmcc	r0, {r3, r4, r5, r8, r9, sl, fp}
	...
8780406c:	00010000 	andeq	r0, r1, r0
87804070:	00000600 	andeq	r0, r0, r0, lsl #12
87804074:	3800000c 	stmdacc	r0, {r2, r3}
87804078:	00310000 	eorseq	r0, r1, r0
8780407c:	00000600 	andeq	r0, r0, r0, lsl #12
87804080:	3800000c 	stmdacc	r0, {r2, r3}
87804084:	00300000 	eorseq	r0, r0, r0
	...
87804090:	67008061 	strvs	r8, [r0, -r1, rrx]
87804094:	80f907f8 	ldrshthi	r0, [r9], #120	; 0x78
87804098:	00806100 	addeq	r6, r0, r0, lsl #2
8780409c:	61008061 	tstvs	r0, r1, rrx
878040a0:	80610080 	rsbhi	r0, r1, r0, lsl #1
878040a4:	07f86700 	ldrbeq	r6, [r8, r0, lsl #14]!
878040a8:	610080f9 	strdvs	r8, [r0, -r9]
878040ac:	00000080 	andeq	r0, r0, r0, lsl #1
878040b0:	00000000 	andeq	r0, r0, r0
878040b4:	c0010000 	andgt	r0, r1, r0
878040b8:	f0e003e0 			; <UNDEFINED> instruction: 0xf0e003e0
878040bc:	04083006 	streq	r3, [r8], #-6
878040c0:	ff1f0818 			; <UNDEFINED> instruction: 0xff1f0818
878040c4:	080e04fe 	stmdaeq	lr, {r1, r2, r3, r4, r5, r6, r7, sl}
878040c8:	03f08707 	mvnseq	r8, #1835008	; 0x1c0000
878040cc:	0000e081 	andeq	lr, r0, r1, lsl #1
878040d0:	00000000 	andeq	r0, r0, r0
878040d4:	0600f001 	streq	pc, [r0], -r1
878040d8:	0404000c 	streq	r0, [r4], #-12
878040dc:	700c0608 	andvc	r0, ip, r8, lsl #12
878040e0:	00c0f901 	sbceq	pc, r0, r1, lsl #18
878040e4:	3b00000e 	blcc	87804124 <asc2_2412+0x104>
878040e8:	18ec00e0 	stmiane	ip!, {r5, r6, r7}^
878040ec:	04080807 	streq	r0, [r8], #-2055	; 0xfffff7f9
878040f0:	0300180c 	movweq	r1, #2060	; 0x80c
878040f4:	000000e0 	andeq	r0, r0, r0, ror #1
878040f8:	00e00100 	rsceq	r0, r0, r0, lsl #2
878040fc:	f803f007 			; <UNDEFINED> instruction: 0xf803f007
87804100:	081c0418 	ldmdaeq	ip, {r3, r4, sl}
87804104:	07081704 	streq	r1, [r8, -r4, lsl #14]
87804108:	c003d0e1 	andgt	sp, r3, r1, ror #1
8780410c:	b02300e0 	eorlt	r0, r3, r0, ror #1
87804110:	00083c00 	andeq	r3, r8, r0, lsl #24
87804114:	00000820 	andeq	r0, r0, r0, lsr #16
87804118:	00000010 	andeq	r0, r0, r0, lsl r0
8780411c:	01000000 	mrseq	r0, (UNDEF: 0)
87804120:	00310000 	eorseq	r0, r1, r0
87804124:	00003200 	andeq	r3, r0, r0, lsl #4
87804128:	0000001c 	andeq	r0, r0, ip, lsl r0
	...
87804150:	ff01007f 			; <UNDEFINED> instruction: 0xff01007f
87804154:	f08007c0 			; <UNDEFINED> instruction: 0xf08007c0
87804158:	1018000c 	andsne	r0, r8, ip
8780415c:	00200400 	eoreq	r0, r0, r0, lsl #8
87804160:	00000002 	andeq	r0, r0, r2
87804164:	20000000 	andcs	r0, r0, r0
87804168:	00100200 	andseq	r0, r0, r0, lsl #4
8780416c:	18000c04 	stmdane	r0, {r2, sl, fp}
87804170:	01f08007 	mvnseq	r8, r7
87804174:	7f00c0ff 	svcvc	0x0000c0ff
	...
8780418c:	66000042 	strvs	r0, [r0], -r2, asr #32
87804190:	00660000 	rsbeq	r0, r6, r0
87804194:	00003c00 	andeq	r3, r0, r0, lsl #24
87804198:	ff030018 			; <UNDEFINED> instruction: 0xff030018
8780419c:	001800c0 	andseq	r0, r8, r0, asr #1
878041a0:	00003c00 	andeq	r3, r0, r0, lsl #24
878041a4:	66000066 	strvs	r0, [r0], -r6, rrx
878041a8:	00420000 	subeq	r0, r2, r0
878041ac:	00000000 	andeq	r0, r0, r0
878041b0:	08000008 	stmdaeq	r0, {r3}
878041b4:	00080000 	andeq	r0, r8, r0
878041b8:	00000800 	andeq	r0, r0, r0, lsl #16
878041bc:	ff010008 			; <UNDEFINED> instruction: 0xff010008
878041c0:	000800c0 	andeq	r0, r8, r0, asr #1
878041c4:	00000800 	andeq	r0, r0, r0, lsl #16
878041c8:	08000008 	stmdaeq	r0, {r3}
878041cc:	00080000 	andeq	r0, r8, r0
878041d0:	00000000 	andeq	r0, r0, r0
878041d4:	00000100 	andeq	r0, r0, r0, lsl #2
878041d8:	32000031 	andcc	r0, r0, #49	; 0x31
878041dc:	001c0000 	andseq	r0, ip, r0
	...
878041f8:	08000008 	stmdaeq	r0, {r3}
878041fc:	00080000 	andeq	r0, r8, r0
87804200:	00000800 	andeq	r0, r0, r0, lsl #16
87804204:	08000008 	stmdaeq	r0, {r3}
87804208:	00080000 	andeq	r0, r8, r0
8780420c:	00000800 	andeq	r0, r0, r0, lsl #16
87804210:	08000008 	stmdaeq	r0, {r3}
	...
87804220:	38000038 	stmdacc	r0, {r3, r4, r5}
87804224:	00380000 	eorseq	r0, r8, r0
	...
87804240:	00000600 	andeq	r0, r0, r0, lsl #12
87804244:	7000001c 	andvc	r0, r0, ip, lsl r0
87804248:	00800100 	addeq	r0, r0, r0, lsl #2
8780424c:	3800000e 	stmdacc	r0, {r1, r2, r3}
87804250:	00c00000 	sbceq	r0, r0, r0
87804254:	1c000007 	stcne	0, cr0, [r0], {7}
87804258:	00300000 	eorseq	r0, r0, r0
	...
87804264:	ff01807f 			; <UNDEFINED> instruction: 0xff01807f
87804268:	708003e0 	addvc	r0, r0, r0, ror #7
8780426c:	04180006 	ldreq	r0, [r8], #-6
87804270:	00040800 	andeq	r0, r4, r0, lsl #16
87804274:	18000608 	stmdane	r0, {r3, r9, sl}
87804278:	01708003 	cmneq	r0, r3
8780427c:	7f00e0ff 	svcvc	0x0000e0ff
87804280:	00000080 	andeq	r0, r0, r0, lsl #1
87804284:	00000000 	andeq	r0, r0, r0
87804288:	00010000 	andeq	r0, r1, r0
8780428c:	08000108 	stmdaeq	r0, {r3, r8}
87804290:	03080001 	movweq	r0, #32769	; 0x8001
87804294:	ff07f8ff 			; <UNDEFINED> instruction: 0xff07f8ff
87804298:	080000f8 	stmdaeq	r0, {r3, r4, r5, r6, r7}
8780429c:	00080000 	andeq	r0, r8, r0
878042a0:	00000800 	andeq	r0, r0, r0, lsl #16
878042a4:	00000000 	andeq	r0, r0, r0
878042a8:	01000000 	mrseq	r0, (UNDEF: 0)
878042ac:	c00238c0 	andgt	r3, r2, r0, asr #17
878042b0:	98000458 	stmdals	r0, {r3, r4, r6, sl}
878042b4:	04180104 	ldreq	r0, [r8], #-260	; 0xfffffefc
878042b8:	04041802 	streq	r1, [r4], #-2050	; 0xfffff7fe
878042bc:	181c0618 	ldmdane	ip, {r3, r4, r9, sl}
878042c0:	0118f803 	tsteq	r8, r3, lsl #16	; <UNPREDICTABLE>
878042c4:	0000f8e0 	andeq	pc, r0, r0, ror #17
878042c8:	00000000 	andeq	r0, r0, r0
878042cc:	01000000 	mrseq	r0, (UNDEF: 0)
878042d0:	c003e0c0 	andgt	lr, r3, r0, asr #1
878042d4:	080004f0 	stmdaeq	r0, {r4, r5, r6, r7, sl}
878042d8:	04080804 	streq	r0, [r8], #-2052	; 0xfffff7fc
878042dc:	18060808 	stmdane	r6, {r3, fp}
878042e0:	18f40308 	ldmne	r4!, {r3, r8, r9}^
878042e4:	00f0e701 	rscseq	lr, r0, r1, lsl #14
878042e8:	0000e001 	andeq	lr, r0, r1
	...
878042f4:	0d000003 	stceq	0, cr0, [r0, #-12]
878042f8:	00110000 	andseq	r0, r1, r0
878042fc:	00006100 	andeq	r6, r0, r0, lsl #2
87804300:	01030881 	smlabbeq	r3, r1, r8, r0
87804304:	f8ff0708 			; <UNDEFINED> instruction: 0xf8ff0708
87804308:	00f8ff0f 	rscseq	pc, r8, pc, lsl #30
8780430c:	01000801 	tsteq	r0, r1, lsl #16
87804310:	00000008 	andeq	r0, r0, r8
87804314:	00000000 	andeq	r0, r0, r0
87804318:	fc07e000 	stc2	0, cr14, [r7], {-0}
8780431c:	080806d0 	stmdaeq	r8, {r4, r6, r7, r9, sl}
87804320:	06081006 	streq	r1, [r8], -r6
87804324:	10060810 	andne	r0, r6, r0, lsl r8
87804328:	38180608 	ldmdacc	r8, {r3, r9, sl}
8780432c:	06f00f06 	ldrbteq	r0, [r0], r6, lsl #30
87804330:	0000c007 	andeq	ip, r0, r7
	...
8780433c:	ff01803f 			; <UNDEFINED> instruction: 0xff01803f
87804340:	308403e0 	addcc	r0, r4, r0, ror #7
87804344:	04180802 	ldreq	r0, [r8], #-2050	; 0xfffff7fe
87804348:	10040810 	andne	r0, r4, r0, lsl r8
8780434c:	08100408 	ldmdaeq	r0, {r3, sl}
87804350:	03101807 	tsteq	r0, #458752	; 0x70000
87804354:	0700f00f 	streq	pc, [r0, -pc]
87804358:	000000c0 	andeq	r0, r0, r0, asr #1
8780435c:	00000000 	andeq	r0, r0, r0
87804360:	c0030000 	andgt	r0, r3, r0
87804364:	00000700 	andeq	r0, r0, r0, lsl #14
87804368:	06000006 	streq	r0, [r0], -r6
8780436c:	0706f800 	streq	pc, [r6, -r0, lsl #16]
87804370:	001806f8 			; <UNDEFINED> instruction: 0x001806f8
87804374:	0700e006 	streq	lr, [r0, -r6]
87804378:	00060000 	andeq	r0, r6, r0
8780437c:	00000000 	andeq	r0, r0, r0
87804380:	01000000 	mrseq	r0, (UNDEF: 0)
87804384:	f703e0e1 			; <UNDEFINED> instruction: 0xf703e0e1
87804388:	103406f0 	ldrshtne	r0, [r4], -r0
8780438c:	04081804 	streq	r1, [r8], #-2052	; 0xfffff7fc
87804390:	0c040818 	stceq	8, cr0, [r4], {24}
87804394:	080c0408 	stmdaeq	ip, {r3, sl}
87804398:	03181606 	tsteq	r8, #6291456	; 0x600000
8780439c:	c101f0f3 	strdgt	pc, [r1, -r3]
878043a0:	000000e0 	andeq	r0, r0, r0, ror #1
878043a4:	00000000 	andeq	r0, r0, r0
878043a8:	fc0300f8 	stc2	0, cr0, [r3], {248}	; 0xf8
878043ac:	38060330 	stmdacc	r6, {r4, r5, r8, r9}
878043b0:	04080204 	streq	r0, [r8], #-516	; 0xfffffdfc
878043b4:	02040802 	andeq	r0, r4, #131072	; 0x20000
878043b8:	10040408 	andne	r0, r4, r8, lsl #8
878043bc:	01f00803 	mvnseq	r0, r3, lsl #16
878043c0:	7f00c0ff 	svcvc	0x0000c0ff
	...
878043d8:	70003870 	andvc	r3, r0, r0, ror r8
878043dc:	38700038 	ldmdacc	r0!, {r3, r4, r5}^
	...
878043fc:	30001a30 	andcc	r1, r0, r0, lsr sl
87804400:	0000001c 	andeq	r0, r0, ip, lsl r0
	...
87804414:	08000000 	stmdaeq	r0, {}	; <UNPREDICTABLE>
87804418:	00140000 	andseq	r0, r4, r0
8780441c:	00002200 	andeq	r2, r0, r0, lsl #4
87804420:	80000041 	andhi	r0, r0, r1, asr #32
87804424:	40000180 	andmi	r0, r0, r0, lsl #3
87804428:	04200002 	strteq	r0, [r0], #-2
8780442c:	00081000 	andeq	r1, r8, r0
87804430:	00000008 	andeq	r0, r0, r8
87804434:	00000000 	andeq	r0, r0, r0
87804438:	21000021 	tstcs	r0, r1, lsr #32
8780443c:	00210000 	eoreq	r0, r1, r0
87804440:	00002100 	andeq	r2, r0, r0, lsl #2
87804444:	21000021 	tstcs	r0, r1, lsr #32
87804448:	00210000 	eoreq	r0, r1, r0
8780444c:	00002100 	andeq	r2, r0, r0, lsl #2
87804450:	21000021 	tstcs	r0, r1, lsr #32
	...
8780445c:	00080000 	andeq	r0, r8, r0
87804460:	10000408 	andne	r0, r0, r8, lsl #8
87804464:	01200002 			; <UNDEFINED> instruction: 0x01200002
87804468:	80004000 	andhi	r4, r0, r0
8780446c:	00410080 	subeq	r0, r1, r0, lsl #1
87804470:	00002200 	andeq	r2, r0, r0, lsl #4
87804474:	08000014 	stmdaeq	r0, {r2, r4}
87804478:	00000000 	andeq	r0, r0, r0
8780447c:	03000000 	movweq	r0, #0
87804480:	c00400c0 	andgt	r0, r4, r0, asr #1
87804484:	00000400 	andeq	r0, r0, r0, lsl #8
87804488:	08380008 	ldmdaeq	r8!, {r3}
8780448c:	0808380f 	stmdaeq	r8, {r0, r1, r2, r3, fp, ip, sp}
87804490:	00100838 	andseq	r0, r0, r8, lsr r8
87804494:	0700300c 	streq	r3, [r0, -ip]
87804498:	c00300e0 	andgt	r0, r3, r0, ror #1
	...
878044a4:	ff00803f 			; <UNDEFINED> instruction: 0xff00803f
878044a8:	708003e0 	addvc	r0, r0, r0, ror #7
878044ac:	06100f02 	ldreq	r0, [r0], -r2, lsl #30
878044b0:	c0048870 	andgt	r8, r4, r0, ror r8
878044b4:	08830488 	stmeq	r3, {r3, r7, sl}
878044b8:	02887f04 	addeq	r7, r8, #4, 30
878044bc:	010390c0 	smlabteq	r3, r0, r0, r9
878044c0:	40fe0020 	rscsmi	r0, lr, r0, lsr #32
878044c4:	00080000 	andeq	r0, r8, r0
878044c8:	01001800 	tsteq	r0, r0, lsl #16
878044cc:	083e00f8 	ldmdaeq	lr!, {r3, r4, r5, r6, r7}
878044d0:	0700c201 	streq	ip, [r0, -r1, lsl #4]
878044d4:	e2070002 	and	r0, r7, #2
878044d8:	00fe0000 	rscseq	r0, lr, r0
878044dc:	00c81f00 	sbceq	r1, r8, r0, lsl #30
878044e0:	0000f801 	andeq	pc, r0, r1, lsl #16
878044e4:	08000038 	stmdaeq	r0, {r3, r4, r5}
878044e8:	07080004 	streq	r0, [r8, -r4]
878044ec:	ff07f8ff 			; <UNDEFINED> instruction: 0xff07f8ff
878044f0:	080804f8 	stmdaeq	r8, {r3, r4, r5, r6, r7, sl}
878044f4:	04080804 	streq	r0, [r8], #-2052	; 0xfffff7fc
878044f8:	08040808 	stmdaeq	r4, {r3, fp}
878044fc:	08180608 	ldmdaeq	r8, {r3, r9, sl}
87804500:	0118f403 	tsteq	r8, r3, lsl #8	; <UNPREDICTABLE>
87804504:	0100f0e7 	smlatteq	r0, r7, r0, pc	; <UNPREDICTABLE>
87804508:	000000e0 	andeq	r0, r0, r0, ror #1
8780450c:	00000000 	andeq	r0, r0, r0
87804510:	ff01803f 			; <UNDEFINED> instruction: 0xff01803f
87804514:	708003e0 	addvc	r0, r0, r0, ror #7
87804518:	04180002 	ldreq	r0, [r8], #-2
8780451c:	00040800 	andeq	r0, r4, r0, lsl #16
87804520:	08000408 	stmdaeq	r0, {r3, sl}
87804524:	06100004 	ldreq	r0, [r0], -r4
87804528:	80072000 	andhi	r2, r7, r0
8780452c:	000000c0 	andeq	r0, r0, r0, asr #1
87804530:	07080004 	streq	r0, [r8, -r4]
87804534:	ff07f8ff 			; <UNDEFINED> instruction: 0xff07f8ff
87804538:	080004f8 	stmdaeq	r0, {r3, r4, r5, r6, r7, sl}
8780453c:	04080004 	streq	r0, [r8], #-4
87804540:	00040800 	andeq	r0, r4, r0, lsl #16
87804544:	10000218 	andne	r0, r0, r8, lsl r2
87804548:	01708003 	cmneq	r0, r3
8780454c:	7f00e0ff 	svcvc	0x0000e0ff
87804550:	00000080 	andeq	r0, r0, r0, lsl #1
87804554:	07080004 	streq	r0, [r8, -r4]
87804558:	ff07f8ff 			; <UNDEFINED> instruction: 0xff07f8ff
8780455c:	080804f8 	stmdaeq	r8, {r3, r4, r5, r6, r7, sl}
87804560:	04080804 	streq	r0, [r8], #-2052	; 0xfffff7fc
87804564:	08040808 	stmdaeq	r4, {r3, fp}
87804568:	083e0408 	ldmdaeq	lr!, {r3, sl}
8780456c:	06080004 	streq	r0, [r8], -r4
87804570:	00011800 	andeq	r1, r1, r0, lsl #16
87804574:	00000060 	andeq	r0, r0, r0, rrx
87804578:	07080004 	streq	r0, [r8, -r4]
8780457c:	ff07f8ff 			; <UNDEFINED> instruction: 0xff07f8ff
87804580:	080804f8 	stmdaeq	r8, {r3, r4, r5, r6, r7, sl}
87804584:	04000804 	streq	r0, [r0], #-2052	; 0xfffff7fc
87804588:	08040008 	stmdaeq	r4, {r3}
8780458c:	003e0400 	eorseq	r0, lr, r0, lsl #8
87804590:	06000006 	streq	r0, [r0], -r6
87804594:	80010000 	andhi	r0, r1, r0
	...
878045a0:	ff01803f 			; <UNDEFINED> instruction: 0xff01803f
878045a4:	708003e0 	addvc	r0, r0, r0, ror #7
878045a8:	04180006 	ldreq	r0, [r8], #-6
878045ac:	02040800 	andeq	r0, r4, #0, 16
878045b0:	08020408 	stmdaeq	r2, {r3, sl}
878045b4:	07f00302 	ldrbeq	r0, [r0, r2, lsl #6]!
878045b8:	0200f083 	andeq	pc, r0, #131	; 0x83
878045bc:	00020000 	andeq	r0, r2, r0
878045c0:	07080004 	streq	r0, [r8, -r4]
878045c4:	ff07f8ff 			; <UNDEFINED> instruction: 0xff07f8ff
878045c8:	080804f8 	stmdaeq	r8, {r3, r4, r5, r6, r7, sl}
878045cc:	00000800 	andeq	r0, r0, r0, lsl #16
878045d0:	08000008 	stmdaeq	r0, {r3}
878045d4:	00080000 	andeq	r0, r8, r0
878045d8:	07080804 	streq	r0, [r8, -r4, lsl #16]
878045dc:	ff07f8ff 			; <UNDEFINED> instruction: 0xff07f8ff
878045e0:	080004f8 	stmdaeq	r0, {r3, r4, r5, r6, r7, sl}
878045e4:	00000000 	andeq	r0, r0, r0
878045e8:	00040000 	andeq	r0, r4, r0
878045ec:	08000408 	stmdaeq	r0, {r3, sl}
878045f0:	07080004 	streq	r0, [r8, -r4]
878045f4:	ff07f8ff 			; <UNDEFINED> instruction: 0xff07f8ff
878045f8:	080004f8 	stmdaeq	r0, {r3, r4, r5, r6, r7, sl}
878045fc:	04080004 	streq	r0, [r8], #-4
87804600:	00000800 	andeq	r0, r0, r0, lsl #16
	...
8780460c:	00000600 	andeq	r0, r0, r0, lsl #12
87804610:	01000007 	tsteq	r0, r7
87804614:	04010004 	streq	r0, [r1], #-4
87804618:	00040100 	andeq	r0, r4, r0, lsl #2
8780461c:	feff0703 	cdp2	7, 15, cr0, cr15, cr3, {0}
87804620:	04fcff07 	ldrbteq	pc, [ip], #3847	; 0xf07	; <UNPREDICTABLE>
87804624:	00040000 	andeq	r0, r4, r0
87804628:	00000400 	andeq	r0, r0, r0, lsl #8
8780462c:	07080004 	streq	r0, [r8, -r4]
87804630:	ff07f8ff 			; <UNDEFINED> instruction: 0xff07f8ff
87804634:	080c04f8 	stmdaeq	ip, {r3, r4, r5, r6, r7, sl}
87804638:	00001800 	andeq	r1, r0, r0, lsl #16
8780463c:	c704003e 	smladxgt	r4, lr, r0, r0
87804640:	c8030580 	stmdagt	r3, {r7, r8, sl}
87804644:	04f80006 	ldrbteq	r0, [r8], #6
87804648:	00043800 	andeq	r3, r4, r0, lsl #16
8780464c:	08000018 	stmdaeq	r0, {r3, r4}
87804650:	07080004 	streq	r0, [r8, -r4]
87804654:	ff07f8ff 			; <UNDEFINED> instruction: 0xff07f8ff
87804658:	080004f8 	stmdaeq	r0, {r3, r4, r5, r6, r7, sl}
8780465c:	00080000 	andeq	r0, r8, r0
87804660:	00000800 	andeq	r0, r0, r0, lsl #16
87804664:	08000008 	stmdaeq	r0, {r3}
87804668:	00080000 	andeq	r0, r8, r0
8780466c:	00001800 	andeq	r1, r0, r0, lsl #16
87804670:	00000060 	andeq	r0, r0, r0, rrx
87804674:	07080004 	streq	r0, [r8, -r4]
87804678:	8007f8ff 	strdhi	pc, [r7], -pc	; <UNPREDICTABLE>
8780467c:	00fc0708 	rscseq	r0, ip, r8, lsl #14
87804680:	00c07f00 	sbceq	r7, r0, r0, lsl #30
87804684:	0700f803 	streq	pc, [r0, -r3, lsl #16]
87804688:	007800c0 	rsbseq	r0, r8, r0, asr #1
8780468c:	07088007 	streq	r8, [r8, -r7]
87804690:	ff07f8ff 			; <UNDEFINED> instruction: 0xff07f8ff
87804694:	080004f8 	stmdaeq	r0, {r3, r4, r5, r6, r7, sl}
87804698:	07080004 	streq	r0, [r8, -r4]
8780469c:	0007f8ff 	strdeq	pc, [r7], -pc	; <UNPREDICTABLE>
878046a0:	00c00308 	sbceq	r0, r0, r8, lsl #6
878046a4:	0000e000 	andeq	lr, r0, r0
878046a8:	1e000038 	mcrne	0, 0, r0, cr0, cr8, {1}
878046ac:	00070000 	andeq	r0, r7, r0
878046b0:	04c00100 	strbeq	r0, [r0], #256	; 0x100
878046b4:	ff07f000 			; <UNDEFINED> instruction: 0xff07f000
878046b8:	000004f8 	strdeq	r0, [r0], -r8
878046bc:	00000000 	andeq	r0, r0, r0
878046c0:	ff01807f 			; <UNDEFINED> instruction: 0xff01807f
878046c4:	708003e0 	addvc	r0, r0, r0, ror #7
878046c8:	04180006 	ldreq	r0, [r8], #-6
878046cc:	00040800 	andeq	r0, r4, r0, lsl #16
878046d0:	18000608 	stmdane	r0, {r3, r9, sl}
878046d4:	01300003 	teqeq	r0, r3
878046d8:	7f00e0ff 	svcvc	0x0000e0ff
878046dc:	00000080 	andeq	r0, r0, r0, lsl #1
878046e0:	07080004 	streq	r0, [r8, -r4]
878046e4:	ff07f8ff 			; <UNDEFINED> instruction: 0xff07f8ff
878046e8:	080404f8 	stmdaeq	r4, {r3, r4, r5, r6, r7, sl}
878046ec:	04000404 	streq	r0, [r0], #-1028	; 0xfffffbfc
878046f0:	04040004 	streq	r0, [r4], #-4
878046f4:	00040400 	andeq	r0, r4, r0, lsl #8
878046f8:	03000c06 	movweq	r0, #3078	; 0xc06
878046fc:	f00100f8 			; <UNDEFINED> instruction: 0xf00100f8
	...
87804708:	ff01807f 			; <UNDEFINED> instruction: 0xff01807f
8780470c:	708003e0 	addvc	r0, r0, r0, ror #7
87804710:	04880006 	streq	r0, [r8], #6
87804714:	00048800 	andeq	r8, r4, r0, lsl #16
87804718:	3c0006c8 	stccc	6, cr0, [r0], {200}	; 0xc8
8780471c:	013e0003 	teqeq	lr, r3
87804720:	7f00e6ff 	svcvc	0x0000e6ff
87804724:	00000084 	andeq	r0, r0, r4, lsl #1
87804728:	07080004 	streq	r0, [r8, -r4]
8780472c:	ff07f8ff 			; <UNDEFINED> instruction: 0xff07f8ff
87804730:	080804f8 	stmdaeq	r8, {r3, r4, r5, r6, r7, sl}
87804734:	04000804 	streq	r0, [r0], #-2052	; 0xfffff7fc
87804738:	0f04000c 	svceq	0x0004000c
8780473c:	c00b0400 	andgt	r0, fp, r0, lsl #8
87804740:	03f01006 	mvnseq	r1, #6
87804744:	e00138f0 	strd	r3, [r1], -r0
87804748:	08000008 	stmdaeq	r0, {r3}
8780474c:	01000000 	mrseq	r0, (UNDEF: 0)
87804750:	f003f8e0 			; <UNDEFINED> instruction: 0xf003f8e0
87804754:	10300630 	eorsne	r0, r0, r0, lsr r6
87804758:	04081804 	streq	r1, [r8], #-2052	; 0xfffff7fc
8780475c:	0c040818 	stceq	8, cr0, [r4], {24}
87804760:	080c0408 	stmdaeq	ip, {r3, sl}
87804764:	02180602 	andseq	r0, r8, #2097152	; 0x200000
87804768:	8107f007 	tsthi	r7, r7	; <UNPREDICTABLE>
8780476c:	000000e0 	andeq	r0, r0, r0, ror #1
87804770:	06008001 	streq	r8, [r0], -r1
87804774:	00040000 	andeq	r0, r4, r0
87804778:	00000400 	andeq	r0, r0, r0, lsl #8
8780477c:	07080004 	streq	r0, [r8, -r4]
87804780:	ff07f8ff 			; <UNDEFINED> instruction: 0xff07f8ff
87804784:	080004f8 	stmdaeq	r0, {r3, r4, r5, r6, r7, sl}
87804788:	04000004 	streq	r0, [r0], #-4
8780478c:	00060000 	andeq	r0, r6, r0
87804790:	00800100 	addeq	r0, r0, r0, lsl #2
87804794:	07000004 	streq	r0, [r0, -r4]
87804798:	ff07e0ff 			; <UNDEFINED> instruction: 0xff07e0ff
8780479c:	180004f0 	stmdane	r0, {r4, r5, r6, r7, sl}
878047a0:	00080000 	andeq	r0, r8, r0
878047a4:	00000800 	andeq	r0, r0, r0, lsl #16
878047a8:	08000008 	stmdaeq	r0, {r3}
878047ac:	04080000 	streq	r0, [r8], #-0
878047b0:	ff071000 			; <UNDEFINED> instruction: 0xff071000
878047b4:	000004e0 	andeq	r0, r0, r0, ror #9
878047b8:	06000004 	streq	r0, [r0], -r4
878047bc:	e0070000 	and	r0, r7, r0
878047c0:	00fe0700 	rscseq	r0, lr, r0, lsl #14
878047c4:	00e01f04 	rsceq	r1, r0, r4, lsl #30
878047c8:	0000f801 	andeq	pc, r0, r1, lsl #16
878047cc:	e0010038 	and	r0, r1, r8, lsr r0
878047d0:	07003e04 	streq	r3, [r0, -r4, lsl #28]
878047d4:	000600c0 	andeq	r0, r6, r0, asr #1
878047d8:	00000400 	andeq	r0, r0, r0, lsl #8
878047dc:	07000004 	streq	r0, [r0, -r4]
878047e0:	ff0700e0 			; <UNDEFINED> instruction: 0xff0700e0
878047e4:	f81f04c0 			; <UNDEFINED> instruction: 0xf81f04c0
878047e8:	07c00700 	strbeq	r0, [r0, r0, lsl #14]
878047ec:	ff0700f8 			; <UNDEFINED> instruction: 0xff0700f8
878047f0:	f83f0480 			; <UNDEFINED> instruction: 0xf83f0480
878047f4:	04c00700 	strbeq	r0, [r0], #1792	; 0x700
878047f8:	000700f8 	strdeq	r0, [r7], -r8
878047fc:	00000400 	andeq	r0, r0, r0, lsl #8
87804800:	04000000 	streq	r0, [r0], #-0
87804804:	00060800 	andeq	r0, r6, r0, lsl #16
87804808:	78c00718 	stmiavc	r0, {r3, r4, r8, r9, sl}^
8780480c:	00c8f105 	sbceq	pc, r8, r5, lsl #2
87804810:	1f00003e 	svcne	0x0000003e
87804814:	e8630480 	stmda	r3!, {r7, sl}^
87804818:	06f88007 	ldrbteq	r8, [r8], r7
8780481c:	00041800 	andeq	r1, r4, r0, lsl #16
87804820:	00000008 	andeq	r0, r0, r8
87804824:	06000004 	streq	r0, [r0], -r4
87804828:	80070000 	andhi	r0, r7, r0
8780482c:	08e00700 	stmiaeq	r0!, {r8, r9, sl}^
87804830:	00087c04 	andeq	r7, r8, r4, lsl #24
87804834:	0700f81f 	smuadeq	r0, pc, r8	; <UNPREDICTABLE>
87804838:	081800f8 	ldmdaeq	r8, {r3, r4, r5, r6, r7}
8780483c:	0708e004 	streq	lr, [r8, -r4]
87804840:	00060000 	andeq	r0, r6, r0
87804844:	00000400 	andeq	r0, r0, r0, lsl #8
87804848:	01000000 	mrseq	r0, (UNDEF: 0)
8780484c:	00060800 	andeq	r0, r6, r0, lsl #16
87804850:	f8000438 			; <UNDEFINED> instruction: 0xf8000438
87804854:	04e80304 	strbteq	r0, [r8], #772	; 0x304
87804858:	7c04080f 	stcvc	8, cr0, [r4], {15}
8780485c:	08f00508 	ldmeq	r0!, {r3, r8, sl}^
87804860:	0708c007 	streq	ip, [r8, -r7]
87804864:	00041800 	andeq	r1, r4, r0, lsl #16
87804868:	00000060 	andeq	r0, r0, r0, rrx
	...
87804878:	3f000000 	svccc	0x00000000
8780487c:	0020feff 	strdeq	pc, [r0], -pc	; <UNPREDICTABLE>
87804880:	02002002 	andeq	r2, r0, #2
87804884:	20020020 	andcs	r0, r2, r0, lsr #32
87804888:	00200200 	eoreq	r0, r0, r0, lsl #4
8780488c:	00000002 	andeq	r0, r0, r2
87804890:	00000000 	andeq	r0, r0, r0
87804894:	00080000 	andeq	r0, r8, r0
87804898:	00000700 	andeq	r0, r0, r0, lsl #14
8780489c:	0000c000 	andeq	ip, r0, r0
878048a0:	06000038 			; <UNDEFINED> instruction: 0x06000038
878048a4:	c0010000 	andgt	r0, r1, r0
878048a8:	00300000 	eorseq	r0, r0, r0
878048ac:	00000e00 	andeq	r0, r0, r0, lsl #28
878048b0:	00000001 	andeq	r0, r0, r1
878048b4:	00000000 	andeq	r0, r0, r0
878048b8:	00200000 	eoreq	r0, r0, r0
878048bc:	02002002 	andeq	r2, r0, #2
878048c0:	20020020 	andcs	r0, r2, r0, lsr #32
878048c4:	00200200 	eoreq	r0, r0, r0, lsl #4
878048c8:	feff3f02 	cdp2	15, 15, cr3, cr15, cr2, {0}
	...
878048e0:	00000800 	andeq	r0, r0, r0, lsl #16
878048e4:	30000010 	andcc	r0, r0, r0, lsl r0
878048e8:	00200000 	eoreq	r0, r0, r0
878048ec:	00003000 	andeq	r3, r0, r0
878048f0:	08000010 	stmdaeq	r0, {r4}
	...
878048fc:	00010000 	andeq	r0, r1, r0
87804900:	00000100 	andeq	r0, r0, r0, lsl #2
87804904:	01000001 	tsteq	r0, r1
87804908:	00010000 	andeq	r0, r1, r0
8780490c:	00000100 	andeq	r0, r0, r0, lsl #2
87804910:	01000001 	tsteq	r0, r1
87804914:	00010000 	andeq	r0, r1, r0
87804918:	00000100 	andeq	r0, r0, r0, lsl #2
8780491c:	01000001 	tsteq	r0, r1
	...
87804928:	00002000 	andeq	r2, r0, r0
8780492c:	10000020 	andne	r0, r0, r0, lsr #32
87804930:	00100000 	andseq	r0, r0, r0
	...
87804948:	1900f000 	stmdbne	r0, {ip, sp, lr, pc}
8780494c:	181b00f8 	ldmdane	fp, {r3, r4, r5, r6, r7}
87804950:	00082200 	andeq	r2, r8, r0, lsl #4
87804954:	24000826 	strcs	r0, [r0], #-2086	; 0xfffff7da
87804958:	10240008 	eorne	r0, r4, r8
8780495c:	00f83f00 	rscseq	r3, r8, r0, lsl #30
87804960:	0000f81f 	andeq	pc, r0, pc, lsl r8	; <UNPREDICTABLE>
87804964:	18000008 	stmdane	r0, {r3}
87804968:	04000000 	streq	r0, [r0], #-0
8780496c:	ff070000 			; <UNDEFINED> instruction: 0xff070000
87804970:	f0ff0ff8 			; <UNDEFINED> instruction: 0xf0ff0ff8
87804974:	00181800 	andseq	r1, r8, r0, lsl #16
87804978:	20000810 	andcs	r0, r0, r0, lsl r8
8780497c:	08200008 	stmdaeq	r0!, {r3}
87804980:	00183000 	andseq	r3, r8, r0
87804984:	0f00f01f 	svceq	0x0000f01f
87804988:	000000c0 	andeq	r0, r0, r0, asr #1
8780498c:	00000000 	andeq	r0, r0, r0
87804990:	1f00c007 	svcne	0x0000c007
87804994:	301800f0 	ldrshcc	r0, [r8], -r0	; <UNPREDICTABLE>
87804998:	00082000 	andeq	r2, r8, r0
8780499c:	20000820 	andcs	r0, r0, r0, lsr #16
878049a0:	083c0008 	ldmdaeq	ip!, {r3}
878049a4:	00101c00 	andseq	r1, r0, r0, lsl #24
878049a8:	00006000 	andeq	r6, r0, r0
	...
878049b4:	1f00c007 	svcne	0x0000c007
878049b8:	183800f0 	ldmdane	r8!, {r4, r5, r6, r7}
878049bc:	00082000 	andeq	r2, r8, r0
878049c0:	20000820 	andcs	r0, r0, r0, lsr #16
878049c4:	10100408 	andsne	r0, r0, r8, lsl #8
878049c8:	0ff8ff07 	svceq	0x00f8ff07
878049cc:	0000f0ff 	strdeq	pc, [r0], -pc	; <UNPREDICTABLE>
878049d0:	00000010 	andeq	r0, r0, r0, lsl r0
878049d4:	00000000 	andeq	r0, r0, r0
878049d8:	07000000 	streq	r0, [r0, -r0]
878049dc:	f01f00c0 			; <UNDEFINED> instruction: 0xf01f00c0
878049e0:	00301200 	eorseq	r1, r0, r0, lsl #4
878049e4:	22001822 	andcs	r1, r0, #2228224	; 0x220000
878049e8:	08220008 	stmdaeq	r2!, {r3}
878049ec:	00083200 	andeq	r3, r8, r0, lsl #4
878049f0:	0e00101e 	mcreq	0, 0, r1, cr0, cr14, {0}
878049f4:	00000020 	andeq	r0, r0, r0, lsr #32
878049f8:	00000000 	andeq	r0, r0, r0
878049fc:	20000020 	andcs	r0, r0, r0, lsr #32
87804a00:	08200008 	stmdaeq	r0!, {r3}
87804a04:	03f8ff01 	mvnseq	pc, #1, 30
87804a08:	2006f8ff 	strdcs	pc, [r6], -pc	; <UNPREDICTABLE>
87804a0c:	08200408 	stmdaeq	r0!, {r3, sl}
87804a10:	07082004 	streq	r2, [r8, -r4]
87804a14:	00030020 	andeq	r0, r3, r0, lsr #32
	...
87804a20:	0e000e00 	cdpeq	14, 0, cr0, cr0, cr0, {0}
87804a24:	f31f006e 	vhadd.u16	q0, <illegal reg q7.5>, q15
87804a28:	00b13100 	adcseq	r3, r1, r0, lsl #2
87804a2c:	2000b120 	andcs	fp, r0, r0, lsr #2
87804a30:	913100b1 	ldrhls	r0, [r1, -r1]!
87804a34:	00131f00 	andseq	r1, r3, r0, lsl #30
87804a38:	20001e2e 	andcs	r1, r0, lr, lsr #28
87804a3c:	0030000e 	eorseq	r0, r0, lr
87804a40:	04000000 	streq	r0, [r0], #-0
87804a44:	ff070800 			; <UNDEFINED> instruction: 0xff070800
87804a48:	f8ff0ff8 			; <UNDEFINED> instruction: 0xf8ff0ff8
87804a4c:	00081000 	andeq	r1, r8, r0
87804a50:	20000020 	andcs	r0, r0, r0, lsr #32
87804a54:	08200000 	stmdaeq	r0!, {}	; <UNPREDICTABLE>
87804a58:	00f83f00 	rscseq	r3, r8, r0, lsl #30
87804a5c:	0000f81f 	andeq	pc, r0, pc, lsl r8	; <UNPREDICTABLE>
87804a60:	00000008 	andeq	r0, r0, r8
87804a64:	00000000 	andeq	r0, r0, r0
87804a68:	20000000 	andcs	r0, r0, r0
87804a6c:	08200008 	stmdaeq	r0!, {r3}
87804a70:	06082000 	streq	r2, [r8], -r0
87804a74:	3f06f83f 	svccc	0x0006f83f
87804a78:	080000f8 	stmdaeq	r0, {r3, r4, r5, r6, r7}
87804a7c:	00080000 	andeq	r0, r8, r0
87804a80:	00000800 	andeq	r0, r0, r0, lsl #16
	...
87804a90:	03000003 	movweq	r0, #3
87804a94:	00012000 	andeq	r2, r1, r0
87804a98:	20000120 	andcs	r0, r0, r0, lsr #2
87804a9c:	fe3f0603 	cdp2	6, 3, cr0, cr15, cr3, {0}
87804aa0:	00fc3f06 	rscseq	r3, ip, r6, lsl #30
	...
87804aac:	04000000 	streq	r0, [r0], #-0
87804ab0:	ff070800 			; <UNDEFINED> instruction: 0xff070800
87804ab4:	f8ff0ff8 			; <UNDEFINED> instruction: 0xf8ff0ff8
87804ab8:	00880100 	addeq	r0, r8, r0, lsl #2
87804abc:	2f000003 	svccs	0x00000003
87804ac0:	f83800c0 			; <UNDEFINED> instruction: 0xf83800c0
87804ac4:	00382000 	eorseq	r2, r8, r0
87804ac8:	00000820 	andeq	r0, r0, r0, lsr #16
87804acc:	00000008 	andeq	r0, r0, r8
87804ad0:	00000000 	andeq	r0, r0, r0
87804ad4:	00040000 	andeq	r0, r4, r0
87804ad8:	08000408 	stmdaeq	r0, {r3, sl}
87804adc:	07080004 	streq	r0, [r8, -r4]
87804ae0:	ff0ff8ff 			; <UNDEFINED> instruction: 0xff0ff8ff
87804ae4:	080000f8 	stmdaeq	r0, {r3, r4, r5, r6, r7}
87804ae8:	00080000 	andeq	r0, r8, r0
87804aec:	00000800 	andeq	r0, r0, r0, lsl #16
87804af0:	00000000 	andeq	r0, r0, r0
87804af4:	00082000 	andeq	r2, r8, r0
87804af8:	3f00f83f 	svccc	0x0000f83f
87804afc:	081000f8 	ldmdaeq	r0, {r3, r4, r5, r6, r7}
87804b00:	00002000 	andeq	r2, r0, r0
87804b04:	3f00f83f 	svccc	0x0000f83f
87804b08:	081000f8 	ldmdaeq	r0, {r3, r4, r5, r6, r7}
87804b0c:	00002000 	andeq	r2, r0, r0
87804b10:	3f00f83f 	svccc	0x0000f83f
87804b14:	080000f8 	stmdaeq	r0, {r3, r4, r5, r6, r7}
87804b18:	00000000 	andeq	r0, r0, r0
87804b1c:	3f000820 	svccc	0x00000820
87804b20:	f83f00f8 			; <UNDEFINED> instruction: 0xf83f00f8
87804b24:	00081000 	andeq	r1, r8, r0
87804b28:	20000010 	andcs	r0, r0, r0, lsl r0
87804b2c:	08200000 	stmdaeq	r0!, {}	; <UNPREDICTABLE>
87804b30:	00f83f00 	rscseq	r3, r8, r0, lsl #30
87804b34:	0000f81f 	andeq	pc, r0, pc, lsl r8	; <UNPREDICTABLE>
87804b38:	00000008 	andeq	r0, r0, r8
87804b3c:	00000000 	andeq	r0, r0, r0
87804b40:	0f00c007 	svceq	0x0000c007
87804b44:	301800f0 	ldrshcc	r0, [r8], -r0	; <UNPREDICTABLE>
87804b48:	00083000 	andeq	r3, r8, r0
87804b4c:	20000820 	andcs	r0, r0, r0, lsr #16
87804b50:	08300008 	ldmdaeq	r0!, {r3}
87804b54:	00301800 	eorseq	r1, r0, r0, lsl #16
87804b58:	0700f00f 	streq	pc, [r0, -pc]
87804b5c:	000000c0 	andeq	r0, r0, r0, asr #1
87804b60:	00000000 	andeq	r0, r0, r0
87804b64:	3f000120 	svccc	0x00000120
87804b68:	ff3f00ff 			; <UNDEFINED> instruction: 0xff3f00ff
87804b6c:	00111000 	andseq	r1, r1, r0
87804b70:	20000920 	andcs	r0, r0, r0, lsr #18
87804b74:	08200008 	stmdaeq	r0!, {r3}
87804b78:	00383000 	eorseq	r3, r8, r0
87804b7c:	0f00f01f 	svceq	0x0000f01f
87804b80:	000000c0 	andeq	r0, r0, r0, asr #1
87804b84:	00000000 	andeq	r0, r0, r0
87804b88:	1f00c007 	svcne	0x0000c007
87804b8c:	183800f0 	ldmdane	r8!, {r4, r5, r6, r7}
87804b90:	00082000 	andeq	r2, r8, r0
87804b94:	20000820 	andcs	r0, r0, r0, lsr #16
87804b98:	11100009 	tstne	r0, r9
87804b9c:	00ff1f00 	rscseq	r1, pc, r0, lsl #30
87804ba0:	0000ff3f 	andeq	pc, r0, pc, lsr pc	; <UNPREDICTABLE>
87804ba4:	00000001 	andeq	r0, r0, r1
87804ba8:	00082000 	andeq	r2, r8, r0
87804bac:	20000820 	andcs	r0, r0, r0, lsr #16
87804bb0:	f83f0008 			; <UNDEFINED> instruction: 0xf83f0008
87804bb4:	00f83f00 	rscseq	r3, r8, r0, lsl #30
87804bb8:	10000808 	andne	r0, r0, r8, lsl #16
87804bbc:	08200008 	stmdaeq	r0!, {r3}
87804bc0:	00002000 	andeq	r2, r0, r0
87804bc4:	30000030 	andcc	r0, r0, r0, lsr r0
	...
87804bd0:	0c000000 	stceq	0, cr0, [r0], {-0}
87804bd4:	181e0078 	ldmdane	lr, {r3, r4, r5, r6}
87804bd8:	00083300 	andeq	r3, r8, r0, lsl #6
87804bdc:	21000823 	tstcs	r0, r3, lsr #16
87804be0:	88210008 	stmdahi	r1!, {r3}
87804be4:	00982100 	addseq	r2, r8, r0, lsl #2
87804be8:	3800f030 	stmdacc	r0, {r4, r5, ip, sp, lr, pc}
87804bec:	00000060 	andeq	r0, r0, r0, rrx
87804bf0:	00000000 	andeq	r0, r0, r0
87804bf4:	20000020 	andcs	r0, r0, r0, lsr #32
87804bf8:	00200000 	eoreq	r0, r0, r0
87804bfc:	03f0ff00 	mvnseq	pc, #0, 30
87804c00:	2000f8ff 	strdcs	pc, [r0], -pc	; <UNPREDICTABLE>
87804c04:	08200008 	stmdaeq	r0!, {r3}
87804c08:	00082000 	andeq	r2, r8, r0
87804c0c:	00003000 	andeq	r3, r0, r0
	...
87804c18:	3f000020 	svccc	0x00000020
87804c1c:	f87f00f0 			; <UNDEFINED> instruction: 0xf87f00f0
87804c20:	00180000 	andseq	r0, r8, r0
87804c24:	00000800 	andeq	r0, r0, r0, lsl #16
87804c28:	10200008 	eorne	r0, r0, r8
87804c2c:	00f83f00 	rscseq	r3, r8, r0, lsl #30
87804c30:	0000f07f 	andeq	pc, r0, pc, ror r0	; <UNPREDICTABLE>
87804c34:	00000010 	andeq	r0, r0, r0, lsl r0
87804c38:	00000000 	andeq	r0, r0, r0
87804c3c:	30000020 	andcc	r0, r0, r0, lsr #32
87804c40:	003c0000 	eorseq	r0, ip, r0
87804c44:	00803f00 	addeq	r3, r0, r0, lsl #30
87804c48:	0000f023 	andeq	pc, r0, r3, lsr #32
87804c4c:	70000078 	andvc	r0, r0, r8, ror r0
87804c50:	00802300 	addeq	r2, r0, r0, lsl #6
87804c54:	3000003c 	andcc	r0, r0, ip, lsr r0
87804c58:	00200000 	eoreq	r0, r0, r0
87804c5c:	00002000 	andeq	r2, r0, r0
87804c60:	3f00003c 	svccc	0x0000003c
87804c64:	f82300e0 			; <UNDEFINED> instruction: 0xf82300e0
87804c68:	00e00000 	rsceq	r0, r0, r0
87804c6c:	3e000027 	cdpcc	0, 0, cr0, cr0, cr7, {1}
87804c70:	e03f0000 	eors	r0, pc, r0
87804c74:	00f82100 	rscseq	r2, r8, r0, lsl #2
87804c78:	3e00e001 	cdpcc	0, 0, cr14, cr0, cr1, {0}
87804c7c:	00200000 	eoreq	r0, r0, r0
87804c80:	00000000 	andeq	r0, r0, r0
87804c84:	20000820 	andcs	r0, r0, r0, lsr #16
87804c88:	38380008 	ldmdacc	r8!, {r3}
87804c8c:	00683e00 	rsbeq	r3, r8, r0, lsl #28
87804c90:	03008027 	movweq	r8, #39	; 0x27
87804c94:	f82c00c8 			; <UNDEFINED> instruction: 0xf82c00c8
87804c98:	00383800 	eorseq	r3, r8, r0, lsl #16
87804c9c:	20001820 	andcs	r1, r0, r0, lsr #16
87804ca0:	00000008 	andeq	r0, r0, r8
87804ca4:	00000000 	andeq	r0, r0, r0
87804ca8:	30000020 	andcc	r0, r0, r0, lsr #32
87804cac:	013c0003 	teqeq	ip, r3
87804cb0:	00833f00 	addeq	r3, r3, r0, lsl #30
87804cb4:	0000ec23 	andeq	lr, r0, r3, lsr #24
87804cb8:	80230070 	eorhi	r0, r3, r0, ror r0
87804cbc:	00003c00 	andeq	r3, r0, r0, lsl #24
87804cc0:	20000020 	andcs	r0, r0, r0, lsr #32
	...
87804ccc:	38000000 	stmdacc	r0, {}	; <UNPREDICTABLE>
87804cd0:	38200008 	stmdacc	r0!, {r3}
87804cd4:	00f82000 	rscseq	r2, r8, r0
87804cd8:	2f00e823 	svccs	0x0000e823
87804cdc:	083e0088 	ldmdaeq	lr!, {r3, r7}
87804ce0:	00083800 	andeq	r3, r8, r0, lsl #16
87804ce4:	00001820 	andeq	r1, r0, r0, lsr #16
87804ce8:	00000070 	andeq	r0, r0, r0, ror r0
	...
87804cfc:	14000008 	strne	r0, [r0], #-8
87804d00:	fcf71f00 	ldc2l	15, cr1, [r7]
87804d04:	20060030 	andcs	r0, r6, r0, lsr r0
87804d08:	00000200 	andeq	r0, r0, r0, lsl #4
	...
87804d20:	ffff0000 			; <UNDEFINED> instruction: 0xffff0000
87804d24:	000000ff 	strdeq	r0, [r0], -pc	; <UNPREDICTABLE>
	...
87804d38:	00200000 	eoreq	r0, r0, r0
87804d3c:	06003002 	streq	r3, [r0], -r2
87804d40:	00fcf71f 	rscseq	pc, ip, pc, lsl r7	; <UNPREDICTABLE>
87804d44:	08000014 	stmdaeq	r0, {r2, r4}
	...
87804d58:	18000000 	stmdane	r0, {}	; <UNPREDICTABLE>
87804d5c:	00600000 	rsbeq	r0, r0, r0
87804d60:	00004000 	andeq	r4, r0, r0
87804d64:	20000040 	andcs	r0, r0, r0, asr #32
87804d68:	00100000 	andseq	r0, r0, r0
87804d6c:	00000800 	andeq	r0, r0, r0, lsl #16
87804d70:	04000004 	streq	r0, [r0], #-4
87804d74:	000c0000 	andeq	r0, ip, r0
87804d78:	00001000 	andeq	r1, r0, r0

87804d7c <asc2_1608>:
	...
87804d90:	cc1f0000 	ldcgt	0, cr0, [pc], {-0}
87804d94:	00000c00 	andeq	r0, r0, r0, lsl #24
87804d98:	00000000 	andeq	r0, r0, r0
87804d9c:	00080000 	andeq	r0, r8, r0
87804da0:	00600030 	rsbeq	r0, r0, r0, lsr r0
87804da4:	00300008 	eorseq	r0, r0, r8
87804da8:	00000060 	andeq	r0, r0, r0, rrx
87804dac:	fc032002 	stc2	0, cr2, [r3], {2}
87804db0:	2002201e 	andcs	r2, r2, lr, lsl r0
87804db4:	201efc03 	andscs	pc, lr, r3, lsl #24
87804db8:	00002002 	andeq	r2, r0, r2
87804dbc:	180e0000 	stmdane	lr, {}	; <UNPREDICTABLE>
87804dc0:	ff3f0411 			; <UNDEFINED> instruction: 0xff3f0411
87804dc4:	780c8410 	stmdavc	ip, {r4, sl, pc}
87804dc8:	00000000 	andeq	r0, r0, r0
87804dcc:	8410000f 	ldrhi	r0, [r0], #-15
87804dd0:	c000380f 	andgt	r3, r0, pc, lsl #16
87804dd4:	84187807 	ldrhi	r7, [r8], #-2055	; 0xfffff7f9
87804dd8:	00007800 	andeq	r7, r0, r0, lsl #16
87804ddc:	840f7800 	strhi	r7, [pc], #-2048	; 87804de4 <asc2_1608+0x68>
87804de0:	2411c410 	ldrcs	ip, [r1], #-1040	; 0xfffffbf0
87804de4:	e400980e 	str	r9, [r0], #-2062	; 0xfffff7f2
87804de8:	08008400 	stmdaeq	r0, {sl, pc}
87804dec:	00680008 	rsbeq	r0, r8, r8
87804df0:	00000070 	andeq	r0, r0, r0, ror r0
	...
87804e00:	e0070000 	and	r0, r7, r0
87804e04:	04201818 	strteq	r1, [r0], #-2072	; 0xfffff7e8
87804e08:	00000240 	andeq	r0, r0, r0, asr #4
87804e0c:	02400000 	subeq	r0, r0, #0
87804e10:	18180420 	ldmdane	r8, {r5, sl}
87804e14:	0000e007 	andeq	lr, r0, r7
87804e18:	00000000 	andeq	r0, r0, r0
87804e1c:	40024002 	andmi	r4, r2, r2
87804e20:	f00f8001 			; <UNDEFINED> instruction: 0xf00f8001
87804e24:	40028001 	andmi	r8, r2, r1
87804e28:	00004002 	andeq	r4, r0, r2
87804e2c:	80008000 	andhi	r8, r0, r0
87804e30:	f80f8000 			; <UNDEFINED> instruction: 0xf80f8000
87804e34:	80008000 	andhi	r8, r0, r0
87804e38:	00008000 	andeq	r8, r0, r0
87804e3c:	0d000100 	stfeqs	f0, [r0, #-0]
87804e40:	00000e00 	andeq	r0, r0, r0, lsl #28
	...
87804e4c:	80000000 	andhi	r0, r0, r0
87804e50:	80008000 	andhi	r8, r0, r0
87804e54:	80008000 	andhi	r8, r0, r0
87804e58:	80008000 	andhi	r8, r0, r0
87804e5c:	0c000000 	stceq	0, cr0, [r0], {-0}
87804e60:	00000c00 	andeq	r0, r0, r0, lsl #24
	...
87804e6c:	06000000 	streq	r0, [r0], -r0
87804e70:	60001800 	andvs	r1, r0, r0, lsl #16
87804e74:	00068001 	andeq	r8, r6, r1
87804e78:	00200018 	eoreq	r0, r0, r8, lsl r0
87804e7c:	f0070000 			; <UNDEFINED> instruction: 0xf0070000
87804e80:	04100808 	ldreq	r0, [r0], #-2056	; 0xfffff7f8
87804e84:	08080410 	stmdaeq	r8, {r4, sl}
87804e88:	0000f007 	andeq	pc, r0, r7
87804e8c:	04080000 	streq	r0, [r8], #-0
87804e90:	fc1f0408 	ldc2	4, cr0, [pc], {8}
87804e94:	04000400 	streq	r0, [r0], #-1024	; 0xfffffc00
87804e98:	00000000 	andeq	r0, r0, r0
87804e9c:	0c0e0000 	stceq	0, cr0, [lr], {-0}
87804ea0:	24101410 	ldrcs	r1, [r0], #-1040	; 0xfffffbf0
87804ea4:	84114410 	ldrhi	r4, [r1], #-1040	; 0xfffffbf0
87804ea8:	00000c0e 	andeq	r0, r0, lr, lsl #24
87804eac:	180c0000 	stmdane	ip, {}	; <UNPREDICTABLE>
87804eb0:	04110410 	ldreq	r0, [r1], #-1040	; 0xfffffbf0
87804eb4:	88120411 	ldmdahi	r2, {r0, r4, sl}
87804eb8:	0000700c 	andeq	r7, r0, ip
87804ebc:	e0000000 	and	r0, r0, r0
87804ec0:	24042003 	strcs	r2, [r4], #-3
87804ec4:	fc1f2408 	ldc2	4, cr2, [pc], {8}
87804ec8:	00002400 	andeq	r2, r0, r0, lsl #8
87804ecc:	981f0000 	ldmdals	pc, {}	; <UNPREDICTABLE>
87804ed0:	04118410 	ldreq	r8, [r1], #-1040	; 0xfffffbf0
87804ed4:	88100411 	ldmdahi	r0, {r0, r4, sl}
87804ed8:	00007010 	andeq	r7, r0, r0, lsl r0
87804edc:	f0070000 			; <UNDEFINED> instruction: 0xf0070000
87804ee0:	04118808 	ldreq	r8, [r1], #-2056	; 0xfffff7f8
87804ee4:	88180411 	ldmdahi	r8, {r0, r4, sl}
87804ee8:	00007000 	andeq	r7, r0, r0
87804eec:	001c0000 	andseq	r0, ip, r0
87804ef0:	fc100010 	ldc2	0, cr0, [r0], {16}
87804ef4:	001c0013 	andseq	r0, ip, r3, lsl r0
87804ef8:	00000010 	andeq	r0, r0, r0, lsl r0
87804efc:	380e0000 	stmdacc	lr, {}	; <UNPREDICTABLE>
87804f00:	84104411 	ldrhi	r4, [r0], #-1041	; 0xfffffbef
87804f04:	44118410 	ldrmi	r8, [r1], #-1040	; 0xfffffbf0
87804f08:	0000380e 	andeq	r3, r0, lr, lsl #16
87804f0c:	00070000 	andeq	r0, r7, r0
87804f10:	44108c08 	ldrmi	r8, [r0], #-3080	; 0xfffff3f8
87804f14:	88084410 	stmdahi	r8, {r4, sl, lr}
87804f18:	0000f007 	andeq	pc, r0, r7
87804f1c:	00000000 	andeq	r0, r0, r0
87804f20:	0c030000 	stceq	0, cr0, [r3], {-0}
87804f24:	00000c03 	andeq	r0, r0, r3, lsl #24
	...
87804f30:	06010100 	streq	r0, [r1], -r0, lsl #2
	...
87804f3c:	80000000 	andhi	r0, r0, r0
87804f40:	20024001 	andcs	r4, r2, r1
87804f44:	08081004 	stmdaeq	r8, {r2, ip}
87804f48:	00000410 	andeq	r0, r0, r0, lsl r4
87804f4c:	20022002 	andcs	r2, r2, r2
87804f50:	20022002 	andcs	r2, r2, r2
87804f54:	20022002 	andcs	r2, r2, r2
87804f58:	00002002 	andeq	r2, r0, r2
87804f5c:	04100000 	ldreq	r0, [r0], #-0
87804f60:	10040808 	andne	r0, r4, r8, lsl #16
87804f64:	40012002 	andmi	r2, r1, r2
87804f68:	00008000 	andeq	r8, r0, r0
87804f6c:	000e0000 	andeq	r0, lr, r0
87804f70:	0c100012 	ldceq	0, cr0, [r0], {18}
87804f74:	80106c10 	andshi	r6, r0, r0, lsl ip
87804f78:	0000000f 	andeq	r0, r0, pc
87804f7c:	180ce003 	stmdane	ip, {r0, r1, sp, lr, pc}
87804f80:	2414e413 	ldrcs	lr, [r4], #-1043	; 0xfffffbed
87804f84:	2808c417 	stmdacs	r8, {r0, r1, r2, r4, sl, lr, pc}
87804f88:	0000d007 	andeq	sp, r0, r7
87804f8c:	3c000400 	cfstrscc	mvf0, [r0], {-0}
87804f90:	401cc403 	andsmi	ip, ip, r3, lsl #8
87804f94:	e4004007 	str	r4, [r0], #-7
87804f98:	04001c00 	streq	r1, [r0], #-3072	; 0xfffff400
87804f9c:	fc1f0410 	ldc2	4, cr0, [pc], {16}
87804fa0:	04110411 	ldreq	r0, [r1], #-1041	; 0xfffffbef
87804fa4:	880e0411 	stmdahi	lr, {r0, r4, sl}
87804fa8:	00007000 	andeq	r7, r0, r0
87804fac:	180ce003 	stmdane	ip, {r0, r1, sp, lr, pc}
87804fb0:	04100410 	ldreq	r0, [r0], #-1040	; 0xfffffbf0
87804fb4:	08100410 	ldmdaeq	r0, {r4, sl}
87804fb8:	0000101c 	andeq	r1, r0, ip, lsl r0
87804fbc:	fc1f0410 	ldc2	4, cr0, [pc], {16}
87804fc0:	04100410 	ldreq	r0, [r0], #-1040	; 0xfffffbf0
87804fc4:	08080410 	stmdaeq	r8, {r4, sl}
87804fc8:	0000f007 	andeq	pc, r0, r7
87804fcc:	fc1f0410 	ldc2	4, cr0, [pc], {16}
87804fd0:	04110411 	ldreq	r0, [r1], #-1041	; 0xfffffbef
87804fd4:	0410c417 	ldreq	ip, [r0], #-1047	; 0xfffffbe9
87804fd8:	00001808 	andeq	r1, r0, r8, lsl #16
87804fdc:	fc1f0410 	ldc2	4, cr0, [pc], {16}
87804fe0:	00110411 	andseq	r0, r1, r1, lsl r4
87804fe4:	0010c017 	andseq	ip, r0, r7, lsl r0
87804fe8:	00000008 	andeq	r0, r0, r8
87804fec:	180ce003 	stmdane	ip, {r0, r1, sp, lr, pc}
87804ff0:	04100410 	ldreq	r0, [r0], #-1040	; 0xfffffbf0
87804ff4:	781c4410 	ldmdavc	ip, {r4, sl, lr}
87804ff8:	00004000 	andeq	r4, r0, r0
87804ffc:	fc1f0410 	ldc2	4, cr0, [pc], {16}
87805000:	80008410 	andhi	r8, r0, r0, lsl r4
87805004:	84108000 	ldrhi	r8, [r0], #-0
87805008:	0410fc1f 	ldreq	pc, [r0], #-3103	; 0xfffff3e1
8780500c:	04100000 	ldreq	r0, [r0], #-0
87805010:	fc1f0410 	ldc2	4, cr0, [pc], {16}
87805014:	04100410 	ldreq	r0, [r0], #-1040	; 0xfffffbf0
87805018:	00000000 	andeq	r0, r0, r0
8780501c:	01000300 	mrseq	r0, LR_irq
87805020:	01100110 	tsteq	r0, r0, lsl r1
87805024:	0010fe1f 	andseq	pc, r0, pc, lsl lr	; <UNPREDICTABLE>
87805028:	00000010 	andeq	r0, r0, r0, lsl r0
8780502c:	fc1f0410 	ldc2	4, cr0, [pc], {16}
87805030:	80030411 	andhi	r0, r3, r1, lsl r4
87805034:	1c186414 	cfldrsne	mvf6, [r8], {20}
87805038:	00000410 	andeq	r0, r0, r0, lsl r4
8780503c:	fc1f0410 	ldc2	4, cr0, [pc], {16}
87805040:	04000410 	streq	r0, [r0], #-1040	; 0xfffffbf0
87805044:	04000400 	streq	r0, [r0], #-1024	; 0xfffffc00
87805048:	00000c00 	andeq	r0, r0, r0, lsl #24
8780504c:	fc1f0410 	ldc2	4, cr0, [pc], {16}
87805050:	fc00001f 	stc2	0, cr0, [r0], {31}
87805054:	fc1f001f 	ldc2	0, cr0, [pc], {31}
87805058:	00000410 	andeq	r0, r0, r0, lsl r4
8780505c:	fc1f0410 	ldc2	4, cr0, [pc], {16}
87805060:	0003040c 	andeq	r0, r3, ip, lsl #8
87805064:	1810e000 	ldmdane	r0, {sp, lr, pc}
87805068:	0010fc1f 	andseq	pc, r0, pc, lsl ip	; <UNPREDICTABLE>
8780506c:	0808f007 	stmdaeq	r8, {r0, r1, r2, ip, sp, lr, pc}
87805070:	04100410 	ldreq	r0, [r0], #-1040	; 0xfffffbf0
87805074:	08080410 	stmdaeq	r8, {r4, sl}
87805078:	0000f007 	andeq	pc, r0, r7
8780507c:	fc1f0410 	ldc2	4, cr0, [pc], {16}
87805080:	80108410 	andshi	r8, r0, r0, lsl r4
87805084:	80108010 	andshi	r8, r0, r0, lsl r0
87805088:	0000000f 	andeq	r0, r0, pc
8780508c:	1808f007 	stmdane	r8, {r0, r1, r2, ip, sp, lr, pc}
87805090:	24102410 	ldrcs	r2, [r0], #-1040	; 0xfffffbf0
87805094:	0a081c10 	beq	87a0c0dc <__bss_end+0x202b14>
87805098:	0000f207 	andeq	pc, r0, r7, lsl #4
8780509c:	fc1f0410 	ldc2	4, cr0, [pc], {16}
878050a0:	00110411 	andseq	r0, r1, r1, lsl r4
878050a4:	3011c011 	andscc	ip, r1, r1, lsl r0
878050a8:	04000c0e 	streq	r0, [r0], #-3086	; 0xfffff3f2
878050ac:	1c0e0000 	stcne	0, cr0, [lr], {-0}
878050b0:	84100411 	ldrhi	r0, [r0], #-1041	; 0xfffffbef
878050b4:	44108410 	ldrmi	r8, [r0], #-1040	; 0xfffffbf0
878050b8:	0000381c 	andeq	r3, r0, ip, lsl r8
878050bc:	00100018 	andseq	r0, r0, r8, lsl r0
878050c0:	fc1f0410 	ldc2	4, cr0, [pc], {16}
878050c4:	00100410 	andseq	r0, r0, r0, lsl r4
878050c8:	00000018 	andeq	r0, r0, r8, lsl r0
878050cc:	f81f0010 			; <UNDEFINED> instruction: 0xf81f0010
878050d0:	04000410 	streq	r0, [r0], #-1040	; 0xfffffbf0
878050d4:	04100400 	ldreq	r0, [r0], #-1024	; 0xfffffc00
878050d8:	0010f81f 	andseq	pc, r0, pc, lsl r8	; <UNPREDICTABLE>
878050dc:	001e0010 	andseq	r0, lr, r0, lsl r0
878050e0:	1c00e011 	stcne	0, cr14, [r0], {17}
878050e4:	80137000 	andshi	r7, r3, r0
878050e8:	0010001c 	andseq	r0, r0, ip, lsl r0
878050ec:	3c10c01f 	ldccc	0, cr12, [r0], {31}
878050f0:	001fe000 	andseq	lr, pc, r0
878050f4:	3c10e000 	ldccc	0, cr14, [r0], {-0}
878050f8:	0000c01f 	andeq	ip, r0, pc, lsl r0
878050fc:	0c180410 	cfldrseq	mvf0, [r8], {16}
87805100:	c0013416 	andgt	r3, r1, r6, lsl r4
87805104:	3416c001 	ldrcc	ip, [r6], #-1
87805108:	04100c18 	ldreq	r0, [r0], #-3096	; 0xfffff3e8
8780510c:	001c0010 	andseq	r0, ip, r0, lsl r0
87805110:	fc000413 	stc2	4, cr0, [r0], {19}
87805114:	001c0413 	andseq	r0, ip, r3, lsl r4
87805118:	00000010 	andeq	r0, r0, r0, lsl r0
8780511c:	1c100408 	cfldrsne	mvf0, [r0], {8}
87805120:	84106410 	ldrhi	r6, [r0], #-1040	; 0xfffffbf0
87805124:	041c0413 	ldreq	r0, [ip], #-1043	; 0xfffffbed
87805128:	00001810 	andeq	r1, r0, r0, lsl r8
8780512c:	00000000 	andeq	r0, r0, r0
87805130:	fe7f0000 	cdp2	0, 7, cr0, cr15, cr0, {0}
87805134:	02400240 	subeq	r0, r0, #64, 4
87805138:	00000240 	andeq	r0, r0, r0, asr #4
8780513c:	00300000 	eorseq	r0, r0, r0
87805140:	8003000c 	andhi	r0, r3, ip
87805144:	1c006000 	stcne	0, cr6, [r0], {-0}
87805148:	00000300 	andeq	r0, r0, r0, lsl #6
8780514c:	02400000 	subeq	r0, r0, #0
87805150:	02400240 	subeq	r0, r0, #64, 4
87805154:	0000fe7f 	andeq	pc, r0, pc, ror lr	; <UNPREDICTABLE>
	...
87805160:	00400020 	subeq	r0, r0, r0, lsr #32
87805164:	00400040 	subeq	r0, r0, r0, asr #32
87805168:	00000020 	andeq	r0, r0, r0, lsr #32
8780516c:	01000100 	mrseq	r0, (UNDEF: 16)
87805170:	01000100 	mrseq	r0, (UNDEF: 16)
87805174:	01000100 	mrseq	r0, (UNDEF: 16)
87805178:	01000100 	mrseq	r0, (UNDEF: 16)
8780517c:	00400000 	subeq	r0, r0, r0
87805180:	00200040 	eoreq	r0, r0, r0, asr #32
	...
8780518c:	98000000 	stmdals	r0, {}	; <UNPREDICTABLE>
87805190:	44012401 	strmi	r2, [r1], #-1025	; 0xfffffbff
87805194:	44014401 	strmi	r4, [r1], #-1025	; 0xfffffbff
87805198:	0400fc00 	streq	pc, [r0], #-3072	; 0xfffff400
8780519c:	fc1f0010 	ldc2	0, cr0, [pc], {16}
878051a0:	04018800 	streq	r8, [r1], #-2048	; 0xfffff800
878051a4:	88000401 	stmdahi	r0, {r0, sl}
878051a8:	00007000 	andeq	r7, r0, r0
878051ac:	70000000 	andvc	r0, r0, r0
878051b0:	04018800 	streq	r8, [r1], #-2048	; 0xfffff800
878051b4:	04010401 	streq	r0, [r1], #-1025	; 0xfffffbff
878051b8:	00008800 	andeq	r8, r0, r0, lsl #16
878051bc:	70000000 	andvc	r0, r0, r0
878051c0:	04018800 	streq	r8, [r1], #-2048	; 0xfffff800
878051c4:	08110401 	ldmdaeq	r1, {r0, sl}
878051c8:	0400fc1f 	streq	pc, [r0], #-3103	; 0xfffff3e1
878051cc:	f8000000 			; <UNDEFINED> instruction: 0xf8000000
878051d0:	44014401 	strmi	r4, [r1], #-1025	; 0xfffffbff
878051d4:	44014401 	strmi	r4, [r1], #-1025	; 0xfffffbff
878051d8:	0000c800 	andeq	ip, r0, r0, lsl #16
878051dc:	04010000 	streq	r0, [r1], #-0
878051e0:	fc0f0401 	stc2	4, cr0, [pc], {1}
878051e4:	04110411 	ldreq	r0, [r1], #-1041	; 0xfffffbef
878051e8:	00180011 	andseq	r0, r8, r1, lsl r0
878051ec:	d6000000 	strle	r0, [r0], -r0
878051f0:	29012901 	stmdbcs	r1, {r0, r8, fp, sp}
878051f4:	c9012901 	stmdbgt	r1, {r0, r8, fp, sp}
878051f8:	00000601 	andeq	r0, r0, r1, lsl #12
878051fc:	fc1f0410 	ldc2	4, cr0, [pc], {16}
87805200:	00018400 	andeq	r8, r1, r0, lsl #8
87805204:	04010001 	streq	r0, [r1], #-1
87805208:	0400fc00 	streq	pc, [r0], #-3072	; 0xfffff400
8780520c:	04010000 	streq	r0, [r1], #-0
87805210:	fc190419 	ldc2	4, cr0, [r9], {25}
87805214:	04000400 	streq	r0, [r0], #-1024	; 0xfffffc00
87805218:	00000000 	andeq	r0, r0, r0
8780521c:	03000000 	movweq	r0, #0
87805220:	01010100 	mrseq	r0, (UNDEF: 17)
87805224:	fe190119 	mrc2	1, 0, r0, cr9, cr9, {0}
87805228:	00000000 	andeq	r0, r0, r0
8780522c:	fc1f0410 	ldc2	4, cr0, [pc], {16}
87805230:	40002400 	andmi	r2, r0, r0, lsl #8
87805234:	0c01b401 	cfstrseq	mvf11, [r1], {1}
87805238:	00000401 	andeq	r0, r0, r1, lsl #8
8780523c:	04100000 	ldreq	r0, [r0], #-0
87805240:	fc1f0410 	ldc2	4, cr0, [pc], {16}
87805244:	04000400 	streq	r0, [r0], #-1024	; 0xfffffc00
87805248:	00000000 	andeq	r0, r0, r0
8780524c:	fc010401 	stc2	4, cr0, [r1], {1}
87805250:	00010401 	andeq	r0, r1, r1, lsl #8
87805254:	0401fc01 	streq	pc, [r1], #-3073	; 0xfffff3ff
87805258:	fc000001 	stc2	0, cr0, [r0], {1}
8780525c:	fc010401 	stc2	4, cr0, [r1], {1}
87805260:	00018400 	andeq	r8, r1, r0, lsl #8
87805264:	04010001 	streq	r0, [r1], #-1
87805268:	0400fc00 	streq	pc, [r0], #-3072	; 0xfffff400
8780526c:	f8000000 			; <UNDEFINED> instruction: 0xf8000000
87805270:	04010401 	streq	r0, [r1], #-1025	; 0xfffffbff
87805274:	04010401 	streq	r0, [r1], #-1025	; 0xfffffbff
87805278:	0000f800 	andeq	pc, r0, r0, lsl #16
8780527c:	ff010101 			; <UNDEFINED> instruction: 0xff010101
87805280:	04018500 	streq	r8, [r1], #-1280	; 0xfffffb00
87805284:	88000401 	stmdahi	r0, {r0, sl}
87805288:	00007000 	andeq	r7, r0, r0
8780528c:	70000000 	andvc	r0, r0, r0
87805290:	04018800 	streq	r8, [r1], #-2048	; 0xfffff800
87805294:	05010401 	streq	r0, [r1, #-1025]	; 0xfffffbff
87805298:	0100ff01 	tsteq	r0, r1, lsl #30	; <UNPREDICTABLE>
8780529c:	04010401 	streq	r0, [r1], #-1025	; 0xfffffbff
878052a0:	8400fc01 	strhi	pc, [r0], #-3073	; 0xfffff3ff
878052a4:	00010401 	andeq	r0, r1, r1, lsl #8
878052a8:	00008001 	andeq	r8, r0, r1
878052ac:	cc000000 	stcgt	0, cr0, [r0], {-0}
878052b0:	24012401 	strcs	r2, [r1], #-1025	; 0xfffffbff
878052b4:	24012401 	strcs	r2, [r1], #-1025	; 0xfffffbff
878052b8:	00009801 	andeq	r9, r0, r1, lsl #16
878052bc:	00010000 	andeq	r0, r1, r0
878052c0:	f8070001 			; <UNDEFINED> instruction: 0xf8070001
878052c4:	04010401 	streq	r0, [r1], #-1025	; 0xfffffbff
878052c8:	00000000 	andeq	r0, r0, r0
878052cc:	f8010001 			; <UNDEFINED> instruction: 0xf8010001
878052d0:	04000400 	streq	r0, [r0], #-1024	; 0xfffffc00
878052d4:	08010400 	stmdaeq	r1, {sl}
878052d8:	0400fc01 	streq	pc, [r0], #-3073	; 0xfffff3ff
878052dc:	80010001 	andhi	r0, r1, r1
878052e0:	0c007001 	stceq	0, cr7, [r0], {1}
878052e4:	60011000 	andvs	r1, r1, r0
878052e8:	00018001 	andeq	r8, r1, r1
878052ec:	0c01f001 	stceq	0, cr15, [r1], {1}
878052f0:	c0013000 	andgt	r3, r1, r0
878052f4:	0c013000 	stceq	0, cr3, [r1], {-0}
878052f8:	0001f001 	andeq	pc, r1, r1
878052fc:	04010000 	streq	r0, [r1], #-0
87805300:	74008c01 	strvc	r8, [r0], #-3073	; 0xfffff3ff
87805304:	8c017001 	stchi	0, cr7, [r1], {1}
87805308:	00000401 	andeq	r0, r0, r1, lsl #8
8780530c:	81010101 	tsthi	r1, r1, lsl #2
87805310:	0e007101 	adfeqs	f7, f0, f1
87805314:	60011800 	andvs	r1, r1, r0, lsl #16
87805318:	00018001 	andeq	r8, r1, r1
8780531c:	84010000 	strhi	r0, [r1], #-0
87805320:	34010c01 	strcc	r0, [r1], #-3073	; 0xfffff3ff
87805324:	84014401 	strhi	r4, [r1], #-1025	; 0xfffffbff
87805328:	00000c01 	andeq	r0, r0, r1, lsl #24
	...
87805334:	fc3e0001 	ldc2	0, cr0, [lr], #-4
87805338:	02400240 	subeq	r0, r0, #64, 4
	...
87805344:	0000ffff 	strdeq	pc, [r0], -pc	; <UNPREDICTABLE>
87805348:	00000000 	andeq	r0, r0, r0
8780534c:	02400000 	subeq	r0, r0, #0
87805350:	fc3e0240 	ldc2	2, cr0, [lr], #-256	; 0xffffff00
87805354:	00000001 	andeq	r0, r0, r1
87805358:	00000000 	andeq	r0, r0, r0
8780535c:	00600000 	rsbeq	r0, r0, r0
87805360:	00800080 	addeq	r0, r0, r0, lsl #1
87805364:	00400040 	subeq	r0, r0, r0, asr #32
87805368:	00200020 	eoreq	r0, r0, r0, lsr #32

8780536c <asc2_1206>:
	...
8780537c:	0000403f 	andeq	r4, r0, pc, lsr r0
87805380:	00000000 	andeq	r0, r0, r0
87805384:	00300000 	eorseq	r0, r0, r0
87805388:	00300040 	eorseq	r0, r0, r0, asr #32
8780538c:	00000040 	andeq	r0, r0, r0, asr #32
87805390:	c00b0009 	andgt	r0, fp, r9
87805394:	c00b003d 	andgt	r0, fp, sp, lsr r0
87805398:	0009003d 	andeq	r0, r9, sp, lsr r0
8780539c:	4024c018 	eormi	ip, r4, r8, lsl r0
878053a0:	4022e07f 	eormi	lr, r2, pc, ror r0
878053a4:	00008031 	andeq	r8, r0, r1, lsr r0
878053a8:	c0240018 	eorgt	r0, r4, r8, lsl r0
878053ac:	800d001b 	andhi	r0, sp, fp, lsl r0
878053b0:	80014032 	andhi	r4, r1, r2, lsr r0
878053b4:	401c8003 	andsmi	r8, ip, r3
878053b8:	801c4027 	andshi	r4, ip, r7, lsr #32
878053bc:	40004007 	andmi	r4, r0, r7
878053c0:	00600010 	rsbeq	r0, r0, r0, lsl r0
	...
878053d0:	801f0000 	andshi	r0, pc, r0
878053d4:	20404020 	subcs	r4, r0, r0, lsr #32
878053d8:	20400000 	subcs	r0, r0, r0
878053dc:	801f4020 	andshi	r4, pc, r0, lsr #32
878053e0:	00000000 	andeq	r0, r0, r0
878053e4:	00060009 	andeq	r0, r6, r9
878053e8:	0006801f 	andeq	r8, r6, pc, lsl r0
878053ec:	00000009 	andeq	r0, r0, r9
878053f0:	00040004 	andeq	r0, r4, r4
878053f4:	0004803f 	andeq	r8, r4, pc, lsr r0
878053f8:	00000004 	andeq	r0, r0, r4
878053fc:	60001000 	andvs	r1, r0, r0
	...
87805408:	00040004 	andeq	r0, r4, r4
8780540c:	00040004 	andeq	r0, r4, r4
87805410:	00000004 	andeq	r0, r0, r4
87805414:	40000000 	andmi	r0, r0, r0
	...
87805420:	c0012000 	andgt	r2, r1, r0
87805424:	00380006 	eorseq	r0, r8, r6
87805428:	00000040 	andeq	r0, r0, r0, asr #32
8780542c:	4020801f 	eormi	r8, r0, pc, lsl r0
87805430:	40204020 	eormi	r4, r0, r0, lsr #32
87805434:	0000801f 	andeq	r8, r0, pc, lsl r0
87805438:	40100000 	andsmi	r0, r0, r0
8780543c:	4000c03f 	andmi	ip, r0, pc, lsr r0
87805440:	00000000 	andeq	r0, r0, r0
87805444:	4021c018 	eormi	ip, r1, r8, lsl r0
87805448:	40244022 	eormi	r4, r4, r2, lsr #32
8780544c:	00004018 	andeq	r4, r0, r8, lsl r0
87805450:	40208010 	eormi	r8, r0, r0, lsl r0
87805454:	40244024 	eormi	r4, r4, r4, lsr #32
87805458:	0000801b 	andeq	r8, r0, fp, lsl r0
8780545c:	000d0002 	andeq	r0, sp, r2
87805460:	c03f0011 	eorsgt	r0, pc, r1, lsl r0	; <UNPREDICTABLE>
87805464:	00004001 	andeq	r4, r0, r1
87805468:	4024803c 	eormi	r8, r4, ip, lsr r0
8780546c:	40244024 	eormi	r4, r4, r4, lsr #32
87805470:	00008023 	andeq	r8, r0, r3, lsr #32
87805474:	4024801f 	eormi	r8, r4, pc, lsl r0
87805478:	40344024 	eorsmi	r4, r4, r4, lsr #32
8780547c:	00008003 	andeq	r8, r0, r3
87805480:	00200030 	eoreq	r0, r0, r0, lsr r0
87805484:	0038c027 	eorseq	ip, r8, r7, lsr #32
87805488:	00000020 	andeq	r0, r0, r0, lsr #32
8780548c:	4024801b 	eormi	r8, r4, fp, lsl r0
87805490:	40244024 	eormi	r4, r4, r4, lsr #32
87805494:	0000801b 	andeq	r8, r0, fp, lsl r0
87805498:	c022001c 	eorgt	r0, r2, ip, lsl r0
8780549c:	40224022 	eormi	r4, r2, r2, lsr #32
878054a0:	0000801f 	andeq	r8, r0, pc, lsl r0
878054a4:	00000000 	andeq	r0, r0, r0
878054a8:	00004008 	andeq	r4, r0, r8
	...
878054b4:	00006004 	andeq	r6, r0, r4
878054b8:	00000000 	andeq	r0, r0, r0
878054bc:	00040000 	andeq	r0, r4, r0
878054c0:	0011000a 	andseq	r0, r1, sl
878054c4:	40408020 	submi	r8, r0, r0, lsr #32
878054c8:	00090009 	andeq	r0, r9, r9
878054cc:	00090009 	andeq	r0, r9, r9
878054d0:	00000009 	andeq	r0, r0, r9
878054d4:	40400000 	submi	r0, r0, r0
878054d8:	00118020 	andseq	r8, r1, r0, lsr #32
878054dc:	0004000a 	andeq	r0, r4, sl
878054e0:	00200018 	eoreq	r0, r0, r8, lsl r0
878054e4:	00244023 	eoreq	r4, r4, r3, lsr #32
878054e8:	00000018 	andeq	r0, r0, r8, lsl r0
878054ec:	4020801f 	eormi	r8, r0, pc, lsl r0
878054f0:	40294027 	eormi	r4, r9, r7, lsr #32
878054f4:	0000401f 	andeq	r4, r0, pc, lsl r0
878054f8:	c0074000 	andgt	r4, r7, r0
878054fc:	000f0039 	andeq	r0, pc, r9, lsr r0	; <UNPREDICTABLE>
87805500:	4000c001 	andmi	ip, r0, r1
87805504:	c03f4020 	eorsgt	r4, pc, r0, lsr #32
87805508:	40244024 	eormi	r4, r4, r4, lsr #32
8780550c:	0000801b 	andeq	r8, r0, fp, lsl r0
87805510:	4020801f 	eormi	r8, r0, pc, lsl r0
87805514:	40204020 	eormi	r4, r0, r0, lsr #32
87805518:	00008030 	andeq	r8, r0, r0, lsr r0
8780551c:	c03f4020 	eorsgt	r4, pc, r0, lsr #32
87805520:	40204020 	eormi	r4, r0, r0, lsr #32
87805524:	0000801f 	andeq	r8, r0, pc, lsl r0
87805528:	c03f4020 	eorsgt	r4, pc, r0, lsr #32
8780552c:	402e4024 	eormi	r4, lr, r4, lsr #32
87805530:	0000c030 	andeq	ip, r0, r0, lsr r0
87805534:	c03f4020 	eorsgt	r4, pc, r0, lsr #32
87805538:	002e4024 	eoreq	r4, lr, r4, lsr #32
8780553c:	00000030 	andeq	r0, r0, r0, lsr r0
87805540:	8010000f 	andshi	r0, r0, pc
87805544:	40224020 	eormi	r4, r2, r0, lsr #32
87805548:	00028033 	andeq	r8, r2, r3, lsr r0
8780554c:	c03f4020 	eorsgt	r4, pc, r0, lsr #32
87805550:	00040004 	andeq	r0, r4, r4
87805554:	4020c03f 	eormi	ip, r0, pc, lsr r0
87805558:	40204020 	eormi	r4, r0, r0, lsr #32
8780555c:	4020c03f 	eormi	ip, r0, pc, lsr r0
87805560:	00004020 	andeq	r4, r0, r0, lsr #32
87805564:	20206000 	eorcs	r6, r0, r0
87805568:	c03f2020 	eorsgt	r2, pc, r0, lsr #32
8780556c:	00200020 	eoreq	r0, r0, r0, lsr #32
87805570:	c03f4020 	eorsgt	r4, pc, r0, lsr #32
87805574:	000b4024 	andeq	r4, fp, r4, lsr #32
87805578:	4020c030 	eormi	ip, r0, r0, lsr r0
8780557c:	c03f4020 	eorsgt	r4, pc, r0, lsr #32
87805580:	40004020 	andmi	r4, r0, r0, lsr #32
87805584:	c0004000 	andgt	r4, r0, r0
87805588:	003cc03f 	eorseq	ip, ip, pc, lsr r0
8780558c:	003cc003 	eorseq	ip, ip, r3
87805590:	0000c03f 	andeq	ip, r0, pc, lsr r0
87805594:	c03f4020 	eorsgt	r4, pc, r0, lsr #32
87805598:	0023400c 	eoreq	r4, r3, ip
8780559c:	0020c03f 	eoreq	ip, r0, pc, lsr r0
878055a0:	4020801f 	eormi	r8, r0, pc, lsl r0
878055a4:	40204020 	eormi	r4, r0, r0, lsr #32
878055a8:	0000801f 	andeq	r8, r0, pc, lsl r0
878055ac:	c03f4020 	eorsgt	r4, pc, r0, lsr #32
878055b0:	00244024 	eoreq	r4, r4, r4, lsr #32
878055b4:	00000018 	andeq	r0, r0, r8, lsl r0
878055b8:	4021801f 	eormi	r8, r1, pc, lsl r0
878055bc:	e0204021 	eor	r4, r0, r1, lsr #32
878055c0:	0000a01f 	andeq	sl, r0, pc, lsl r0
878055c4:	c03f4020 	eorsgt	r4, pc, r0, lsr #32
878055c8:	00264024 	eoreq	r4, r6, r4, lsr #32
878055cc:	4000c019 	andmi	ip, r0, r9, lsl r0
878055d0:	4024c018 	eormi	ip, r4, r8, lsl r0
878055d4:	40224024 	eormi	r4, r2, r4, lsr #32
878055d8:	00008031 	andeq	r8, r0, r1, lsr r0
878055dc:	40200030 	eormi	r0, r0, r0, lsr r0
878055e0:	4020c03f 	eormi	ip, r0, pc, lsr r0
878055e4:	00000030 	andeq	r0, r0, r0, lsr r0
878055e8:	803f0020 	eorshi	r0, pc, r0, lsr #32
878055ec:	40004000 	andmi	r4, r0, r0
878055f0:	0020803f 	eoreq	r8, r0, pc, lsr r0
878055f4:	003e0020 	eorseq	r0, lr, r0, lsr #32
878055f8:	0007c001 	andeq	ip, r7, r1
878055fc:	00200038 	eoreq	r0, r0, r8, lsr r0
87805600:	c0070038 	andgt	r0, r7, r8, lsr r0
87805604:	c007003c 	andgt	r0, r7, ip, lsr r0
87805608:	00000038 	andeq	r0, r0, r8, lsr r0
8780560c:	c0394020 	eorsgt	r4, r9, r0, lsr #32
87805610:	c0390006 	eorsgt	r0, r9, r6
87805614:	00004020 	andeq	r4, r0, r0, lsr #32
87805618:	40380020 	eorsmi	r0, r8, r0, lsr #32
8780561c:	4038c007 	eorsmi	ip, r8, r7
87805620:	00000020 	andeq	r0, r0, r0, lsr #32
87805624:	c0214030 	eorgt	r4, r1, r0, lsr r0
87805628:	40384026 	eorsmi	r4, r8, r6, lsr #32
8780562c:	0000c020 	andeq	ip, r0, r0, lsr #32
87805630:	00000000 	andeq	r0, r0, r0
87805634:	2040e07f 	subcs	lr, r0, pc, ror r0
87805638:	00002040 	andeq	r2, r0, r0, asr #32
8780563c:	00700000 	rsbseq	r0, r0, r0
87805640:	8003000c 	andhi	r0, r3, ip
87805644:	00004000 	andeq	r4, r0, r0
87805648:	20400000 	subcs	r0, r0, r0
8780564c:	e07f2040 	rsbs	r2, pc, r0, asr #32
87805650:	00000000 	andeq	r0, r0, r0
87805654:	00200000 	eoreq	r0, r0, r0
87805658:	00200040 	eoreq	r0, r0, r0, asr #32
8780565c:	00000000 	andeq	r0, r0, r0
87805660:	10001000 	andne	r1, r0, r0
87805664:	10001000 	andne	r1, r0, r0
87805668:	10001000 	andne	r1, r0, r0
8780566c:	00000000 	andeq	r0, r0, r0
87805670:	00000040 	andeq	r0, r0, r0, asr #32
87805674:	00000000 	andeq	r0, r0, r0
87805678:	80020000 	andhi	r0, r2, r0
8780567c:	40054005 	andmi	r4, r5, r5
87805680:	4000c003 	andmi	ip, r0, r3
87805684:	c03f0020 	eorsgt	r0, pc, r0, lsr #32
87805688:	40044004 	andmi	r4, r4, r4
8780568c:	00008003 	andeq	r8, r0, r3
87805690:	80030000 	andhi	r0, r3, r0
87805694:	40044004 	andmi	r4, r4, r4
87805698:	00004006 	andeq	r4, r0, r6
8780569c:	80030000 	andhi	r0, r3, r0
878056a0:	40244004 	eormi	r4, r4, r4
878056a4:	4000c03f 	andmi	ip, r0, pc, lsr r0
878056a8:	80030000 	andhi	r0, r3, r0
878056ac:	40054005 	andmi	r4, r5, r5
878056b0:	00004003 	andeq	r4, r0, r3
878056b4:	40040000 	andmi	r0, r4, r0
878056b8:	4024c01f 	eormi	ip, r4, pc, lsl r0
878056bc:	00204024 	eoreq	r4, r0, r4, lsr #32
878056c0:	e0020000 	and	r0, r2, r0
878056c4:	50055005 	andpl	r5, r5, r5
878056c8:	20045006 	andcs	r5, r4, r6
878056cc:	c03f4020 	eorsgt	r4, pc, r0, lsr #32
878056d0:	00044004 	andeq	r4, r4, r4
878056d4:	4000c003 	andmi	ip, r0, r3
878056d8:	40040000 	andmi	r0, r4, r0
878056dc:	4000c027 	andmi	ip, r0, r7, lsr #32
878056e0:	00000000 	andeq	r0, r0, r0
878056e4:	10001000 	andne	r1, r0, r0
878056e8:	e0271004 	eor	r1, r7, r4
878056ec:	00000000 	andeq	r0, r0, r0
878056f0:	c03f4020 	eorsgt	r4, pc, r0, lsr #32
878056f4:	00074001 	andeq	r4, r7, r1
878056f8:	4004c004 	andmi	ip, r4, r4
878056fc:	40204020 	eormi	r4, r0, r0, lsr #32
87805700:	4000c03f 	andmi	ip, r0, pc, lsr r0
87805704:	00004000 	andeq	r4, r0, r0
87805708:	0004c007 	andeq	ip, r4, r7
8780570c:	0004c007 	andeq	ip, r4, r7
87805710:	0000c003 	andeq	ip, r0, r3
87805714:	c0074004 	andgt	r4, r7, r4
87805718:	00044004 	andeq	r4, r4, r4
8780571c:	4000c003 	andmi	ip, r0, r3
87805720:	80030000 	andhi	r0, r3, r0
87805724:	40044004 	andmi	r4, r4, r4
87805728:	00008003 	andeq	r8, r0, r3
8780572c:	f0071004 			; <UNDEFINED> instruction: 0xf0071004
87805730:	40045004 	andmi	r5, r4, r4
87805734:	00008003 	andeq	r8, r0, r3
87805738:	80030000 	andhi	r0, r3, r0
8780573c:	50044004 	andpl	r4, r4, r4
87805740:	1000f007 	andne	pc, r0, r7
87805744:	c0074004 	andgt	r4, r7, r4
87805748:	00044002 	andeq	r4, r4, r2
8780574c:	00000004 	andeq	r0, r0, r4
87805750:	40060000 	andmi	r0, r6, r0
87805754:	40054005 	andmi	r4, r5, r5
87805758:	0000c004 	andeq	ip, r0, r4
8780575c:	00040000 	andeq	r0, r4, r0
87805760:	4004801f 	andmi	r8, r4, pc, lsl r0
87805764:	00004000 	andeq	r4, r0, r0
87805768:	80070004 	andhi	r0, r7, r4
8780576c:	40044000 	andmi	r4, r4, r0
87805770:	4000c007 	andmi	ip, r0, r7
87805774:	00070004 	andeq	r0, r7, r4
87805778:	8001c004 	andhi	ip, r1, r4
8780577c:	00040006 	andeq	r0, r4, r6
87805780:	c0010006 	andgt	r0, r1, r6
87805784:	c0010007 	andgt	r0, r1, r7
87805788:	00000006 	andeq	r0, r0, r6
8780578c:	c0064004 	andgt	r4, r6, r4
87805790:	c0060001 	andgt	r0, r6, r1
87805794:	00004004 	andeq	r4, r0, r4
87805798:	10071004 	andne	r1, r7, r4
8780579c:	8001e004 	andhi	lr, r1, r4
878057a0:	00040006 	andeq	r0, r4, r6
878057a4:	40040000 	andmi	r0, r4, r0
878057a8:	4006c005 	andmi	ip, r6, r5
878057ac:	00004004 	andeq	r4, r0, r4
878057b0:	00000000 	andeq	r0, r0, r0
878057b4:	e07b0004 	rsbs	r0, fp, r4
878057b8:	00002040 	andeq	r2, r0, r0, asr #32
878057bc:	00000000 	andeq	r0, r0, r0
878057c0:	f0ff0000 			; <UNDEFINED> instruction: 0xf0ff0000
878057c4:	00000000 	andeq	r0, r0, r0
878057c8:	20400000 	subcs	r0, r0, r0
878057cc:	0004e07b 	andeq	lr, r4, fp, ror r0
878057d0:	00000000 	andeq	r0, r0, r0
878057d4:	00800040 	addeq	r0, r0, r0, asr #32
878057d8:	00200040 	eoreq	r0, r0, r0, asr #32
878057dc:	00400020 	subeq	r0, r0, r0, lsr #32

878057e0 <asc2_3216>:
	...
87805878:	c000f007 	andgt	pc, r0, r7
8780587c:	e0e1ff07 	rsc	pc, r1, r7, lsl #30
87805880:	e001f007 	and	pc, r1, r7
87805884:	c0000000 	andgt	r0, r0, r0
	...
878058e8:	00002000 	andeq	r2, r0, r0
878058ec:	0000c001 	andeq	ip, r0, r1
878058f0:	00008007 	andeq	r8, r0, r7
878058f4:	0000001f 	andeq	r0, r0, pc, lsl r0
878058f8:	0000001e 	andeq	r0, r0, lr, lsl r0
878058fc:	0000201c 	andeq	r2, r0, ip, lsl r0
87805900:	0000c001 	andeq	ip, r0, r1
87805904:	00008007 	andeq	r8, r0, r7
87805908:	0000001f 	andeq	r0, r0, pc, lsl r0
8780590c:	0000001e 	andeq	r0, r0, lr, lsl r0
87805910:	0000001c 	andeq	r0, r0, ip, lsl r0
	...
87805964:	000c1800 	andeq	r1, ip, r0, lsl #16
87805968:	000c1800 	andeq	r1, ip, r0, lsl #16
8780596c:	e00f1800 	and	r1, pc, r0, lsl #16
87805970:	00fc1f00 	rscseq	r1, ip, r0, lsl #30
87805974:	000cf803 	andeq	pc, ip, r3, lsl #16
87805978:	000c1800 	andeq	r1, ip, r0, lsl #16
8780597c:	000c1800 	andeq	r1, ip, r0, lsl #16
87805980:	000c1800 	andeq	r1, ip, r0, lsl #16
87805984:	000c1800 	andeq	r1, ip, r0, lsl #16
87805988:	e00f1800 	and	r1, pc, r0, lsl #16
8780598c:	00fc1f00 	rscseq	r1, ip, r0, lsl #30
87805990:	000cf803 	andeq	pc, ip, r3, lsl #16
87805994:	000c1800 	andeq	r1, ip, r0, lsl #16
87805998:	000c1800 	andeq	r1, ip, r0, lsl #16
	...
878059e8:	80070000 	andhi	r0, r7, r0
878059ec:	c0077800 	andgt	r7, r7, r0, lsl #16
878059f0:	4006fc00 	andmi	pc, r6, r0, lsl #24
878059f4:	20000e01 	andcs	r0, r0, r1, lsl #28
878059f8:	20000703 	andcs	r0, r0, r3, lsl #14
878059fc:	20800302 	addcs	r0, r0, r2, lsl #6
87805a00:	fcffff0f 	ldc2l	15, cr15, [pc], #60	; 87805a44 <asc2_3216+0x264>
87805a04:	20c00102 	sbccs	r0, r0, r2, lsl #2
87805a08:	60e00002 	rscvs	r0, r0, r2
87805a0c:	40703001 	rsbsmi	r3, r0, r1
87805a10:	803ff001 	eorshi	pc, pc, r1
87805a14:	001ff000 	andseq	pc, pc, r0
	...
87805a60:	0000fe00 	andeq	pc, r0, r0, lsl #28
87805a64:	0000ff01 	andeq	pc, r0, r1, lsl #30
87805a68:	00800103 	addeq	r0, r0, r3, lsl #2
87805a6c:	60800002 	addvs	r0, r0, r2
87805a70:	c0810103 	addgt	r0, r1, r3, lsl #2
87805a74:	0007ff01 	andeq	pc, r7, r1, lsl #30
87805a78:	0018fe00 	andseq	pc, r8, r0, lsl #28
87805a7c:	00e00000 	rsceq	r0, r0, r0
87805a80:	00bf0300 	adcseq	r0, pc, r0, lsl #6
87805a84:	c0ff0c00 	rscsgt	r0, pc, r0, lsl #24
87805a88:	60807100 	addvs	r7, r0, r0, lsl #2
87805a8c:	2000c101 	andcs	ip, r0, r1, lsl #2
87805a90:	60800103 	addvs	r0, r0, r3, lsl #2
87805a94:	c0ff0000 	rscsgt	r0, pc, r0
87805a98:	003f0000 	eorseq	r0, pc, r0
	...
87805ae0:	001f0000 	andseq	r0, pc, r0
87805ae4:	c07f0000 	rsbsgt	r0, pc, r0
87805ae8:	c0c0fc00 	sbcgt	pc, r0, r0, lsl #24
87805aec:	6080ff01 	addvs	pc, r0, r1, lsl #30
87805af0:	20e00303 	rsccs	r0, r0, r3, lsl #6
87805af4:	20780202 	rsbscs	r0, r8, r2, lsl #4
87805af8:	201e0602 	andscs	r0, lr, r2, lsl #12
87805afc:	4007fc03 	andmi	pc, r7, r3, lsl #24
87805b00:	8003f001 	andhi	pc, r3, r1
87805b04:	c0030100 	andgt	r0, r3, r0, lsl #2
87805b08:	601c0100 	andsvs	r0, ip, r0, lsl #2
87805b0c:	20e00100 	rsccs	r0, r0, r0, lsl #2
87805b10:	20000100 	andcs	r0, r0, r0, lsl #2
87805b14:	40000100 	andmi	r0, r0, r0, lsl #2
87805b18:	80010000 	andhi	r0, r1, r0
	...
87805b64:	00002000 	andeq	r2, r0, r0
87805b68:	0000601c 	andeq	r6, r0, ip, lsl r0
87805b6c:	0000401c 	andeq	r4, r0, ip, lsl r0
87805b70:	0000801f 	andeq	r8, r0, pc, lsl r0
87805b74:	0000000f 	andeq	r0, r0, pc
	...
87805bfc:	00f80700 	rscseq	r0, r8, r0, lsl #14
87805c00:	00ff3f00 	rscseq	r3, pc, r0, lsl #30
87805c04:	c0077800 	andgt	r7, r7, r0, lsl #16
87805c08:	e000c001 	and	ip, r0, r1
87805c0c:	30000003 	andcc	r0, r0, r3
87805c10:	08000004 	stmdaeq	r0, {r2}
87805c14:	04000008 	streq	r0, [r0], #-8
87805c18:	02000010 	andeq	r0, r0, #16
	...
87805c64:	02000010 	andeq	r0, r0, #16
87805c68:	04000008 	streq	r0, [r0], #-8
87805c6c:	08000004 	stmdaeq	r0, {r2}
87805c70:	30000003 	andcc	r0, r0, r3
87805c74:	e000c001 	and	ip, r0, r1
87805c78:	c0077800 	andgt	r7, r7, r0, lsl #16
87805c7c:	00ff3f00 	rscseq	r3, pc, r0, lsl #30
87805c80:	00f80700 	rscseq	r0, r8, r0, lsl #14
	...
87805ce8:	00180c00 	andseq	r0, r8, r0, lsl #24
87805cec:	00380e00 	eorseq	r0, r8, r0, lsl #28
87805cf0:	00380e00 	eorseq	r0, r8, r0, lsl #28
87805cf4:	00300600 	eorseq	r0, r0, r0, lsl #12
87805cf8:	00600300 	rsbeq	r0, r0, r0, lsl #6
87805cfc:	80436100 	subhi	r6, r3, r0, lsl #2
87805d00:	80ffff00 	rscshi	pc, pc, r0, lsl #30
87805d04:	00436100 	subeq	r6, r3, r0, lsl #2
87805d08:	00600300 	rsbeq	r0, r0, r0, lsl #6
87805d0c:	00300600 	eorseq	r0, r0, r0, lsl #12
87805d10:	00380e00 	eorseq	r0, r8, r0, lsl #28
87805d14:	00380e00 	eorseq	r0, r8, r0, lsl #28
87805d18:	00180c00 	andseq	r0, r8, r0, lsl #24
	...
87805d68:	00800000 	addeq	r0, r0, r0
87805d6c:	00800000 	addeq	r0, r0, r0
87805d70:	00800000 	addeq	r0, r0, r0
87805d74:	00800000 	addeq	r0, r0, r0
87805d78:	00800000 	addeq	r0, r0, r0
87805d7c:	00800000 	addeq	r0, r0, r0
87805d80:	00ff7f00 	rscseq	r7, pc, r0, lsl #30
87805d84:	00800000 	addeq	r0, r0, r0
87805d88:	00800000 	addeq	r0, r0, r0
87805d8c:	00800000 	addeq	r0, r0, r0
87805d90:	00800000 	addeq	r0, r0, r0
87805d94:	00800000 	addeq	r0, r0, r0
87805d98:	00800000 	addeq	r0, r0, r0
	...
87805de4:	01000000 	mrseq	r0, (UNDEF: 0)
87805de8:	e3000000 	movw	r0, #0
87805dec:	e2000000 	and	r0, r0, #0
87805df0:	fc000000 	stc2	0, cr0, [r0], {-0}
87805df4:	78000000 	stmdavc	r0, {}	; <UNPREDICTABLE>
	...
87805e64:	00800000 	addeq	r0, r0, r0
87805e68:	00800000 	addeq	r0, r0, r0
87805e6c:	00800000 	addeq	r0, r0, r0
87805e70:	00800000 	addeq	r0, r0, r0
87805e74:	00800000 	addeq	r0, r0, r0
87805e78:	00800000 	addeq	r0, r0, r0
87805e7c:	00800000 	addeq	r0, r0, r0
87805e80:	00800000 	addeq	r0, r0, r0
87805e84:	00800000 	addeq	r0, r0, r0
87805e88:	00800000 	addeq	r0, r0, r0
87805e8c:	00800000 	addeq	r0, r0, r0
87805e90:	00800000 	addeq	r0, r0, r0
87805e94:	00800000 	addeq	r0, r0, r0
87805e98:	00800000 	addeq	r0, r0, r0
	...
87805ee8:	c0000000 	andgt	r0, r0, r0
87805eec:	e0010000 	and	r0, r1, r0
87805ef0:	e0010000 	and	r0, r1, r0
87805ef4:	c0000000 	andgt	r0, r0, r0
	...
87805f64:	0c000000 	stceq	0, cr0, [r0], {-0}
87805f68:	38000000 	stmdacc	r0, {}	; <UNPREDICTABLE>
87805f6c:	e0000000 	and	r0, r0, r0
87805f70:	80030000 	andhi	r0, r3, r0
87805f74:	000e0000 	andeq	r0, lr, r0
87805f78:	00380000 	eorseq	r0, r8, r0
87805f7c:	00e00000 	rsceq	r0, r0, r0
87805f80:	00800300 	addeq	r0, r0, r0, lsl #6
87805f84:	00000e00 	andeq	r0, r0, r0, lsl #28
87805f88:	00003800 	andeq	r3, r0, r0, lsl #16
87805f8c:	0000e000 	andeq	lr, r0, r0
87805f90:	00008003 	andeq	r8, r0, r3
87805f94:	0000000e 	andeq	r0, r0, lr
87805f98:	00000018 	andeq	r0, r0, r8, lsl r0
	...
87805fe8:	00f80f00 	rscseq	r0, r8, r0, lsl #30
87805fec:	00ff7f00 	rscseq	r7, pc, r0, lsl #30
87805ff0:	8007f000 	andhi	pc, r7, r0
87805ff4:	c0008001 	andgt	r8, r0, r1
87805ff8:	60000003 	andvs	r0, r0, r3
87805ffc:	20000002 	andcs	r0, r0, r2
87806000:	20000002 	andcs	r0, r0, r2
87806004:	20000002 	andcs	r0, r0, r2
87806008:	60000003 	andvs	r0, r0, r3
8780600c:	c0008001 	andgt	r8, r0, r1
87806010:	8003e000 	andhi	lr, r3, r0
87806014:	00ff7f00 	rscseq	r7, pc, r0, lsl #30
87806018:	00f80f00 	rscseq	r0, r8, r0, lsl #30
	...
8780606c:	20008000 	andcs	r8, r0, r0
87806070:	20008000 	andcs	r8, r0, r0
87806074:	20008000 	andcs	r8, r0, r0
87806078:	60008000 	andvs	r8, r0, r0
8780607c:	e0ffff01 	rscs	pc, pc, r1, lsl #30
87806080:	e0ffff03 	rscs	pc, pc, r3, lsl #30
87806084:	60000000 	andvs	r0, r0, r0
87806088:	20000000 	andcs	r0, r0, r0
8780608c:	20000000 	andcs	r0, r0, r0
87806090:	20000000 	andcs	r0, r0, r0
	...
878060e8:	e0007800 	and	r7, r0, r0, lsl #16
878060ec:	60019800 	andvs	r9, r1, r0, lsl #16
878060f0:	60020001 	andvs	r0, r2, r1
878060f4:	60040002 	andvs	r0, r4, r2
878060f8:	60080002 	andvs	r0, r8, r2
878060fc:	60100002 	andsvs	r0, r0, r2
87806100:	60200002 	eorvs	r0, r0, r2
87806104:	60400002 	subvs	r0, r0, r2
87806108:	60800003 	addvs	r0, r0, r3
8780610c:	60008301 	andvs	r8, r0, r1, lsl #6
87806110:	e000fe01 	and	pc, r0, r1, lsl #28
87806114:	80077c00 	andhi	r7, r7, r0, lsl #24
	...
87806168:	8007f000 	andhi	pc, r7, r0
8780616c:	c007f001 	andgt	pc, r7, r1
87806170:	40000001 	andmi	r0, r0, r1
87806174:	20000002 	andcs	r0, r0, r2
87806178:	20000102 	andcs	r0, r0, r2, lsl #2
8780617c:	20000102 	andcs	r0, r0, r2, lsl #2
87806180:	20000102 	andcs	r0, r0, r2, lsl #2
87806184:	20800303 	addcs	r0, r0, r3, lsl #6
87806188:	40808601 	addmi	r8, r0, r1, lsl #12
8780618c:	c0c0fc01 	sbcgt	pc, r0, r1, lsl #24
87806190:	807f7800 	rsbshi	r7, pc, r0, lsl #16
87806194:	001e0000 	andseq	r0, lr, r0
	...
878061e4:	00080000 	andeq	r0, r8, r0
878061e8:	00380000 	eorseq	r0, r8, r0
878061ec:	00480000 	subeq	r0, r8, r0
878061f0:	00880100 	addeq	r0, r8, r0, lsl #2
878061f4:	00080600 	andeq	r0, r8, r0, lsl #12
878061f8:	10080c00 	andne	r0, r8, r0, lsl #24
878061fc:	10083000 	andne	r3, r8, r0
87806200:	10084000 	andne	r4, r8, r0
87806204:	f0ffff01 			; <UNDEFINED> instruction: 0xf0ffff01
87806208:	f0ffff03 			; <UNDEFINED> instruction: 0xf0ffff03
8780620c:	f0ffff03 			; <UNDEFINED> instruction: 0xf0ffff03
87806210:	10080000 	andne	r0, r8, r0
87806214:	10080000 	andne	r0, r8, r0
87806218:	10080000 	andne	r0, r8, r0
	...
87806268:	80070000 	andhi	r0, r7, r0
8780626c:	40861f00 	addmi	r1, r6, r0, lsl #30
87806270:	2000e103 	andcs	lr, r0, r3, lsl #2
87806274:	20000203 	andcs	r0, r0, r3, lsl #4
87806278:	20000403 	andcs	r0, r0, r3, lsl #8
8780627c:	20000403 	andcs	r0, r0, r3, lsl #8
87806280:	20000403 	andcs	r0, r0, r3, lsl #8
87806284:	20000403 	andcs	r0, r0, r3, lsl #8
87806288:	40000603 	andmi	r0, r0, r3, lsl #12
8780628c:	c0010303 	andgt	r0, r1, r3, lsl #6
87806290:	80ff0103 	rscshi	r0, pc, r3, lsl #2
87806294:	007e0003 	rsbseq	r0, lr, r3
	...
878062e8:	00fc0700 	rscseq	r0, ip, r0, lsl #14
878062ec:	00ff3f00 	rscseq	r3, pc, r0, lsl #30
878062f0:	80c37000 	sbchi	r7, r3, r0
878062f4:	c0808100 	addgt	r8, r0, r0, lsl #2
878062f8:	60000101 	andvs	r0, r0, r1, lsl #2
878062fc:	20000203 	andcs	r0, r0, r3, lsl #4
87806300:	20000202 	andcs	r0, r0, r2, lsl #4
87806304:	20000202 	andcs	r0, r0, r2, lsl #4
87806308:	20000202 	andcs	r0, r0, r2, lsl #4
8780630c:	40000302 	andmi	r0, r0, r2, lsl #6
87806310:	c080c101 	addgt	ip, r0, r1, lsl #2
87806314:	80ffc000 	rscshi	ip, pc, r0
87806318:	007e0000 	rsbseq	r0, lr, r0
	...
87806368:	0000f000 	andeq	pc, r0, r0
8780636c:	0000c003 	andeq	ip, r0, r3
87806370:	00008003 	andeq	r8, r0, r3
87806374:	00000003 	andeq	r0, r0, r3
87806378:	e0070003 	and	r0, r7, r3
8780637c:	e03f0003 	eors	r0, pc, r3
87806380:	00c00103 	sbceq	r0, r0, r3, lsl #2
87806384:	00000603 	andeq	r0, r0, r3, lsl #12
87806388:	00001803 	andeq	r1, r0, r3, lsl #16
8780638c:	00006003 	andeq	r6, r0, r3
87806390:	00008003 	andeq	r8, r0, r3
87806394:	00000003 	andeq	r0, r0, r3
	...
878063e4:	001f0000 	andseq	r0, pc, r0
878063e8:	803f7800 	eorshi	r7, pc, r0, lsl #16
878063ec:	c060fc00 	rsbgt	pc, r0, r0, lsl #24
878063f0:	40c08e01 	sbcmi	r8, r0, r1, lsl #28
878063f4:	20800703 	addcs	r0, r0, r3, lsl #14
878063f8:	20000302 	andcs	r0, r0, r2, lsl #6
878063fc:	20800102 	addcs	r0, r0, r2, lsl #2
87806400:	20800102 	addcs	r0, r0, r2, lsl #2
87806404:	20c00102 	sbccs	r0, r0, r2, lsl #2
87806408:	40e00103 	rscmi	r0, r0, r3, lsl #2
8780640c:	c0708601 	rsbsgt	r8, r0, r1, lsl #12
87806410:	803ffc00 	eorshi	pc, pc, r0, lsl #24
87806414:	001f7800 	andseq	r7, pc, r0, lsl #16
	...
87806464:	00003f00 	andeq	r3, r0, r0, lsl #30
87806468:	c081ff00 	addgt	pc, r1, r0, lsl #30
8780646c:	c0c1c001 	sbcgt	ip, r1, r1
87806470:	20600001 	rsbcs	r0, r0, r1
87806474:	20200002 	eorcs	r0, r0, r2
87806478:	20200002 	eorcs	r0, r0, r2
8780647c:	20200002 	eorcs	r0, r0, r2
87806480:	60200002 	eorvs	r0, r0, r2
87806484:	c0400002 	subgt	r0, r0, r2
87806488:	80c10001 	sbchi	r0, r1, r1
8780648c:	008fc100 	addeq	ip, pc, r0, lsl #2
87806490:	00fe7f00 	rscseq	r7, lr, r0, lsl #30
87806494:	00f01f00 	rscseq	r1, r0, r0, lsl #30
	...
878064f8:	c0000300 	andgt	r0, r0, r0, lsl #6
878064fc:	e0810700 	add	r0, r1, r0, lsl #14
87806500:	e0810700 	add	r0, r1, r0, lsl #14
87806504:	c0000300 	andgt	r0, r0, r0, lsl #6
	...
87806578:	66000600 	strvs	r0, [r0], -r0, lsl #12
8780657c:	78000600 	stmdavc	r0, {r9, sl}
	...
878065e8:	00800000 	addeq	r0, r0, r0
878065ec:	00c00100 	sbceq	r0, r0, r0, lsl #2
878065f0:	00600300 	rsbeq	r0, r0, r0, lsl #6
878065f4:	00300600 	eorseq	r0, r0, r0, lsl #12
878065f8:	00180c00 	andseq	r0, r8, r0, lsl #24
878065fc:	000c1800 	andeq	r1, ip, r0, lsl #16
87806600:	00063000 	andeq	r3, r6, r0
87806604:	00036000 	andeq	r6, r3, r0
87806608:	8001c000 	andhi	ip, r1, r0
8780660c:	40000001 	andmi	r0, r0, r1
87806610:	20000002 	andcs	r0, r0, r2
87806614:	10000004 	andne	r0, r0, r4
	...
87806664:	00100400 	andseq	r0, r0, r0, lsl #8
87806668:	00100400 	andseq	r0, r0, r0, lsl #8
8780666c:	00100400 	andseq	r0, r0, r0, lsl #8
87806670:	00100400 	andseq	r0, r0, r0, lsl #8
87806674:	00100400 	andseq	r0, r0, r0, lsl #8
87806678:	00100400 	andseq	r0, r0, r0, lsl #8
8780667c:	00100400 	andseq	r0, r0, r0, lsl #8
87806680:	00100400 	andseq	r0, r0, r0, lsl #8
87806684:	00100400 	andseq	r0, r0, r0, lsl #8
87806688:	00100400 	andseq	r0, r0, r0, lsl #8
8780668c:	00100400 	andseq	r0, r0, r0, lsl #8
87806690:	00100400 	andseq	r0, r0, r0, lsl #8
87806694:	00100400 	andseq	r0, r0, r0, lsl #8
87806698:	00100400 	andseq	r0, r0, r0, lsl #8
	...
878066e8:	10000004 	andne	r0, r0, r4
878066ec:	20000002 	andcs	r0, r0, r2
878066f0:	40000001 	andmi	r0, r0, r1
878066f4:	8001c000 	andhi	ip, r1, r0
878066f8:	00036000 	andeq	r6, r3, r0
878066fc:	00063000 	andeq	r3, r6, r0
87806700:	000c1800 	andeq	r1, ip, r0, lsl #16
87806704:	00180c00 	andseq	r0, r8, r0, lsl #24
87806708:	00300600 	eorseq	r0, r0, r0, lsl #12
8780670c:	00600300 	rsbeq	r0, r0, r0, lsl #6
87806710:	00c00100 	sbceq	r0, r0, r0, lsl #2
87806714:	00800000 	addeq	r0, r0, r0
	...
87806768:	00007800 	andeq	r7, r0, r0, lsl #16
8780676c:	0000f801 	andeq	pc, r0, r1, lsl #16
87806770:	00003802 	andeq	r3, r0, r2, lsl #16
87806774:	00000002 	andeq	r0, r0, r2
87806778:	c0000004 	andgt	r0, r0, r4
8780677c:	e0790004 	rsbs	r0, r9, r4
87806780:	e0810004 	add	r0, r1, r4
87806784:	c0000104 	andgt	r0, r0, r4, lsl #2
87806788:	00000304 	andeq	r0, r0, r4, lsl #6
8780678c:	00000202 	andeq	r0, r0, r2, lsl #4
87806790:	00000603 	andeq	r0, r0, r3, lsl #12
87806794:	0000fc01 	andeq	pc, r0, r1, lsl #24
87806798:	0000f800 	andeq	pc, r0, r0, lsl #16
	...
878067e4:	00f80f00 	rscseq	r0, r8, r0, lsl #30
878067e8:	00fe3f00 	rscseq	r3, lr, r0, lsl #30
878067ec:	80077000 	andhi	r7, r7, r0
878067f0:	c000c000 	andgt	ip, r0, r0
878067f4:	40f80101 	rscsmi	r0, r8, r1, lsl #2
878067f8:	20fc0703 	rscscs	r0, ip, r3, lsl #14
878067fc:	20041e02 	andcs	r1, r4, r2, lsl #28
87806800:	20083002 	andcs	r3, r8, r2
87806804:	20302002 	eorscs	r2, r0, r2
87806808:	20fc3f02 	rscscs	r3, ip, r2, lsl #30
8780680c:	40043f01 	andmi	r3, r4, r1, lsl #30
87806810:	c00c8001 	andgt	r8, ip, r1
87806814:	8031e000 	eorshi	lr, r1, r0
87806818:	00c21f00 	sbceq	r1, r2, r0, lsl #30
	...
87806860:	20000000 	andcs	r0, r0, r0
87806864:	60000000 	andvs	r0, r0, r0
87806868:	e0030000 	and	r0, r3, r0
8780686c:	203e0000 	eorscs	r0, lr, r0
87806870:	20e00300 	rsccs	r0, r0, r0, lsl #6
87806874:	00203e00 	eoreq	r3, r0, r0, lsl #28
87806878:	0020e003 	eoreq	lr, r0, r3
8780687c:	00208003 	eoreq	r8, r0, r3
87806880:	0020fc07 	eoreq	pc, r0, r7, lsl #24
87806884:	00e03f00 	rsceq	r3, r0, r0, lsl #30
87806888:	20fe0300 	rscscs	r0, lr, r0, lsl #6
8780688c:	e03f0000 	eors	r0, pc, r0
87806890:	e0010000 	and	r0, r1, r0
87806894:	20000000 	andcs	r0, r0, r0
87806898:	20000000 	andcs	r0, r0, r0
	...
878068e4:	20000002 	andcs	r0, r0, r2
878068e8:	20000002 	andcs	r0, r0, r2
878068ec:	e0ffff03 	rscs	pc, pc, r3, lsl #30
878068f0:	e0ffff03 	rscs	pc, pc, r3, lsl #30
878068f4:	20000102 	andcs	r0, r0, r2, lsl #2
878068f8:	20000102 	andcs	r0, r0, r2, lsl #2
878068fc:	20000102 	andcs	r0, r0, r2, lsl #2
87806900:	20000102 	andcs	r0, r0, r2, lsl #2
87806904:	20000102 	andcs	r0, r0, r2, lsl #2
87806908:	20000303 	andcs	r0, r0, r3, lsl #6
8780690c:	60808601 	addvs	r8, r0, r1, lsl #12
87806910:	c0c0fc01 	sbcgt	pc, r0, r1, lsl #24
87806914:	807ff800 	rsbshi	pc, pc, r0, lsl #16
87806918:	001f0000 	andseq	r0, pc, r0
	...
87806964:	00f80700 	rscseq	r0, r8, r0, lsl #14
87806968:	00ff3f00 	rscseq	r3, pc, r0, lsl #30
8780696c:	80077000 	andhi	r7, r7, r0
87806970:	c000c000 	andgt	ip, r0, r0
87806974:	40000001 	andmi	r0, r0, r1
87806978:	20000003 	andcs	r0, r0, r3
8780697c:	20000002 	andcs	r0, r0, r2
87806980:	20000002 	andcs	r0, r0, r2
87806984:	20000002 	andcs	r0, r0, r2
87806988:	20000002 	andcs	r0, r0, r2
8780698c:	40000001 	andmi	r0, r0, r1
87806990:	c0008001 	andgt	r8, r0, r1
87806994:	8001c003 	andhi	ip, r1, r3
87806998:	00063000 	andeq	r3, r6, r0
	...
878069e4:	20000002 	andcs	r0, r0, r2
878069e8:	20000002 	andcs	r0, r0, r2
878069ec:	e0ffff03 	rscs	pc, pc, r3, lsl #30
878069f0:	e0ffff03 	rscs	pc, pc, r3, lsl #30
878069f4:	20000002 	andcs	r0, r0, r2
878069f8:	20000002 	andcs	r0, r0, r2
878069fc:	20000002 	andcs	r0, r0, r2
87806a00:	20000002 	andcs	r0, r0, r2
87806a04:	60000003 	andvs	r0, r0, r3
87806a08:	40000001 	andmi	r0, r0, r1
87806a0c:	c0008001 	andgt	r8, r0, r1
87806a10:	8007f000 	andhi	pc, r7, r0
87806a14:	00fe7f00 	rscseq	r7, lr, r0, lsl #30
87806a18:	00f80f00 	rscseq	r0, r8, r0, lsl #30
	...
87806a64:	20000002 	andcs	r0, r0, r2
87806a68:	20000002 	andcs	r0, r0, r2
87806a6c:	e0ffff03 	rscs	pc, pc, r3, lsl #30
87806a70:	e0ffff03 	rscs	pc, pc, r3, lsl #30
87806a74:	20000102 	andcs	r0, r0, r2, lsl #2
87806a78:	20000102 	andcs	r0, r0, r2, lsl #2
87806a7c:	20000102 	andcs	r0, r0, r2, lsl #2
87806a80:	20000102 	andcs	r0, r0, r2, lsl #2
87806a84:	20000102 	andcs	r0, r0, r2, lsl #2
87806a88:	20800302 	addcs	r0, r0, r2, lsl #6
87806a8c:	20e00f02 	rsccs	r0, r0, r2, lsl #30
87806a90:	60000003 	andvs	r0, r0, r3
87806a94:	e000c003 	and	ip, r0, r3
87806a98:	00036000 	andeq	r6, r3, r0
	...
87806ae4:	20000002 	andcs	r0, r0, r2
87806ae8:	20000002 	andcs	r0, r0, r2
87806aec:	e0ffff03 	rscs	pc, pc, r3, lsl #30
87806af0:	e0ffff03 	rscs	pc, pc, r3, lsl #30
87806af4:	20000102 	andcs	r0, r0, r2, lsl #2
87806af8:	20000102 	andcs	r0, r0, r2, lsl #2
87806afc:	00000102 	andeq	r0, r0, r2, lsl #2
87806b00:	00000102 	andeq	r0, r0, r2, lsl #2
87806b04:	00000102 	andeq	r0, r0, r2, lsl #2
87806b08:	00000102 	andeq	r0, r0, r2, lsl #2
87806b0c:	00800302 	addeq	r0, r0, r2, lsl #6
87806b10:	00e00f03 	rsceq	r0, r0, r3, lsl #30
87806b14:	00000003 	andeq	r0, r0, r3
87806b18:	0000c003 	andeq	ip, r0, r3
87806b1c:	00006000 	andeq	r6, r0, r0
	...
87806b64:	00f80700 	rscseq	r0, r8, r0, lsl #14
87806b68:	00fe3f00 	rscseq	r3, lr, r0, lsl #30
87806b6c:	80077000 	andhi	r7, r7, r0
87806b70:	c001c001 	andgt	ip, r1, r1
87806b74:	40000001 	andmi	r0, r0, r1
87806b78:	20000003 	andcs	r0, r0, r3
87806b7c:	20000002 	andcs	r0, r0, r2
87806b80:	20000002 	andcs	r0, r0, r2
87806b84:	20000002 	andcs	r0, r0, r2
87806b88:	20200001 	eorcs	r0, r0, r1
87806b8c:	40200001 	eormi	r0, r0, r1
87806b90:	803fc003 	eorshi	ip, pc, r3
87806b94:	803f3000 	eorshi	r3, pc, r0
87806b98:	00200000 	eoreq	r0, r0, r0
87806b9c:	00200000 	eoreq	r0, r0, r0
	...
87806be0:	20000002 	andcs	r0, r0, r2
87806be4:	20000002 	andcs	r0, r0, r2
87806be8:	e0ffff03 	rscs	pc, pc, r3, lsl #30
87806bec:	e0ffff03 	rscs	pc, pc, r3, lsl #30
87806bf0:	20800002 	addcs	r0, r0, r2
87806bf4:	20800002 	addcs	r0, r0, r2
87806bf8:	00800000 	addeq	r0, r0, r0
87806bfc:	00800000 	addeq	r0, r0, r0
87806c00:	00800000 	addeq	r0, r0, r0
87806c04:	20800002 	addcs	r0, r0, r2
87806c08:	20800002 	addcs	r0, r0, r2
87806c0c:	e0ffff03 	rscs	pc, pc, r3, lsl #30
87806c10:	e0ffff03 	rscs	pc, pc, r3, lsl #30
87806c14:	20000002 	andcs	r0, r0, r2
87806c18:	20000002 	andcs	r0, r0, r2
	...
87806c6c:	20000002 	andcs	r0, r0, r2
87806c70:	20000002 	andcs	r0, r0, r2
87806c74:	20000002 	andcs	r0, r0, r2
87806c78:	20000002 	andcs	r0, r0, r2
87806c7c:	e0ffff03 	rscs	pc, pc, r3, lsl #30
87806c80:	e0ffff03 	rscs	pc, pc, r3, lsl #30
87806c84:	20000002 	andcs	r0, r0, r2
87806c88:	20000002 	andcs	r0, r0, r2
87806c8c:	20000002 	andcs	r0, r0, r2
87806c90:	20000002 	andcs	r0, r0, r2
	...
87806ce4:	0e000000 	cdpeq	0, 0, cr0, cr0, cr0, {0}
87806ce8:	0f000000 	svceq	0x00000000
87806cec:	0f000000 	svceq	0x00000000
87806cf0:	01000000 	mrseq	r0, (UNDEF: 0)
87806cf4:	01000002 	tsteq	r0, r2
87806cf8:	01000002 	tsteq	r0, r2
87806cfc:	03000002 	movweq	r0, #2
87806d00:	06000002 	streq	r0, [r0], -r2
87806d04:	fcffff03 	ldc2l	15, cr15, [pc], #12	; 87806d18 <asc2_3216+0x1538>
87806d08:	f8ffff03 			; <UNDEFINED> instruction: 0xf8ffff03
87806d0c:	00000002 	andeq	r0, r0, r2
87806d10:	00000002 	andeq	r0, r0, r2
87806d14:	00000002 	andeq	r0, r0, r2
87806d18:	00000002 	andeq	r0, r0, r2
	...
87806d64:	20000002 	andcs	r0, r0, r2
87806d68:	20000002 	andcs	r0, r0, r2
87806d6c:	e0ffff03 	rscs	pc, pc, r3, lsl #30
87806d70:	e0ffff03 	rscs	pc, pc, r3, lsl #30
87806d74:	20c00002 	sbccs	r0, r0, r2
87806d78:	20000102 	andcs	r0, r0, r2, lsl #2
87806d7c:	00800700 	addeq	r0, r0, r0, lsl #14
87806d80:	00e00f00 	rsceq	r0, r0, r0, lsl #30
87806d84:	00f83000 	rscseq	r3, r8, r0
87806d88:	203e6002 	eorscs	r6, lr, r2
87806d8c:	200f8003 	andcs	r8, pc, r3
87806d90:	e0030003 	and	r0, r3, r3
87806d94:	e0000002 	and	r0, r0, r2
87806d98:	20000002 	andcs	r0, r0, r2
87806d9c:	20000000 	andcs	r0, r0, r0
	...
87806de4:	20000002 	andcs	r0, r0, r2
87806de8:	20000002 	andcs	r0, r0, r2
87806dec:	e0ffff03 	rscs	pc, pc, r3, lsl #30
87806df0:	e0ffff03 	rscs	pc, pc, r3, lsl #30
87806df4:	20000002 	andcs	r0, r0, r2
87806df8:	20000002 	andcs	r0, r0, r2
87806dfc:	20000000 	andcs	r0, r0, r0
87806e00:	20000000 	andcs	r0, r0, r0
87806e04:	20000000 	andcs	r0, r0, r0
87806e08:	20000000 	andcs	r0, r0, r0
87806e0c:	20000000 	andcs	r0, r0, r0
87806e10:	60000000 	andvs	r0, r0, r0
87806e14:	e0000000 	and	r0, r0, r0
87806e18:	00030000 	andeq	r0, r3, r0
	...
87806e60:	20000002 	andcs	r0, r0, r2
87806e64:	20000002 	andcs	r0, r0, r2
87806e68:	e0ffff03 	rscs	pc, pc, r3, lsl #30
87806e6c:	2000e003 	andcs	lr, r0, r3
87806e70:	2000ff03 	andcs	pc, r0, r3, lsl #30
87806e74:	00f01f00 	rscseq	r1, r0, r0, lsl #30
87806e78:	80ff0100 	rscshi	r0, pc, r0, lsl #2
87806e7c:	e00f0000 	and	r0, pc, r0
87806e80:	001e0000 	andseq	r0, lr, r0
87806e84:	00e00300 	rsceq	r0, r0, r0, lsl #6
87806e88:	20003e00 	andcs	r3, r0, r0, lsl #28
87806e8c:	2000e003 	andcs	lr, r0, r3
87806e90:	e0ffff03 	rscs	pc, pc, r3, lsl #30
87806e94:	e0ffff03 	rscs	pc, pc, r3, lsl #30
87806e98:	20000002 	andcs	r0, r0, r2
87806e9c:	20000002 	andcs	r0, r0, r2
	...
87806ee0:	20000002 	andcs	r0, r0, r2
87806ee4:	20000002 	andcs	r0, r0, r2
87806ee8:	e0ffff03 	rscs	pc, pc, r3, lsl #30
87806eec:	20008003 	andcs	r8, r0, r3
87806ef0:	2000f003 	andcs	pc, r0, r3
87806ef4:	0000fc00 	andeq	pc, r0, r0, lsl #24
87806ef8:	00001f00 	andeq	r1, r0, r0, lsl #30
87806efc:	00c00700 	sbceq	r0, r0, r0, lsl #14
87806f00:	00f00100 	rscseq	r0, r0, r0, lsl #2
87806f04:	007c0000 	rsbseq	r0, ip, r0
87806f08:	801f0002 	andshi	r0, pc, r2
87806f0c:	e0070002 	and	r0, r7, r2
87806f10:	e0ffff03 	rscs	pc, pc, r3, lsl #30
87806f14:	00000002 	andeq	r0, r0, r2
87806f18:	00000002 	andeq	r0, r0, r2
	...
87806f64:	00f80f00 	rscseq	r0, r8, r0, lsl #30
87806f68:	00fe3f00 	rscseq	r3, lr, r0, lsl #30
87806f6c:	8007f000 	andhi	pc, r7, r0
87806f70:	c0008001 	andgt	r8, r0, r1
87806f74:	40000001 	andmi	r0, r0, r1
87806f78:	20000002 	andcs	r0, r0, r2
87806f7c:	20000002 	andcs	r0, r0, r2
87806f80:	20000002 	andcs	r0, r0, r2
87806f84:	20000002 	andcs	r0, r0, r2
87806f88:	40000001 	andmi	r0, r0, r1
87806f8c:	c0008001 	andgt	r8, r0, r1
87806f90:	8003f000 	andhi	pc, r3, r0
87806f94:	00fe3f00 	rscseq	r3, lr, r0, lsl #30
87806f98:	00f80f00 	rscseq	r0, r8, r0, lsl #30
	...
87806fe4:	20000002 	andcs	r0, r0, r2
87806fe8:	20000002 	andcs	r0, r0, r2
87806fec:	e0ffff03 	rscs	pc, pc, r3, lsl #30
87806ff0:	e0ffff03 	rscs	pc, pc, r3, lsl #30
87806ff4:	20800002 	addcs	r0, r0, r2
87806ff8:	20800002 	addcs	r0, r0, r2
87806ffc:	00800002 	addeq	r0, r0, r2
87807000:	00800002 	addeq	r0, r0, r2
87807004:	00800002 	addeq	r0, r0, r2
87807008:	00800002 	addeq	r0, r0, r2
8780700c:	00800103 	addeq	r0, r0, r3, lsl #2
87807010:	00008301 	andeq	r8, r0, r1, lsl #6
87807014:	0000fe00 	andeq	pc, r0, r0, lsl #28
87807018:	00007c00 	andeq	r7, r0, r0, lsl #24
	...
87807064:	00f80f00 	rscseq	r0, r8, r0, lsl #30
87807068:	00ff7f00 	rscseq	r7, pc, r0, lsl #30
8780706c:	8003f000 	andhi	pc, r3, r0
87807070:	c0018001 	andgt	r8, r1, r1
87807074:	40060001 	andmi	r0, r6, r1
87807078:	20040002 	andcs	r0, r4, r2
8780707c:	20040002 	andcs	r0, r4, r2
87807080:	20060002 	andcs	r0, r6, r2
87807084:	e0030002 	and	r0, r3, r2
87807088:	f8000001 			; <UNDEFINED> instruction: 0xf8000001
8780708c:	5c008001 	stcpl	0, cr8, [r0], {1}
87807090:	8c03e000 	stchi	0, cr14, [r3], {-0}
87807094:	0cff3f00 	ldcleq	15, cr3, [pc]	; 8780709c <asc2_3216+0x18bc>
87807098:	18fc0f00 	ldmne	ip!, {r8, r9, sl, fp}^
	...
878070e4:	20000002 	andcs	r0, r0, r2
878070e8:	20000002 	andcs	r0, r0, r2
878070ec:	e0ffff03 	rscs	pc, pc, r3, lsl #30
878070f0:	e0ffff03 	rscs	pc, pc, r3, lsl #30
878070f4:	20000102 	andcs	r0, r0, r2, lsl #2
878070f8:	20000102 	andcs	r0, r0, r2, lsl #2
878070fc:	00800102 	addeq	r0, r0, r2, lsl #2
87807100:	00e00102 	rsceq	r0, r0, r2, lsl #2
87807104:	00fc0102 	rscseq	r0, ip, r2, lsl #2
87807108:	803f0303 	eorshi	r0, pc, r3, lsl #6
8780710c:	e0078601 	and	r8, r7, r1, lsl #12
87807110:	e000fc01 	and	pc, r0, r1, lsl #24
87807114:	2000f800 	andcs	pc, r0, r0, lsl #16
87807118:	20000000 	andcs	r0, r0, r0
	...
87807168:	00067800 	andeq	r7, r6, r0, lsl #16
8780716c:	e001fe00 	and	pc, r1, r0, lsl #28
87807170:	c0008601 	andgt	r8, r0, r1, lsl #12
87807174:	40000303 	andmi	r0, r0, r3, lsl #6
87807178:	20000302 	andcs	r0, r0, r2, lsl #6
8780717c:	20800102 	addcs	r0, r0, r2, lsl #2
87807180:	20800102 	addcs	r0, r0, r2, lsl #2
87807184:	20c00102 	sbccs	r0, r0, r2, lsl #2
87807188:	20c00002 	sbccs	r0, r0, r2
8780718c:	60e00001 	rscvs	r0, r0, r1
87807190:	c0708001 	rsbsgt	r8, r0, r1
87807194:	803fe003 	eorshi	lr, pc, r3
87807198:	001f0000 	andseq	r0, pc, r0
	...
878071e4:	00006000 	andeq	r6, r0, r0
878071e8:	00008003 	andeq	r8, r0, r3
878071ec:	00000003 	andeq	r0, r0, r3
878071f0:	00000002 	andeq	r0, r0, r2
878071f4:	20000002 	andcs	r0, r0, r2
878071f8:	20000002 	andcs	r0, r0, r2
878071fc:	e0ffff03 	rscs	pc, pc, r3, lsl #30
87807200:	e0ffff03 	rscs	pc, pc, r3, lsl #30
87807204:	20000002 	andcs	r0, r0, r2
87807208:	20000002 	andcs	r0, r0, r2
8780720c:	00000002 	andeq	r0, r0, r2
87807210:	00000002 	andeq	r0, r0, r2
87807214:	00008003 	andeq	r8, r0, r3
87807218:	0000e000 	andeq	lr, r0, r0
	...
87807260:	00000002 	andeq	r0, r0, r2
87807264:	00000002 	andeq	r0, r0, r2
87807268:	00ffff03 	rscseq	pc, pc, r3, lsl #30
8780726c:	c0ffff03 	rscsgt	pc, pc, r3, lsl #30
87807270:	40000002 	andmi	r0, r0, r2
87807274:	60000002 	andvs	r0, r0, r2
87807278:	20000000 	andcs	r0, r0, r0
8780727c:	20000000 	andcs	r0, r0, r0
87807280:	20000000 	andcs	r0, r0, r0
87807284:	20000000 	andcs	r0, r0, r0
87807288:	40000002 	andmi	r0, r0, r2
8780728c:	80000002 	andhi	r0, r0, r2
87807290:	00ffff03 	rscseq	pc, pc, r3, lsl #30
87807294:	00000002 	andeq	r0, r0, r2
87807298:	00000002 	andeq	r0, r0, r2
	...
878072e4:	00000002 	andeq	r0, r0, r2
878072e8:	00000002 	andeq	r0, r0, r2
878072ec:	0000c003 	andeq	ip, r0, r3
878072f0:	0000fc03 	andeq	pc, r0, r3, lsl #24
878072f4:	00c03f02 	sbceq	r3, r0, r2, lsl #30
878072f8:	00f80300 	rscseq	r0, r8, r0, lsl #6
878072fc:	807f0000 	rsbshi	r0, pc, r0
87807300:	e0070000 	and	r0, r7, r0
87807304:	80070000 	andhi	r0, r7, r0
87807308:	00780000 	rsbseq	r0, r8, r0
8780730c:	00c00302 	sbceq	r0, r0, r2, lsl #6
87807310:	00003c02 	andeq	r3, r0, r2, lsl #24
87807314:	0000c003 	andeq	ip, r0, r3
87807318:	00000002 	andeq	r0, r0, r2
8780731c:	00000002 	andeq	r0, r0, r2
	...
87807360:	00000002 	andeq	r0, r0, r2
87807364:	0000c003 	andeq	ip, r0, r3
87807368:	0080ff03 	addeq	pc, r0, r3, lsl #30
8780736c:	00fe3f02 	rscseq	r3, lr, r2, lsl #30
87807370:	e07f0002 	rsbs	r0, pc, r2
87807374:	000f0000 	andeq	r0, pc, r0
87807378:	00f00002 	rscseq	r0, r0, r2
8780737c:	0000ef03 	andeq	lr, r0, r3, lsl #30
87807380:	0080ff03 	addeq	pc, r0, r3, lsl #30
87807384:	00fe0f02 	rscseq	r0, lr, r2, lsl #30
87807388:	e03f0000 	eors	r0, pc, r0
8780738c:	001f0000 	andseq	r0, pc, r0
87807390:	00e00702 	rsceq	r0, r0, r2, lsl #14
87807394:	0000f803 	andeq	pc, r0, r3, lsl #16
87807398:	00000003 	andeq	r0, r0, r3
8780739c:	00000002 	andeq	r0, r0, r2
	...
878073e4:	20000002 	andcs	r0, r0, r2
878073e8:	20000002 	andcs	r0, r0, r2
878073ec:	e0008003 	and	r8, r0, r3
878073f0:	2003f003 	andcs	pc, r3, r3
878073f4:	200cfc02 	andcs	pc, ip, r2, lsl #24
878073f8:	00301f02 	eorseq	r1, r0, r2, lsl #30
878073fc:	00c00700 	sbceq	r0, r0, r0, lsl #14
87807400:	00f00700 	rscseq	r0, r0, r0, lsl #14
87807404:	007c1802 	rsbseq	r1, ip, r2, lsl #16
87807408:	201f6002 	andscs	r6, pc, r2
8780740c:	e0038003 	and	r8, r3, r3
87807410:	e0000002 	and	r0, r0, r2
87807414:	20000002 	andcs	r0, r0, r2
87807418:	20000000 	andcs	r0, r0, r0
	...
87807464:	00000002 	andeq	r0, r0, r2
87807468:	00000003 	andeq	r0, r0, r3
8780746c:	0000c003 	andeq	ip, r0, r3
87807470:	0000f803 	andeq	pc, r0, r3, lsl #16
87807474:	20003e02 	andcs	r3, r0, r2, lsl #28
87807478:	20c00f02 	sbccs	r0, r0, r2, lsl #30
8780747c:	e0ff0100 	rscs	r0, pc, r0, lsl #2
87807480:	e07f0000 	rsbs	r0, pc, r0
87807484:	20800300 	addcs	r0, r0, r0, lsl #6
87807488:	20001c02 	andcs	r1, r0, r2, lsl #24
8780748c:	00007002 	andeq	r7, r0, r2
87807490:	00008003 	andeq	r8, r0, r3
87807494:	00000002 	andeq	r0, r0, r2
87807498:	00000002 	andeq	r0, r0, r2
	...
878074e4:	20000000 	andcs	r0, r0, r0
878074e8:	e0006000 	and	r6, r0, r0
878074ec:	e0038003 	and	r8, r3, r3
878074f0:	a00f0003 	andge	r0, pc, r3
878074f4:	203e0002 	eorscs	r0, lr, r2
878074f8:	20f80002 	rscscs	r0, r8, r2
878074fc:	20e00302 	rsccs	r0, r0, r2, lsl #6
87807500:	20800f02 	addcs	r0, r0, r2, lsl #30
87807504:	20003e02 	andcs	r3, r0, r2, lsl #28
87807508:	20007802 	andcs	r7, r0, r2, lsl #16
8780750c:	6000e003 	andvs	lr, r0, r3
87807510:	e0008003 	and	r8, r0, r3
87807514:	00030002 	andeq	r0, r3, r2
	...
87807578:	fcffff1f 	ldc2l	15, cr15, [pc], #124	; 878075fc <asc2_3216+0x1e1c>
8780757c:	04000010 	streq	r0, [r0], #-16
87807580:	04000010 	streq	r0, [r0], #-16
87807584:	04000010 	streq	r0, [r0], #-16
87807588:	04000010 	streq	r0, [r0], #-16
8780758c:	04000010 	streq	r0, [r0], #-16
87807590:	04000010 	streq	r0, [r0], #-16
87807594:	04000010 	streq	r0, [r0], #-16
	...
878075ec:	00000007 	andeq	r0, r0, r7
878075f0:	0000c003 	andeq	ip, r0, r3
878075f4:	00007800 	andeq	r7, r0, r0, lsl #16
878075f8:	00001e00 	andeq	r1, r0, r0, lsl #28
878075fc:	00c00300 	sbceq	r0, r0, r0, lsl #6
87807600:	00f00000 	rscseq	r0, r0, r0
87807604:	001e0000 	andseq	r0, lr, r0
87807608:	80070000 	andhi	r0, r7, r0
8780760c:	f0000000 			; <UNDEFINED> instruction: 0xf0000000
87807610:	3c000000 	stccc	0, cr0, [r0], {-0}
87807614:	06000000 	streq	r0, [r0], -r0
	...
87807668:	04000010 	streq	r0, [r0], #-16
8780766c:	04000010 	streq	r0, [r0], #-16
87807670:	04000010 	streq	r0, [r0], #-16
87807674:	04000010 	streq	r0, [r0], #-16
87807678:	04000010 	streq	r0, [r0], #-16
8780767c:	04000010 	streq	r0, [r0], #-16
87807680:	04000010 	streq	r0, [r0], #-16
87807684:	fcffff1f 	ldc2l	15, cr15, [pc], #124	; 87807708 <asc2_3216+0x1f28>
	...
878076f0:	00000002 	andeq	r0, r0, r2
878076f4:	00000004 	andeq	r0, r0, r4
878076f8:	00000008 	andeq	r0, r0, r8
878076fc:	00000018 	andeq	r0, r0, r8, lsl r0
87807700:	00000010 	andeq	r0, r0, r0, lsl r0
87807704:	00000018 	andeq	r0, r0, r8, lsl r0
87807708:	00000018 	andeq	r0, r0, r8, lsl r0
8780770c:	00000004 	andeq	r0, r0, r4
87807710:	00000002 	andeq	r0, r0, r2
	...
87807760:	01000000 	mrseq	r0, (UNDEF: 0)
87807764:	01000000 	mrseq	r0, (UNDEF: 0)
87807768:	01000000 	mrseq	r0, (UNDEF: 0)
8780776c:	01000000 	mrseq	r0, (UNDEF: 0)
87807770:	01000000 	mrseq	r0, (UNDEF: 0)
87807774:	01000000 	mrseq	r0, (UNDEF: 0)
87807778:	01000000 	mrseq	r0, (UNDEF: 0)
8780777c:	01000000 	mrseq	r0, (UNDEF: 0)
87807780:	01000000 	mrseq	r0, (UNDEF: 0)
87807784:	01000000 	mrseq	r0, (UNDEF: 0)
87807788:	01000000 	mrseq	r0, (UNDEF: 0)
8780778c:	01000000 	mrseq	r0, (UNDEF: 0)
87807790:	01000000 	mrseq	r0, (UNDEF: 0)
87807794:	01000000 	mrseq	r0, (UNDEF: 0)
87807798:	01000000 	mrseq	r0, (UNDEF: 0)
8780779c:	01000000 	mrseq	r0, (UNDEF: 0)
	...
878077ec:	00000010 	andeq	r0, r0, r0, lsl r0
878077f0:	00000010 	andeq	r0, r0, r0, lsl r0
878077f4:	00000010 	andeq	r0, r0, r0, lsl r0
878077f8:	00000018 	andeq	r0, r0, r8, lsl r0
878077fc:	00000008 	andeq	r0, r0, r8
87807800:	00000004 	andeq	r0, r0, r4
	...
87807864:	80030000 	andhi	r0, r3, r0
87807868:	c08f0100 	addgt	r0, pc, r0, lsl #2
8780786c:	608c0300 	addvs	r0, ip, r0, lsl #6
87807870:	20180600 	andscs	r0, r8, r0, lsl #12
87807874:	20100400 	andscs	r0, r0, r0, lsl #8
87807878:	20100400 	andscs	r0, r0, r0, lsl #8
8780787c:	20200400 	eorcs	r0, r0, r0, lsl #8
87807880:	40200400 	eormi	r0, r0, r0, lsl #8
87807884:	40200600 	eormi	r0, r0, r0, lsl #12
87807888:	c0ff0300 	rscsgt	r0, pc, r0, lsl #6
8780788c:	e0ff0100 	rscs	r0, pc, r0, lsl #2
87807890:	20000000 	andcs	r0, r0, r0
87807894:	20000000 	andcs	r0, r0, r0
87807898:	c0000000 	andgt	r0, r0, r0
	...
878078e4:	00000002 	andeq	r0, r0, r2
878078e8:	00000002 	andeq	r0, r0, r2
878078ec:	e0ffff03 	rscs	pc, pc, r3, lsl #30
878078f0:	c0ffff07 	rscsgt	pc, pc, r7, lsl #30
878078f4:	c0800100 	addgt	r0, r0, r0, lsl #2
878078f8:	60000200 	andvs	r0, r0, r0, lsl #4
878078fc:	20000200 	andcs	r0, r0, r0, lsl #4
87807900:	20000400 	andcs	r0, r0, r0, lsl #8
87807904:	20000400 	andcs	r0, r0, r0, lsl #8
87807908:	20000400 	andcs	r0, r0, r0, lsl #8
8780790c:	40000600 	andmi	r0, r0, r0, lsl #12
87807910:	c0000300 	andgt	r0, r0, r0, lsl #6
87807914:	80ff0100 	rscshi	r0, pc, r0, lsl #2
87807918:	00fe0000 	rscseq	r0, lr, r0
	...
87807968:	007e0000 	rsbseq	r0, lr, r0
8780796c:	80ff0100 	rscshi	r0, pc, r0, lsl #2
87807970:	c0810300 	addgt	r0, r1, r0, lsl #6
87807974:	40000200 	andmi	r0, r0, r0, lsl #4
87807978:	20000600 	andcs	r0, r0, r0, lsl #12
8780797c:	20000400 	andcs	r0, r0, r0, lsl #8
87807980:	20000400 	andcs	r0, r0, r0, lsl #8
87807984:	20000400 	andcs	r0, r0, r0, lsl #8
87807988:	20000600 	andcs	r0, r0, r0, lsl #12
8780798c:	40c00300 	sbcmi	r0, r0, r0, lsl #6
87807990:	80c00100 	sbchi	r0, r0, r0, lsl #2
87807994:	00030000 	andeq	r0, r3, r0
	...
878079e8:	007e0000 	rsbseq	r0, lr, r0
878079ec:	80ff0100 	rscshi	r0, pc, r0, lsl #2
878079f0:	c0800300 	addgt	r0, r0, r0, lsl #6
878079f4:	60000600 	andvs	r0, r0, r0, lsl #12
878079f8:	20000400 	andcs	r0, r0, r0, lsl #8
878079fc:	20000400 	andcs	r0, r0, r0, lsl #8
87807a00:	20000400 	andcs	r0, r0, r0, lsl #8
87807a04:	40000402 	andmi	r0, r0, r2, lsl #8
87807a08:	80000202 	andhi	r0, r0, r2, lsl #4
87807a0c:	e0ffff03 	rscs	pc, pc, r3, lsl #30
87807a10:	c0ffff07 	rscsgt	pc, pc, r7, lsl #30
87807a14:	40000000 	andmi	r0, r0, r0
87807a18:	40000000 	andmi	r0, r0, r0
	...
87807a68:	007e0000 	rsbseq	r0, lr, r0
87807a6c:	80ff0100 	rscshi	r0, pc, r0, lsl #2
87807a70:	c0110300 	andsgt	r0, r1, r0, lsl #6
87807a74:	40100200 	andsmi	r0, r0, r0, lsl #4
87807a78:	60100400 	andsvs	r0, r0, r0, lsl #8
87807a7c:	20100400 	andscs	r0, r0, r0, lsl #8
87807a80:	20100400 	andscs	r0, r0, r0, lsl #8
87807a84:	20100400 	andscs	r0, r0, r0, lsl #8
87807a88:	20100600 	andscs	r0, r0, r0, lsl #12
87807a8c:	40100300 	andsmi	r0, r0, r0, lsl #6
87807a90:	c0f00100 	rscsgt	r0, r0, r0, lsl #2
87807a94:	00710000 	rsbseq	r0, r1, r0
	...
87807ae8:	00000400 	andeq	r0, r0, r0, lsl #8
87807aec:	20000400 	andcs	r0, r0, r0, lsl #8
87807af0:	20000400 	andcs	r0, r0, r0, lsl #8
87807af4:	20000400 	andcs	r0, r0, r0, lsl #8
87807af8:	e0ff7f00 	rscs	r7, pc, r0, lsl #30
87807afc:	e0ffff01 	rscs	pc, pc, r1, lsl #30
87807b00:	20000401 	andcs	r0, r0, r1, lsl #8
87807b04:	20000403 	andcs	r0, r0, r3, lsl #8
87807b08:	20000402 	andcs	r0, r0, r2, lsl #8
87807b0c:	20000402 	andcs	r0, r0, r2, lsl #8
87807b10:	00000402 	andeq	r0, r0, r2, lsl #8
87807b14:	00000002 	andeq	r0, r0, r2
87807b18:	0000c001 	andeq	ip, r0, r1
87807b1c:	0000c001 	andeq	ip, r0, r1
	...
87807b68:	1c000000 	stcne	0, cr0, [r0], {-0}
87807b6c:	3ee30000 	cdpcc	0, 14, cr0, cr3, cr0, {0}
87807b70:	c2ff0300 	rscsgt	r0, pc, #0, 6
87807b74:	c30c0200 	movwgt	r0, #49664	; 0xc200
87807b78:	c1040400 	tstgt	r4, r0, lsl #8
87807b7c:	c1040400 	tstgt	r4, r0, lsl #8
87807b80:	c1040400 	tstgt	r4, r0, lsl #8
87807b84:	c1040400 	tstgt	r4, r0, lsl #8
87807b88:	c10c0600 	tstgt	ip, r0, lsl #12
87807b8c:	c3f80300 	mvnsgt	r0, #0, 6
87807b90:	62f00500 	rscsvs	r0, r0, #0, 10
87807b94:	7e000600 	cfmadd32vc	mvax0, mvfx0, mvfx0, mvfx0
87807b98:	3c000600 	stccc	6, cr0, [r0], {-0}
	...
87807be4:	20000002 	andcs	r0, r0, r2
87807be8:	20000002 	andcs	r0, r0, r2
87807bec:	e0ffff03 	rscs	pc, pc, r3, lsl #30
87807bf0:	e0ffff07 	rscs	pc, pc, r7, lsl #30
87807bf4:	20000100 	andcs	r0, r0, r0, lsl #2
87807bf8:	20000200 	andcs	r0, r0, r0, lsl #4
87807bfc:	00000600 	andeq	r0, r0, r0, lsl #12
87807c00:	00000400 	andeq	r0, r0, r0, lsl #8
87807c04:	00000400 	andeq	r0, r0, r0, lsl #8
87807c08:	20000400 	andcs	r0, r0, r0, lsl #8
87807c0c:	20000600 	andcs	r0, r0, r0, lsl #12
87807c10:	e0ff0300 	rscs	r0, pc, r0, lsl #6
87807c14:	e0ff0100 	rscs	r0, pc, r0, lsl #2
87807c18:	20000000 	andcs	r0, r0, r0
87807c1c:	20000000 	andcs	r0, r0, r0
	...
87807c6c:	20000400 	andcs	r0, r0, r0, lsl #8
87807c70:	20000400 	andcs	r0, r0, r0, lsl #8
87807c74:	20000400 	andcs	r0, r0, r0, lsl #8
87807c78:	20000400 	andcs	r0, r0, r0, lsl #8
87807c7c:	e0ff8703 	rscs	r8, pc, r3, lsl #14
87807c80:	e0ff8f03 	rscs	r8, pc, r3, lsl #30
87807c84:	20008003 	andcs	r8, r0, r3
87807c88:	20000000 	andcs	r0, r0, r0
87807c8c:	20000000 	andcs	r0, r0, r0
87807c90:	20000000 	andcs	r0, r0, r0
	...
87807cec:	06000000 	streq	r0, [r0], -r0
87807cf0:	07000000 	streq	r0, [r0, -r0]
87807cf4:	01000000 	mrseq	r0, (UNDEF: 0)
87807cf8:	01000000 	mrseq	r0, (UNDEF: 0)
87807cfc:	01000400 	tsteq	r0, r0, lsl #8
87807d00:	01000400 	tsteq	r0, r0, lsl #8
87807d04:	03000400 	movweq	r0, #1024	; 0x400
87807d08:	06000400 	streq	r0, [r0], -r0, lsl #8
87807d0c:	fcff8703 	ldc2l	7, cr8, [pc], #12	; 87807d20 <asc2_3216+0x2540>
87807d10:	f8ff8f03 			; <UNDEFINED> instruction: 0xf8ff8f03
87807d14:	00008003 	andeq	r8, r0, r3
	...
87807d64:	20000002 	andcs	r0, r0, r2
87807d68:	20000002 	andcs	r0, r0, r2
87807d6c:	e0ffff03 	rscs	pc, pc, r3, lsl #30
87807d70:	e0ffff07 	rscs	pc, pc, r7, lsl #30
87807d74:	20080000 	andcs	r0, r8, r0
87807d78:	20100000 	andscs	r0, r0, r0
87807d7c:	00300000 	eorseq	r0, r0, r0
87807d80:	00fc0000 	rscseq	r0, ip, r0
87807d84:	008e0500 	addeq	r0, lr, r0, lsl #10
87807d88:	a0070700 	andge	r0, r7, r0, lsl #14
87807d8c:	e0010600 	and	r0, r1, r0, lsl #12
87807d90:	e0000400 	and	r0, r0, r0, lsl #8
87807d94:	20000400 	andcs	r0, r0, r0, lsl #8
87807d98:	20000000 	andcs	r0, r0, r0
	...
87807dec:	20000002 	andcs	r0, r0, r2
87807df0:	20000002 	andcs	r0, r0, r2
87807df4:	20000002 	andcs	r0, r0, r2
87807df8:	20000002 	andcs	r0, r0, r2
87807dfc:	e0ffff03 	rscs	pc, pc, r3, lsl #30
87807e00:	e0ffff07 	rscs	pc, pc, r7, lsl #30
87807e04:	20000000 	andcs	r0, r0, r0
87807e08:	20000000 	andcs	r0, r0, r0
87807e0c:	20000000 	andcs	r0, r0, r0
87807e10:	20000000 	andcs	r0, r0, r0
	...
87807e64:	20000400 	andcs	r0, r0, r0, lsl #8
87807e68:	e0ff0700 	rscs	r0, pc, r0, lsl #14
87807e6c:	e0ff0f00 	rscs	r0, pc, r0, lsl #30
87807e70:	20000200 	andcs	r0, r0, r0, lsl #4
87807e74:	00000400 	andeq	r0, r0, r0, lsl #8
87807e78:	20000400 	andcs	r0, r0, r0, lsl #8
87807e7c:	e0ff0700 	rscs	r0, pc, r0, lsl #14
87807e80:	e0ff0300 	rscs	r0, pc, r0, lsl #6
87807e84:	20000200 	andcs	r0, r0, r0, lsl #4
87807e88:	00000400 	andeq	r0, r0, r0, lsl #8
87807e8c:	20000400 	andcs	r0, r0, r0, lsl #8
87807e90:	e0ff0700 	rscs	r0, pc, r0, lsl #14
87807e94:	e0ff0300 	rscs	r0, pc, r0, lsl #6
87807e98:	20000000 	andcs	r0, r0, r0
	...
87807ee4:	20000400 	andcs	r0, r0, r0, lsl #8
87807ee8:	20000400 	andcs	r0, r0, r0, lsl #8
87807eec:	e0ff0700 	rscs	r0, pc, r0, lsl #14
87807ef0:	e0ff0f00 	rscs	r0, pc, r0, lsl #30
87807ef4:	20000100 	andcs	r0, r0, r0, lsl #2
87807ef8:	20000200 	andcs	r0, r0, r0, lsl #4
87807efc:	00000200 	andeq	r0, r0, r0, lsl #4
87807f00:	00000400 	andeq	r0, r0, r0, lsl #8
87807f04:	00000400 	andeq	r0, r0, r0, lsl #8
87807f08:	20000400 	andcs	r0, r0, r0, lsl #8
87807f0c:	20000600 	andcs	r0, r0, r0, lsl #12
87807f10:	e0ff0300 	rscs	r0, pc, r0, lsl #6
87807f14:	e0ff0100 	rscs	r0, pc, r0, lsl #2
87807f18:	20000000 	andcs	r0, r0, r0
87807f1c:	20000000 	andcs	r0, r0, r0
	...
87807f68:	007e0000 	rsbseq	r0, lr, r0
87807f6c:	80ff0000 	rscshi	r0, pc, r0
87807f70:	c0810300 	addgt	r0, r1, r0, lsl #6
87807f74:	40000200 	andmi	r0, r0, r0, lsl #4
87807f78:	20000600 	andcs	r0, r0, r0, lsl #12
87807f7c:	20000400 	andcs	r0, r0, r0, lsl #8
87807f80:	20000400 	andcs	r0, r0, r0, lsl #8
87807f84:	20000400 	andcs	r0, r0, r0, lsl #8
87807f88:	20000600 	andcs	r0, r0, r0, lsl #12
87807f8c:	40000200 	andmi	r0, r0, r0, lsl #4
87807f90:	c0810300 	addgt	r0, r1, r0, lsl #6
87807f94:	80ff0100 	rscshi	r0, pc, r0, lsl #2
87807f98:	007e0000 	rsbseq	r0, lr, r0
	...
87807fe4:	01000400 	tsteq	r0, r0, lsl #8
87807fe8:	01000400 	tsteq	r0, r0, lsl #8
87807fec:	ffff0700 			; <UNDEFINED> instruction: 0xffff0700
87807ff0:	ffff0f00 			; <UNDEFINED> instruction: 0xffff0f00
87807ff4:	c1000100 	mrsgt	r0, (UNDEF: 16)
87807ff8:	41000200 	mrsmi	r0, R8_usr
87807ffc:	20000400 	andcs	r0, r0, r0, lsl #8
87808000:	20000400 	andcs	r0, r0, r0, lsl #8
87808004:	20000400 	andcs	r0, r0, r0, lsl #8
87808008:	20000400 	andcs	r0, r0, r0, lsl #8
8780800c:	40000600 	andmi	r0, r0, r0, lsl #12
87808010:	c0010300 	andgt	r0, r1, r0, lsl #6
87808014:	80ff0100 	rscshi	r0, pc, r0, lsl #2
87808018:	007e0000 	rsbseq	r0, lr, r0
	...
87808068:	007e0000 	rsbseq	r0, lr, r0
8780806c:	80ff0100 	rscshi	r0, pc, r0, lsl #2
87808070:	c0800300 	addgt	r0, r0, r0, lsl #6
87808074:	60000200 	andvs	r0, r0, r0, lsl #4
87808078:	20000400 	andcs	r0, r0, r0, lsl #8
8780807c:	20000400 	andcs	r0, r0, r0, lsl #8
87808080:	20000400 	andcs	r0, r0, r0, lsl #8
87808084:	20000400 	andcs	r0, r0, r0, lsl #8
87808088:	41000200 	mrsmi	r0, R8_usr
8780808c:	c1000300 	mrsgt	r0, LR_irq
87808090:	ffff0300 			; <UNDEFINED> instruction: 0xffff0300
87808094:	ffff0700 			; <UNDEFINED> instruction: 0xffff0700
87808098:	01000000 	mrseq	r0, (UNDEF: 0)
8780809c:	01000000 	mrseq	r0, (UNDEF: 0)
	...
878080e4:	20000400 	andcs	r0, r0, r0, lsl #8
878080e8:	20000400 	andcs	r0, r0, r0, lsl #8
878080ec:	20000400 	andcs	r0, r0, r0, lsl #8
878080f0:	20000400 	andcs	r0, r0, r0, lsl #8
878080f4:	e0ff0f00 	rscs	r0, pc, r0, lsl #30
878080f8:	e0ff0f00 	rscs	r0, pc, r0, lsl #30
878080fc:	20c00000 	sbccs	r0, r0, r0
87808100:	20000100 	andcs	r0, r0, r0, lsl #2
87808104:	20000200 	andcs	r0, r0, r0, lsl #4
87808108:	20000600 	andcs	r0, r0, r0, lsl #12
8780810c:	00000400 	andeq	r0, r0, r0, lsl #8
87808110:	00000400 	andeq	r0, r0, r0, lsl #8
87808114:	00000700 	andeq	r0, r0, r0, lsl #14
87808118:	00000300 	andeq	r0, r0, r0, lsl #6
	...
87808168:	e0030000 	and	r0, r3, r0
8780816c:	e0c00100 	sbc	r0, r0, r0, lsl #2
87808170:	40e00300 	rscmi	r0, r0, r0, lsl #6
87808174:	20300600 	eorscs	r0, r0, r0, lsl #12
87808178:	20300400 	eorscs	r0, r0, r0, lsl #8
8780817c:	20180400 	andscs	r0, r8, r0, lsl #8
87808180:	20180400 	andscs	r0, r8, r0, lsl #8
87808184:	20180400 	andscs	r0, r8, r0, lsl #8
87808188:	200c0400 	andcs	r0, ip, r0, lsl #8
8780818c:	600c0200 	andvs	r0, ip, r0, lsl #4
87808190:	c0070300 	andgt	r0, r7, r0, lsl #6
87808194:	80830700 	addhi	r0, r3, r0, lsl #14
	...
878081e8:	00000400 	andeq	r0, r0, r0, lsl #8
878081ec:	00000400 	andeq	r0, r0, r0, lsl #8
878081f0:	00000400 	andeq	r0, r0, r0, lsl #8
878081f4:	00000c00 	andeq	r0, r0, r0, lsl #24
878081f8:	80ff1f00 	rscshi	r1, pc, r0, lsl #30
878081fc:	c0ffff00 	rscsgt	pc, pc, r0, lsl #30
87808200:	60000400 	andvs	r0, r0, r0, lsl #8
87808204:	20000400 	andcs	r0, r0, r0, lsl #8
87808208:	20000400 	andcs	r0, r0, r0, lsl #8
8780820c:	20000400 	andcs	r0, r0, r0, lsl #8
87808210:	40000400 	andmi	r0, r0, r0, lsl #8
87808214:	80010000 	andhi	r0, r1, r0
	...
87808264:	00000400 	andeq	r0, r0, r0, lsl #8
87808268:	00000400 	andeq	r0, r0, r0, lsl #8
8780826c:	80ff0700 	rscshi	r0, pc, r0, lsl #14
87808270:	c0ff0f00 	rscsgt	r0, pc, r0, lsl #30
87808274:	60000000 	andvs	r0, r0, r0
87808278:	20000000 	andcs	r0, r0, r0
8780827c:	20000000 	andcs	r0, r0, r0
87808280:	20000000 	andcs	r0, r0, r0
87808284:	20000000 	andcs	r0, r0, r0
87808288:	40000400 	andmi	r0, r0, r0, lsl #8
8780828c:	80000400 	andhi	r0, r0, r0, lsl #8
87808290:	e0ff0700 	rscs	r0, pc, r0, lsl #14
87808294:	c0ff0f00 	rscsgt	r0, pc, r0, lsl #30
87808298:	40000000 	andmi	r0, r0, r0
8780829c:	40000000 	andmi	r0, r0, r0
	...
878082e4:	00000400 	andeq	r0, r0, r0, lsl #8
878082e8:	00000400 	andeq	r0, r0, r0, lsl #8
878082ec:	00800700 	addeq	r0, r0, r0, lsl #14
878082f0:	00f00700 	rscseq	r0, r0, r0, lsl #14
878082f4:	00fe0400 	rscseq	r0, lr, r0, lsl #8
878082f8:	c01f0400 	andsgt	r0, pc, r0, lsl #8
878082fc:	e0030000 	and	r0, r3, r0
87808300:	80030000 	andhi	r0, r3, r0
87808304:	001c0000 	andseq	r0, ip, r0
87808308:	00600400 	rsbeq	r0, r0, r0, lsl #8
8780830c:	00800700 	addeq	r0, r0, r0, lsl #14
87808310:	00000600 	andeq	r0, r0, r0, lsl #12
87808314:	00000400 	andeq	r0, r0, r0, lsl #8
	...
87808360:	00000400 	andeq	r0, r0, r0, lsl #8
87808364:	00000600 	andeq	r0, r0, r0, lsl #12
87808368:	00c00700 	sbceq	r0, r0, r0, lsl #14
8780836c:	00fc0700 	rscseq	r0, ip, r0, lsl #14
87808370:	803f0400 	eorshi	r0, pc, r0, lsl #8
87808374:	e0030000 	and	r0, r3, r0
87808378:	800f0400 	andhi	r0, pc, r0, lsl #8
8780837c:	00f00600 	rscseq	r0, r0, r0, lsl #12
87808380:	00f00700 	rscseq	r0, r0, r0, lsl #14
87808384:	80ff0700 	rscshi	r0, pc, r0, lsl #14
87808388:	e00f0400 	and	r0, pc, r0, lsl #8
8780838c:	80030000 	andhi	r0, r3, r0
87808390:	003c0400 	eorseq	r0, ip, r0, lsl #8
87808394:	00c00700 	sbceq	r0, r0, r0, lsl #14
87808398:	00000600 	andeq	r0, r0, r0, lsl #12
8780839c:	00000400 	andeq	r0, r0, r0, lsl #8
	...
878083e4:	20000000 	andcs	r0, r0, r0
878083e8:	20000400 	andcs	r0, r0, r0, lsl #8
878083ec:	60000400 	andvs	r0, r0, r0, lsl #8
878083f0:	e0000700 	and	r0, r0, r0, lsl #14
878083f4:	20830700 	addcs	r0, r3, r0, lsl #14
878083f8:	00e60700 	rsceq	r0, r6, r0, lsl #14
878083fc:	00f80400 	rscseq	r0, r8, r0, lsl #8
87808400:	003c0000 	eorseq	r0, ip, r0
87808404:	205e0400 	subscs	r0, lr, r0, lsl #8
87808408:	a0870500 	addge	r0, r7, r0, lsl #10
8780840c:	e0010600 	and	r0, r1, r0, lsl #12
87808410:	60000400 	andvs	r0, r0, r0, lsl #8
87808414:	20000400 	andcs	r0, r0, r0, lsl #8
87808418:	20000000 	andcs	r0, r0, r0
	...
87808464:	00000400 	andeq	r0, r0, r0, lsl #8
87808468:	03000400 	movweq	r0, #1024	; 0x400
8780846c:	03000700 	movweq	r0, #1792	; 0x700
87808470:	01e00700 	mvneq	r0, r0, lsl #14
87808474:	01f80400 	mvnseq	r0, r0, lsl #8
87808478:	021f0400 	andseq	r0, pc, #0, 8
8780847c:	fc070000 	stc2	0, cr0, [r7], {-0}
87808480:	e0000000 	and	r0, r0, r0
87808484:	00070000 	andeq	r0, r7, r0
87808488:	00380400 	eorseq	r0, r8, r0, lsl #8
8780848c:	00c00700 	sbceq	r0, r0, r0, lsl #14
87808490:	00000600 	andeq	r0, r0, r0, lsl #12
87808494:	00000400 	andeq	r0, r0, r0, lsl #8
87808498:	00000400 	andeq	r0, r0, r0, lsl #8
	...
878084e8:	60800700 	addvs	r0, r0, r0, lsl #14
878084ec:	e0000600 	and	r0, r0, r0, lsl #12
878084f0:	e0030400 	and	r0, r3, r0, lsl #8
878084f4:	a0070400 	andge	r0, r7, r0, lsl #8
878084f8:	200e0400 	andcs	r0, lr, r0, lsl #8
878084fc:	203c0400 	eorscs	r0, ip, r0, lsl #8
87808500:	20700400 	rsbscs	r0, r0, r0, lsl #8
87808504:	20e00500 	rsccs	r0, r0, r0, lsl #10
87808508:	20800700 	addcs	r0, r0, r0, lsl #14
8780850c:	60000700 	andvs	r0, r0, r0, lsl #14
87808510:	e0000400 	and	r0, r0, r0, lsl #8
87808514:	80030000 	andhi	r0, r3, r0
	...
8780857c:	00800000 	addeq	r0, r0, r0
87808580:	00800000 	addeq	r0, r0, r0
87808584:	00400100 	subeq	r0, r0, r0, lsl #2
87808588:	f83ffe07 			; <UNDEFINED> instruction: 0xf83ffe07
8780858c:	04000008 	streq	r0, [r0], #-8
87808590:	02000010 	andeq	r0, r0, #16
87808594:	02000010 	andeq	r0, r0, #16
	...
87808600:	ffffffff 			; <UNDEFINED> instruction: 0xffffffff
	...
87808668:	02000010 	andeq	r0, r0, #16
8780866c:	02000010 	andeq	r0, r0, #16
87808670:	04000008 	streq	r0, [r0], #-8
87808674:	f83ffe07 			; <UNDEFINED> instruction: 0xf83ffe07
87808678:	00400100 	subeq	r0, r0, r0, lsl #2
8780867c:	00800000 	addeq	r0, r0, r0
87808680:	00800000 	addeq	r0, r0, r0
	...
878086e4:	00000018 	andeq	r0, r0, r8, lsl r0
878086e8:	00000030 	andeq	r0, r0, r0, lsr r0
878086ec:	00000040 	andeq	r0, r0, r0, asr #32
878086f0:	00000040 	andeq	r0, r0, r0, asr #32
878086f4:	00000040 	andeq	r0, r0, r0, asr #32
878086f8:	00000020 	andeq	r0, r0, r0, lsr #32
878086fc:	00000030 	andeq	r0, r0, r0, lsr r0
87808700:	00000008 	andeq	r0, r0, r8
87808704:	00000004 	andeq	r0, r0, r4
87808708:	00000002 	andeq	r0, r0, r2
8780870c:	00000002 	andeq	r0, r0, r2
87808710:	00000002 	andeq	r0, r0, r2
87808714:	0000000c 	andeq	r0, r0, ip
87808718:	00000018 	andeq	r0, r0, r8, lsl r0
	...
87808764:	003b001f 	eorseq	r0, fp, pc, lsl r0
87808768:	0078005a 	rsbseq	r0, r8, sl, asr r0
8780876c:	00b50097 	umlalseq	r0, r5, r7, r0
87808770:	00f300d4 	ldrsbteq	r0, [r3], #4
87808774:	01300111 	teqeq	r0, r1, lsl r1
87808778:	0000014e 	andeq	r0, r0, lr, asr #2
8780877c:	1f1c1f00 	svcne	0x001c1f00
87808780:	1f1e1f1e 	svcne	0x001e1f1e
87808784:	1e1f1e1f 	mrcne	14, 0, r1, cr15, cr15, {0}
87808788:	Address 0x0000000087808788 is out of bounds.


Disassembly of section .ARM.exidx:

8780878c <.ARM.exidx>:
8780878c:	7fffb4f8 	svcvc	0x00ffb4f8
87808790:	00000001 	andeq	r0, r0, r1

Disassembly of section .data:

87808794 <_ctype>:
87808794:	08080808 	stmdaeq	r8, {r3, fp}
87808798:	08080808 	stmdaeq	r8, {r3, fp}
8780879c:	28282808 	stmdacs	r8!, {r3, fp, sp}
878087a0:	08082828 	stmdaeq	r8, {r3, r5, fp, sp}
878087a4:	08080808 	stmdaeq	r8, {r3, fp}
878087a8:	08080808 	stmdaeq	r8, {r3, fp}
878087ac:	08080808 	stmdaeq	r8, {r3, fp}
878087b0:	08080808 	stmdaeq	r8, {r3, fp}
878087b4:	101010a0 	andsne	r1, r0, r0, lsr #1
878087b8:	10101010 	andsne	r1, r0, r0, lsl r0
878087bc:	10101010 	andsne	r1, r0, r0, lsl r0
878087c0:	10101010 	andsne	r1, r0, r0, lsl r0
878087c4:	04040404 	streq	r0, [r4], #-1028	; 0xfffffbfc
878087c8:	04040404 	streq	r0, [r4], #-1028	; 0xfffffbfc
878087cc:	10100404 	andsne	r0, r0, r4, lsl #8
878087d0:	10101010 	andsne	r1, r0, r0, lsl r0
878087d4:	41414110 	cmpmi	r1, r0, lsl r1
878087d8:	01414141 	cmpeq	r1, r1, asr #2
878087dc:	01010101 	tsteq	r1, r1, lsl #2
878087e0:	01010101 	tsteq	r1, r1, lsl #2
878087e4:	01010101 	tsteq	r1, r1, lsl #2
878087e8:	01010101 	tsteq	r1, r1, lsl #2
878087ec:	10010101 	andne	r0, r1, r1, lsl #2
878087f0:	10101010 	andsne	r1, r0, r0, lsl r0
878087f4:	42424210 	submi	r4, r2, #16, 4
878087f8:	02424242 	subeq	r4, r2, #536870916	; 0x20000004
878087fc:	02020202 	andeq	r0, r2, #536870912	; 0x20000000
87808800:	02020202 	andeq	r0, r2, #536870912	; 0x20000000
87808804:	02020202 	andeq	r0, r2, #536870912	; 0x20000000
87808808:	02020202 	andeq	r0, r2, #536870912	; 0x20000000
8780880c:	10020202 	andne	r0, r2, r2, lsl #4
87808810:	08101010 	ldmdaeq	r0, {r4, ip}
	...
87808834:	101010a0 	andsne	r1, r0, r0, lsr #1
87808838:	10101010 	andsne	r1, r0, r0, lsl r0
8780883c:	10101010 	andsne	r1, r0, r0, lsl r0
87808840:	10101010 	andsne	r1, r0, r0, lsl r0
87808844:	10101010 	andsne	r1, r0, r0, lsl r0
87808848:	10101010 	andsne	r1, r0, r0, lsl r0
8780884c:	10101010 	andsne	r1, r0, r0, lsl r0
87808850:	10101010 	andsne	r1, r0, r0, lsl r0
87808854:	01010101 	tsteq	r1, r1, lsl #2
87808858:	01010101 	tsteq	r1, r1, lsl #2
8780885c:	01010101 	tsteq	r1, r1, lsl #2
87808860:	01010101 	tsteq	r1, r1, lsl #2
87808864:	01010101 	tsteq	r1, r1, lsl #2
87808868:	10010101 	andne	r0, r1, r1, lsl #2
8780886c:	01010101 	tsteq	r1, r1, lsl #2
87808870:	02010101 	andeq	r0, r1, #1073741824	; 0x40000000
87808874:	02020202 	andeq	r0, r2, #536870912	; 0x20000000
87808878:	02020202 	andeq	r0, r2, #536870912	; 0x20000000
8780887c:	02020202 	andeq	r0, r2, #536870912	; 0x20000000
87808880:	02020202 	andeq	r0, r2, #536870912	; 0x20000000
87808884:	02020202 	andeq	r0, r2, #536870912	; 0x20000000
87808888:	10020202 	andne	r0, r2, r2, lsl #4
8780888c:	02020202 	andeq	r0, r2, #536870912	; 0x20000000
87808890:	02020202 	andeq	r0, r2, #536870912	; 0x20000000

87808894 <release.8737>:
87808894:	Address 0x0000000087808894 is out of bounds.


Disassembly of section .bss:

87808898 <g_pcOutBuf>:
	...

87808c98 <g_pcInBuf>:
	...

87809098 <state.8755>:
87809098:	00000000 	andeq	r0, r0, r0

8780909c <irqNesting>:
8780909c:	00000000 	andeq	r0, r0, r0

878090a0 <irqTable>:
	...

878095a0 <state.8706>:
	...

878095a1 <state.8771>:
878095a1:	 	andeq	r0, r0, r0

878095a4 <___strtok>:
878095a4:	00000000 	andeq	r0, r0, r0

878095a8 <tftlcd_dev>:
	...

Disassembly of section .ARM.attributes:

00000000 <.ARM.attributes>:
   0:	00002e41 	andeq	r2, r0, r1, asr #28
   4:	61656100 	cmnvs	r5, r0, lsl #2
   8:	01006962 	tsteq	r0, r2, ror #18
   c:	00000024 	andeq	r0, r0, r4, lsr #32
  10:	412d3705 			; <UNDEFINED> instruction: 0x412d3705
  14:	070a0600 	streq	r0, [sl, -r0, lsl #12]
  18:	09010841 	stmdbeq	r1, {r0, r6, fp}
  1c:	12040a02 	andne	r0, r4, #8192	; 0x2000
  20:	15011404 	strne	r1, [r1, #-1028]	; 0xfffffbfc
  24:	18031701 	stmdane	r3, {r0, r8, r9, sl, ip}
  28:	1c021a01 			; <UNDEFINED> instruction: 0x1c021a01
  2c:	Address 0x000000000000002c is out of bounds.


Disassembly of section .comment:

00000000 <.comment>:
   0:	3a434347 	bcc	10d0d24 <shift+0x10d0d24>
   4:	62552820 	subsvs	r2, r5, #32, 16	; 0x200000
   8:	75746e75 	ldrbvc	r6, [r4, #-3701]!	; 0xfffff18b
   c:	6e694c2f 	cdpvs	12, 6, cr4, cr9, cr15, {1}
  10:	206f7261 	rsbcs	r7, pc, r1, ror #4
  14:	2e352e37 	mrccs	14, 1, r2, cr5, cr7, {1}
  18:	75332d30 	ldrvc	r2, [r3, #-3376]!	; 0xfffff2d0
  1c:	746e7562 	strbtvc	r7, [lr], #-1378	; 0xfffffa9e
  20:	317e3175 	cmncc	lr, r5, ror r1
  24:	34302e38 	ldrtcc	r2, [r0], #-3640	; 0xfffff1c8
  28:	2e372029 	cdpcs	0, 3, cr2, cr7, cr9, {1}
  2c:	00302e35 	eorseq	r2, r0, r5, lsr lr
  30:	3a434347 	bcc	10d0d54 <shift+0x10d0d54>
  34:	694c2820 	stmdbvs	ip, {r5, fp, sp}^
  38:	6f72616e 	svcvs	0x0072616e
  3c:	43434720 	movtmi	r4, #14112	; 0x3720
  40:	392e3420 	stmdbcc	lr!, {r5, sl, ip, sp}
  44:	3130322d 	teqcc	r0, sp, lsr #4
  48:	31302e37 	teqcc	r0, r7, lsr lr
  4c:	2e342029 	cdpcs	0, 3, cr2, cr4, cr9, {1}
  50:	00342e39 	eorseq	r2, r4, r9, lsr lr

Disassembly of section .debug_frame:

00000000 <.debug_frame>:
   0:	0000000c 	andeq	r0, r0, ip
   4:	ffffffff 			; <UNDEFINED> instruction: 0xffffffff
   8:	7c010001 	stcvc	0, cr0, [r1], {1}
   c:	000d0c0e 	andeq	r0, sp, lr, lsl #24
  10:	0000000c 	andeq	r0, r0, ip
  14:	00000000 	andeq	r0, r0, r0
  18:	87803931 			; <UNDEFINED> instruction: 0x87803931
  1c:	0000025c 	andeq	r0, r0, ip, asr r2
  20:	0000000c 	andeq	r0, r0, ip
  24:	ffffffff 			; <UNDEFINED> instruction: 0xffffffff
  28:	7c020001 	stcvc	0, cr0, [r2], {1}
  2c:	000d0c0e 	andeq	r0, sp, lr, lsl #24
  30:	00000030 	andeq	r0, r0, r0, lsr r0
  34:	00000020 	andeq	r0, r0, r0, lsr #32
  38:	87803ba8 	strhi	r3, [r0, r8, lsr #23]
  3c:	000000a0 	andeq	r0, r0, r0, lsr #1
  40:	8e100e55 	mrchi	14, 0, r0, cr0, cr5, {2}
  44:	450a4603 	strmi	r4, [sl, #-1539]	; 0xfffff9fd
  48:	41100ece 	tstmi	r0, lr, asr #29
  4c:	450a470b 	strmi	r4, [sl, #-1803]	; 0xfffff8f5
  50:	47100ece 	ldrmi	r0, [r0, -lr, asr #29]
  54:	450a450b 	strmi	r4, [sl, #-1291]	; 0xfffffaf5
  58:	44100ece 	ldrmi	r0, [r0], #-3790	; 0xfffff132
  5c:	0ece4a0b 	vdiveq.f32	s9, s28, s22
  60:	00000010 	andeq	r0, r0, r0, lsl r0
  64:	0000000c 	andeq	r0, r0, ip
  68:	ffffffff 			; <UNDEFINED> instruction: 0xffffffff
  6c:	7c020001 	stcvc	0, cr0, [r2], {1}
  70:	000d0c0e 	andeq	r0, sp, lr, lsl #24
  74:	00000018 	andeq	r0, r0, r8, lsl r0
  78:	00000064 	andeq	r0, r0, r4, rrx
  7c:	87803c48 	strhi	r3, [r0, r8, asr #24]
  80:	00000030 	andeq	r0, r0, r0, lsr r0
  84:	8e100e50 	mrchi	14, 0, r0, cr0, cr0, {2}
  88:	0ece4703 	cdpeq	7, 12, cr4, cr14, cr3, {0}
  8c:	00000010 	andeq	r0, r0, r0, lsl r0
  90:	0000000c 	andeq	r0, r0, ip
  94:	ffffffff 			; <UNDEFINED> instruction: 0xffffffff
  98:	7c020001 	stcvc	0, cr0, [r2], {1}
  9c:	000d0c0e 	andeq	r0, sp, lr, lsl #24
  a0:	00000020 	andeq	r0, r0, r0, lsr #32
  a4:	00000090 	muleq	r0, r0, r0
  a8:	87803c84 	strhi	r3, [r0, r4, lsl #25]
  ac:	00000116 	andeq	r0, r0, r6, lsl r1
  b0:	841c0e42 	ldrhi	r0, [ip], #-3650	; 0xfffff1be
  b4:	86068507 	strhi	r8, [r6], -r7, lsl #10
  b8:	88048705 	stmdahi	r4, {r0, r2, r8, r9, sl, pc}
  bc:	8e028903 	vmlahi.f16	s16, s4, s6	; <UNPREDICTABLE>
  c0:	00000001 	andeq	r0, r0, r1

Disassembly of section .debug_line:

00000000 <.debug_line>:
   0:	00000100 	andeq	r0, r0, r0, lsl #2
   4:	00c70002 	sbceq	r0, r7, r2
   8:	01020000 	mrseq	r0, (UNDEF: 2)
   c:	000d0efb 	strdeq	r0, [sp], -fp
  10:	01010101 	tsteq	r1, r1, lsl #2
  14:	01000000 	mrseq	r0, (UNDEF: 0)
  18:	2f010000 	svccs	0x00010000
  1c:	656d6f68 	strbvs	r6, [sp, #-3944]!	; 0xfffff098
  20:	7763742f 	strbvc	r7, [r3, -pc, lsr #8]!
  24:	75622d67 	strbvc	r2, [r2, #-3431]!	; 0xfffff299
  28:	73646c69 	cmnvc	r4, #26880	; 0x6900
  2c:	6576616c 	ldrbvs	r6, [r6, #-364]!	; 0xfffffe94
  30:	726f772f 	rsbvc	r7, pc, #12320768	; 0xbc0000
  34:	6170736b 	cmnvs	r0, fp, ror #6
  38:	742f6563 	strtvc	r6, [pc], #-1379	; 40 <shift+0x40>
  3c:	2d677763 	stclcs	7, cr7, [r7, #-396]!	; 0xfffffe74
  40:	656b616d 	strbvs	r6, [fp, #-365]!	; 0xfffffe93
  44:	6c65722d 	sfmvs	f7, 2, [r5], #-180	; 0xffffff4c
  48:	65736165 	ldrbvs	r6, [r3, #-357]!	; 0xfffffe9b
  4c:	62616c2f 	rsbvs	r6, r1, #12032	; 0x2f00
  50:	642f6c65 	strtvs	r6, [pc], #-3173	; 58 <shift+0x58>
  54:	656b636f 	strbvs	r6, [fp, #-879]!	; 0xfffffc91
  58:	72742d72 	rsbsvc	r2, r4, #7296	; 0x1c80
  5c:	79747375 	ldmdbvc	r4!, {r0, r2, r4, r5, r6, r8, r9, ip, sp, lr}^
  60:	646d612d 	strbtvs	r6, [sp], #-301	; 0xfffffed3
  64:	742d3436 	strtvc	r3, [sp], #-1078	; 0xfffffbca
  68:	2d677763 	stclcs	7, cr7, [r7, #-396]!	; 0xfffffe74
  6c:	6c697562 	cfstr64vs	mvdx7, [r9], #-392	; 0xfffffe78
  70:	61742f64 	cmnvs	r4, r4, ror #30
  74:	74656772 	strbtvc	r6, [r5], #-1906	; 0xfffff88e
  78:	6d72612f 	ldfvse	f6, [r2, #-188]!	; 0xffffff44
  7c:	6e696c2d 	cdpvs	12, 6, cr6, cr9, cr13, {1}
  80:	672d7875 			; <UNDEFINED> instruction: 0x672d7875
  84:	6165756e 	cmnvs	r5, lr, ror #10
  88:	66686962 	strbtvs	r6, [r8], -r2, ror #18
  8c:	616e732f 	cmnvs	lr, pc, lsr #6
  90:	6f687370 	svcvs	0x00687370
  94:	672f7374 			; <UNDEFINED> instruction: 0x672f7374
  98:	6c2d6363 	stcvs	3, cr6, [sp], #-396	; 0xfffffe74
  9c:	72616e69 	rsbvc	r6, r1, #1680	; 0x690
  a0:	2e342d6f 	cdpcs	13, 3, cr2, cr4, cr15, {3}
  a4:	30322d39 	eorscc	r2, r2, r9, lsr sp
  a8:	302e3731 	eorcc	r3, lr, r1, lsr r7
  ac:	696c2f31 	stmdbvs	ip!, {r0, r4, r5, r8, r9, sl, fp, sp}^
  b0:	63636762 	cmnvs	r3, #25690112	; 0x1880000
  b4:	6e6f632f 	cdpvs	3, 6, cr6, cr15, cr15, {1}
  b8:	2f676966 	svccs	0x00676966
  bc:	006d7261 	rsbeq	r7, sp, r1, ror #4
  c0:	62696c00 	rsbvs	r6, r9, #0, 24
  c4:	6e756631 	mrcvs	6, 3, r6, cr5, cr1, {1}
  c8:	532e7363 			; <UNDEFINED> instruction: 0x532e7363
  cc:	00000100 	andeq	r0, r0, r0, lsl #2
  d0:	02050000 	andeq	r0, r5, #0
  d4:	87803930 			; <UNDEFINED> instruction: 0x87803930
  d8:	0107cf03 	tsteq	r7, r3, lsl #30
  dc:	2f212121 	svccs	0x00212121
  e0:	30212f21 	eorcc	r2, r1, r1, lsr #30
  e4:	14029102 	strne	r9, [r2], #-258	; 0xfffffefe
  e8:	21212221 			; <UNDEFINED> instruction: 0x21212221
  ec:	2f4c2221 	svccs	0x004c2221
  f0:	207aeb03 	rsbscs	lr, sl, r3, lsl #22
  f4:	5805af03 	stmdapl	r5, {r0, r1, r8, r9, sl, fp, sp, pc}
  f8:	2f2f2121 	svccs	0x002f2121
  fc:	022f2f2f 	eoreq	r2, pc, #47, 30	; 0xbc
 100:	01010001 	tsteq	r1, r1
 104:	000000fb 	strdeq	r0, [r0], -fp
 108:	00c30002 	sbceq	r0, r3, r2
 10c:	01020000 	mrseq	r0, (UNDEF: 2)
 110:	000d0efb 	strdeq	r0, [sp], -fp
 114:	01010101 	tsteq	r1, r1, lsl #2
 118:	01000000 	mrseq	r0, (UNDEF: 0)
 11c:	2f010000 	svccs	0x00010000
 120:	656d6f68 	strbvs	r6, [sp, #-3944]!	; 0xfffff098
 124:	7763742f 	strbvc	r7, [r3, -pc, lsr #8]!
 128:	75622d67 	strbvc	r2, [r2, #-3431]!	; 0xfffff299
 12c:	73646c69 	cmnvc	r4, #26880	; 0x6900
 130:	6576616c 	ldrbvs	r6, [r6, #-364]!	; 0xfffffe94
 134:	726f772f 	rsbvc	r7, pc, #12320768	; 0xbc0000
 138:	6170736b 	cmnvs	r0, fp, ror #6
 13c:	742f6563 	strtvc	r6, [pc], #-1379	; 144 <shift+0x144>
 140:	2d677763 	stclcs	7, cr7, [r7, #-396]!	; 0xfffffe74
 144:	656b616d 	strbvs	r6, [fp, #-365]!	; 0xfffffe93
 148:	6c65722d 	sfmvs	f7, 2, [r5], #-180	; 0xffffff4c
 14c:	65736165 	ldrbvs	r6, [r3, #-357]!	; 0xfffffe9b
 150:	62616c2f 	rsbvs	r6, r1, #12032	; 0x2f00
 154:	642f6c65 	strtvs	r6, [pc], #-3173	; 15c <shift+0x15c>
 158:	656b636f 	strbvs	r6, [fp, #-879]!	; 0xfffffc91
 15c:	72742d72 	rsbsvc	r2, r4, #7296	; 0x1c80
 160:	79747375 	ldmdbvc	r4!, {r0, r2, r4, r5, r6, r8, r9, ip, sp, lr}^
 164:	646d612d 	strbtvs	r6, [sp], #-301	; 0xfffffed3
 168:	742d3436 	strtvc	r3, [sp], #-1078	; 0xfffffbca
 16c:	2d677763 	stclcs	7, cr7, [r7, #-396]!	; 0xfffffe74
 170:	6c697562 	cfstr64vs	mvdx7, [r9], #-392	; 0xfffffe78
 174:	61742f64 	cmnvs	r4, r4, ror #30
 178:	74656772 	strbtvc	r6, [r5], #-1906	; 0xfffff88e
 17c:	6d72612f 	ldfvse	f6, [r2, #-188]!	; 0xffffff44
 180:	6e696c2d 	cdpvs	12, 6, cr6, cr9, cr13, {1}
 184:	672d7875 			; <UNDEFINED> instruction: 0x672d7875
 188:	6165756e 	cmnvs	r5, lr, ror #10
 18c:	66686962 	strbtvs	r6, [r8], -r2, ror #18
 190:	616e732f 	cmnvs	lr, pc, lsr #6
 194:	6f687370 	svcvs	0x00687370
 198:	672f7374 			; <UNDEFINED> instruction: 0x672f7374
 19c:	6c2d6363 	stcvs	3, cr6, [sp], #-396	; 0xfffffe74
 1a0:	72616e69 	rsbvc	r6, r1, #1680	; 0x690
 1a4:	2e342d6f 	cdpcs	13, 3, cr2, cr4, cr15, {3}
 1a8:	30322d39 	eorscc	r2, r2, r9, lsr sp
 1ac:	302e3731 	eorcc	r3, lr, r1, lsr r7
 1b0:	696c2f31 	stmdbvs	ip!, {r0, r4, r5, r8, r9, sl, fp, sp}^
 1b4:	63636762 	cmnvs	r3, #25690112	; 0x1880000
 1b8:	6e6f632f 	cdpvs	3, 6, cr6, cr15, cr15, {1}
 1bc:	2f676966 	svccs	0x00676966
 1c0:	006d7261 	rsbeq	r7, sp, r1, ror #4
 1c4:	61706200 	cmnvs	r0, r0, lsl #4
 1c8:	532e6962 			; <UNDEFINED> instruction: 0x532e6962
 1cc:	00000100 	andeq	r0, r0, r0, lsl #2
 1d0:	02050000 	andeq	r0, r5, #0
 1d4:	87803ba8 	strhi	r3, [r0, r8, lsr #23]
 1d8:	0101b903 	tsteq	r1, r3, lsl #18
 1dc:	214b1408 	cmpcs	fp, r8, lsl #8
 1e0:	30222121 	eorcc	r2, r2, r1, lsr #2
 1e4:	2f212459 	svccs	0x00212459
 1e8:	59302221 	ldmdbpl	r0!, {r0, r5, r9, sp}
 1ec:	2f212f21 	svccs	0x00212f21
 1f0:	30302124 	eorscc	r2, r0, r4, lsr #2
 1f4:	242f2159 	strtcs	r2, [pc], #-345	; 1fc <shift+0x1fc>
 1f8:	592f3021 	stmdbpl	pc!, {r0, r5, ip, sp}	; <UNPREDICTABLE>
 1fc:	01022f21 	tsteq	r2, r1, lsr #30
 200:	dd010100 	stfles	f0, [r1, #-0]
 204:	02000000 	andeq	r0, r0, #0
 208:	0000c300 	andeq	ip, r0, r0, lsl #6
 20c:	fb010200 	blx	40a16 <shift+0x40a16>
 210:	01000d0e 	tsteq	r0, lr, lsl #26
 214:	00010101 	andeq	r0, r1, r1, lsl #2
 218:	00010000 	andeq	r0, r1, r0
 21c:	682f0100 	stmdavs	pc!, {r8}	; <UNPREDICTABLE>
 220:	2f656d6f 	svccs	0x00656d6f
 224:	67776374 			; <UNDEFINED> instruction: 0x67776374
 228:	6975622d 	ldmdbvs	r5!, {r0, r2, r3, r5, r9, sp, lr}^
 22c:	6c73646c 	cfldrdvs	mvd6, [r3], #-432	; 0xfffffe50
 230:	2f657661 	svccs	0x00657661
 234:	6b726f77 	blvs	1c9c018 <shift+0x1c9c018>
 238:	63617073 	cmnvs	r1, #115	; 0x73
 23c:	63742f65 	cmnvs	r4, #404	; 0x194
 240:	6d2d6777 	stcvs	7, cr6, [sp, #-476]!	; 0xfffffe24
 244:	2d656b61 	fstmdbxcs	r5!, {d22-d69}	;@ Deprecated
 248:	656c6572 	strbvs	r6, [ip, #-1394]!	; 0xfffffa8e
 24c:	2f657361 	svccs	0x00657361
 250:	6562616c 	strbvs	r6, [r2, #-364]!	; 0xfffffe94
 254:	6f642f6c 	svcvs	0x00642f6c
 258:	72656b63 	rsbvc	r6, r5, #101376	; 0x18c00
 25c:	7572742d 	ldrbvc	r7, [r2, #-1069]!	; 0xfffffbd3
 260:	2d797473 	cfldrdcs	mvd7, [r9, #-460]!	; 0xfffffe34
 264:	36646d61 	strbtcc	r6, [r4], -r1, ror #26
 268:	63742d34 	cmnvs	r4, #52, 26	; 0xd00
 26c:	622d6777 	eorvs	r6, sp, #31195136	; 0x1dc0000
 270:	646c6975 	strbtvs	r6, [ip], #-2421	; 0xfffff68b
 274:	7261742f 	rsbvc	r7, r1, #788529152	; 0x2f000000
 278:	2f746567 	svccs	0x00746567
 27c:	2d6d7261 	sfmcs	f7, 2, [sp, #-388]!	; 0xfffffe7c
 280:	756e696c 	strbvc	r6, [lr, #-2412]!	; 0xfffff694
 284:	6e672d78 	mcrvs	13, 3, r2, cr7, cr8, {3}
 288:	62616575 	rsbvs	r6, r1, #490733568	; 0x1d400000
 28c:	2f666869 	svccs	0x00666869
 290:	70616e73 	rsbvc	r6, r1, r3, ror lr
 294:	746f6873 	strbtvc	r6, [pc], #-2163	; 29c <shift+0x29c>
 298:	63672f73 	cmnvs	r7, #460	; 0x1cc
 29c:	696c2d63 	stmdbvs	ip!, {r0, r1, r5, r6, r8, sl, fp, sp}^
 2a0:	6f72616e 	svcvs	0x0072616e
 2a4:	392e342d 	stmdbcc	lr!, {r0, r2, r3, r5, sl, ip, sp}
 2a8:	3130322d 	teqcc	r0, sp, lsr #4
 2ac:	31302e37 	teqcc	r0, r7, lsr lr
 2b0:	62696c2f 	rsbvs	r6, r9, #12032	; 0x2f00
 2b4:	2f636367 	svccs	0x00636367
 2b8:	666e6f63 	strbtvs	r6, [lr], -r3, ror #30
 2bc:	612f6769 			; <UNDEFINED> instruction: 0x612f6769
 2c0:	00006d72 	andeq	r6, r0, r2, ror sp
 2c4:	62617062 	rsbvs	r7, r1, #98	; 0x62
 2c8:	00532e69 	subseq	r2, r3, r9, ror #28
 2cc:	00000001 	andeq	r0, r0, r1
 2d0:	48020500 	stmdami	r2, {r8, sl}
 2d4:	0387803c 	orreq	r8, r7, #60	; 0x3c
 2d8:	bc0101fd 	stflts	f0, [r1], {253}	; 0xfd
 2dc:	02592f4c 	subseq	r2, r9, #76, 30	; 0x130
 2e0:	01010001 	tsteq	r1, r1
 2e4:	000000e3 	andeq	r0, r0, r3, ror #1
 2e8:	00c70002 	sbceq	r0, r7, r2
 2ec:	01020000 	mrseq	r0, (UNDEF: 2)
 2f0:	000d0efb 	strdeq	r0, [sp], -fp
 2f4:	01010101 	tsteq	r1, r1, lsl #2
 2f8:	01000000 	mrseq	r0, (UNDEF: 0)
 2fc:	2f010000 	svccs	0x00010000
 300:	656d6f68 	strbvs	r6, [sp, #-3944]!	; 0xfffff098
 304:	7763742f 	strbvc	r7, [r3, -pc, lsr #8]!
 308:	75622d67 	strbvc	r2, [r2, #-3431]!	; 0xfffff299
 30c:	73646c69 	cmnvc	r4, #26880	; 0x6900
 310:	6576616c 	ldrbvs	r6, [r6, #-364]!	; 0xfffffe94
 314:	726f772f 	rsbvc	r7, pc, #12320768	; 0xbc0000
 318:	6170736b 	cmnvs	r0, fp, ror #6
 31c:	742f6563 	strtvc	r6, [pc], #-1379	; 324 <shift+0x324>
 320:	2d677763 	stclcs	7, cr7, [r7, #-396]!	; 0xfffffe74
 324:	656b616d 	strbvs	r6, [fp, #-365]!	; 0xfffffe93
 328:	6c65722d 	sfmvs	f7, 2, [r5], #-180	; 0xffffff4c
 32c:	65736165 	ldrbvs	r6, [r3, #-357]!	; 0xfffffe9b
 330:	62616c2f 	rsbvs	r6, r1, #12032	; 0x2f00
 334:	642f6c65 	strtvs	r6, [pc], #-3173	; 33c <shift+0x33c>
 338:	656b636f 	strbvs	r6, [fp, #-879]!	; 0xfffffc91
 33c:	72742d72 	rsbsvc	r2, r4, #7296	; 0x1c80
 340:	79747375 	ldmdbvc	r4!, {r0, r2, r4, r5, r6, r8, r9, ip, sp, lr}^
 344:	646d612d 	strbtvs	r6, [sp], #-301	; 0xfffffed3
 348:	742d3436 	strtvc	r3, [sp], #-1078	; 0xfffffbca
 34c:	2d677763 	stclcs	7, cr7, [r7, #-396]!	; 0xfffffe74
 350:	6c697562 	cfstr64vs	mvdx7, [r9], #-392	; 0xfffffe78
 354:	61742f64 	cmnvs	r4, r4, ror #30
 358:	74656772 	strbtvc	r6, [r5], #-1906	; 0xfffff88e
 35c:	6d72612f 	ldfvse	f6, [r2, #-188]!	; 0xffffff44
 360:	6e696c2d 	cdpvs	12, 6, cr6, cr9, cr13, {1}
 364:	672d7875 			; <UNDEFINED> instruction: 0x672d7875
 368:	6165756e 	cmnvs	r5, lr, ror #10
 36c:	66686962 	strbtvs	r6, [r8], -r2, ror #18
 370:	616e732f 	cmnvs	lr, pc, lsr #6
 374:	6f687370 	svcvs	0x00687370
 378:	672f7374 			; <UNDEFINED> instruction: 0x672f7374
 37c:	6c2d6363 	stcvs	3, cr6, [sp], #-396	; 0xfffffe74
 380:	72616e69 	rsbvc	r6, r1, #1680	; 0x690
 384:	2e342d6f 	cdpcs	13, 3, cr2, cr4, cr15, {3}
 388:	30322d39 	eorscc	r2, r2, r9, lsr sp
 38c:	302e3731 	eorcc	r3, lr, r1, lsr r7
 390:	696c2f31 	stmdbvs	ip!, {r0, r4, r5, r8, r9, sl, fp, sp}^
 394:	63636762 	cmnvs	r3, #25690112	; 0x1880000
 398:	6e6f632f 	cdpvs	3, 6, cr6, cr15, cr15, {1}
 39c:	2f676966 	svccs	0x00676966
 3a0:	006d7261 	rsbeq	r7, sp, r1, ror #4
 3a4:	62696c00 	rsbvs	r6, r9, #0, 24
 3a8:	6e756631 	mrcvs	6, 3, r6, cr5, cr1, {1}
 3ac:	532e7363 			; <UNDEFINED> instruction: 0x532e7363
 3b0:	00000100 	andeq	r0, r0, r0, lsl #2
 3b4:	02050000 	andeq	r0, r5, #0
 3b8:	87803c78 			; <UNDEFINED> instruction: 0x87803c78
 3bc:	010ab003 	tsteq	sl, r3
 3c0:	bb032f21 	bllt	cc04c <shift+0xcc04c>
 3c4:	01022e77 	tsteq	r2, r7, ror lr
 3c8:	13010100 	movwne	r0, #4352	; 0x1100
 3cc:	02000001 	andeq	r0, r0, #1
 3d0:	0000c700 	andeq	ip, r0, r0, lsl #14
 3d4:	fb010200 	blx	40bde <shift+0x40bde>
 3d8:	01000d0e 	tsteq	r0, lr, lsl #26
 3dc:	00010101 	andeq	r0, r1, r1, lsl #2
 3e0:	00010000 	andeq	r0, r1, r0
 3e4:	682f0100 	stmdavs	pc!, {r8}	; <UNPREDICTABLE>
 3e8:	2f656d6f 	svccs	0x00656d6f
 3ec:	67776374 			; <UNDEFINED> instruction: 0x67776374
 3f0:	6975622d 	ldmdbvs	r5!, {r0, r2, r3, r5, r9, sp, lr}^
 3f4:	6c73646c 	cfldrdvs	mvd6, [r3], #-432	; 0xfffffe50
 3f8:	2f657661 	svccs	0x00657661
 3fc:	6b726f77 	blvs	1c9c1e0 <shift+0x1c9c1e0>
 400:	63617073 	cmnvs	r1, #115	; 0x73
 404:	63742f65 	cmnvs	r4, #404	; 0x194
 408:	6d2d6777 	stcvs	7, cr6, [sp, #-476]!	; 0xfffffe24
 40c:	2d656b61 	fstmdbxcs	r5!, {d22-d69}	;@ Deprecated
 410:	656c6572 	strbvs	r6, [ip, #-1394]!	; 0xfffffa8e
 414:	2f657361 	svccs	0x00657361
 418:	6562616c 	strbvs	r6, [r2, #-364]!	; 0xfffffe94
 41c:	6f642f6c 	svcvs	0x00642f6c
 420:	72656b63 	rsbvc	r6, r5, #101376	; 0x18c00
 424:	7572742d 	ldrbvc	r7, [r2, #-1069]!	; 0xfffffbd3
 428:	2d797473 	cfldrdcs	mvd7, [r9, #-460]!	; 0xfffffe34
 42c:	36646d61 	strbtcc	r6, [r4], -r1, ror #26
 430:	63742d34 	cmnvs	r4, #52, 26	; 0xd00
 434:	622d6777 	eorvs	r6, sp, #31195136	; 0x1dc0000
 438:	646c6975 	strbtvs	r6, [ip], #-2421	; 0xfffff68b
 43c:	7261742f 	rsbvc	r7, r1, #788529152	; 0x2f000000
 440:	2f746567 	svccs	0x00746567
 444:	2d6d7261 	sfmcs	f7, 2, [sp, #-388]!	; 0xfffffe7c
 448:	756e696c 	strbvc	r6, [lr, #-2412]!	; 0xfffff694
 44c:	6e672d78 	mcrvs	13, 3, r2, cr7, cr8, {3}
 450:	62616575 	rsbvs	r6, r1, #490733568	; 0x1d400000
 454:	2f666869 	svccs	0x00666869
 458:	70616e73 	rsbvc	r6, r1, r3, ror lr
 45c:	746f6873 	strbtvc	r6, [pc], #-2163	; 464 <shift+0x464>
 460:	63672f73 	cmnvs	r7, #460	; 0x1cc
 464:	696c2d63 	stmdbvs	ip!, {r0, r1, r5, r6, r8, sl, fp, sp}^
 468:	6f72616e 	svcvs	0x0072616e
 46c:	392e342d 	stmdbcc	lr!, {r0, r2, r3, r5, sl, ip, sp}
 470:	3130322d 	teqcc	r0, sp, lsr #4
 474:	31302e37 	teqcc	r0, r7, lsr lr
 478:	62696c2f 	rsbvs	r6, r9, #12032	; 0x2f00
 47c:	00636367 	rsbeq	r6, r3, r7, ror #6
 480:	62696c00 	rsbvs	r6, r9, #0, 24
 484:	32636367 	rsbcc	r6, r3, #-1677721599	; 0x9c000001
 488:	0100632e 	tsteq	r0, lr, lsr #6
 48c:	696c0000 	stmdbvs	ip!, {}^	; <UNPREDICTABLE>
 490:	63636762 	cmnvs	r3, #25690112	; 0x1880000
 494:	00682e32 	rsbeq	r2, r8, r2, lsr lr
 498:	00000001 	andeq	r0, r0, r1
 49c:	84020500 	strhi	r0, [r2], #-1280	; 0xfffffb00
 4a0:	0387803c 	orreq	r8, r7, #60	; 0x3c
 4a4:	2e0107b0 	mcrcs	7, 0, r0, cr1, cr0, {5}
 4a8:	03200c03 			; <UNDEFINED> instruction: 0x03200c03
 4ac:	0c032074 	stceq	0, cr2, [r3], {116}	; 0x74
 4b0:	2e74033c 	mrccs	3, 3, r0, cr4, cr12, {1}
 4b4:	3c0b0321 	stccc	3, cr0, [fp], {33}	; 0x21
 4b8:	214c4b22 	cmpcs	ip, r2, lsr #22
 4bc:	3c6803f9 	stclcc	3, cr0, [r8], #-996	; 0xfffffc1c
 4c0:	233c1803 	teqcs	ip, #196608	; 0x30000
 4c4:	3281212d 	addcc	r2, r1, #1073741835	; 0x4000000b
 4c8:	29865230 	stmibcs	r6, {r4, r5, r9, ip, lr}
 4cc:	b933304d 	ldmdblt	r3!, {r0, r2, r3, r6, ip, sp}
 4d0:	21214921 			; <UNDEFINED> instruction: 0x21214921
 4d4:	30213208 	eorcc	r3, r1, r8, lsl #4
 4d8:	492e5503 	stmdbmi	lr!, {r0, r1, r8, sl, ip, lr}
 4dc:	0005024b 	andeq	r0, r5, fp, asr #4
 4e0:	Address 0x00000000000004e0 is out of bounds.


Disassembly of section .debug_info:

00000000 <.debug_info>:
   0:	000001bb 			; <UNDEFINED> instruction: 0x000001bb
   4:	00000002 	andeq	r0, r0, r2
   8:	01040000 	mrseq	r0, (UNDEF: 4)
   c:	00000000 	andeq	r0, r0, r0
  10:	87803930 			; <UNDEFINED> instruction: 0x87803930
  14:	87803ba6 	strhi	r3, [r0, r6, lsr #23]
  18:	6d6f682f 	stclvs	8, cr6, [pc, #-188]!	; ffffff64 <__bss_end+0x787f699c>
  1c:	63742f65 	cmnvs	r4, #404	; 0x194
  20:	622d6777 	eorvs	r6, sp, #31195136	; 0x1dc0000
  24:	646c6975 	strbtvs	r6, [ip], #-2421	; 0xfffff68b
  28:	76616c73 			; <UNDEFINED> instruction: 0x76616c73
  2c:	6f772f65 	svcvs	0x00772f65
  30:	70736b72 	rsbsvc	r6, r3, r2, ror fp
  34:	2f656361 	svccs	0x00656361
  38:	67776374 			; <UNDEFINED> instruction: 0x67776374
  3c:	6b616d2d 	blvs	185b4f8 <shift+0x185b4f8>
  40:	65722d65 	ldrbvs	r2, [r2, #-3429]!	; 0xfffff29b
  44:	7361656c 	cmnvc	r1, #108, 10	; 0x1b000000
  48:	616c2f65 	cmnvs	ip, r5, ror #30
  4c:	2f6c6562 	svccs	0x006c6562
  50:	6b636f64 	blvs	18dbde8 <shift+0x18dbde8>
  54:	742d7265 	strtvc	r7, [sp], #-613	; 0xfffffd9b
  58:	74737572 	ldrbtvc	r7, [r3], #-1394	; 0xfffffa8e
  5c:	6d612d79 	stclvs	13, cr2, [r1, #-484]!	; 0xfffffe1c
  60:	2d343664 	ldccs	6, cr3, [r4, #-400]!	; 0xfffffe70
  64:	67776374 			; <UNDEFINED> instruction: 0x67776374
  68:	6975622d 	ldmdbvs	r5!, {r0, r2, r3, r5, r9, sp, lr}^
  6c:	742f646c 	strtvc	r6, [pc], #-1132	; 74 <shift+0x74>
  70:	65677261 	strbvs	r7, [r7, #-609]!	; 0xfffffd9f
  74:	72612f74 	rsbvc	r2, r1, #116, 30	; 0x1d0
  78:	696c2d6d 	stmdbvs	ip!, {r0, r2, r3, r5, r6, r8, sl, fp, sp}^
  7c:	2d78756e 	cfldr64cs	mvdx7, [r8, #-440]!	; 0xfffffe48
  80:	65756e67 	ldrbvs	r6, [r5, #-3687]!	; 0xfffff199
  84:	68696261 	stmdavs	r9!, {r0, r5, r6, r9, sp, lr}^
  88:	6e732f66 	cdpvs	15, 7, cr2, cr3, cr6, {3}
  8c:	68737061 	ldmdavs	r3!, {r0, r5, r6, ip, sp, lr}^
  90:	2f73746f 	svccs	0x0073746f
  94:	2d636367 	stclcs	3, cr6, [r3, #-412]!	; 0xfffffe64
  98:	616e696c 	cmnvs	lr, ip, ror #18
  9c:	342d6f72 	strtcc	r6, [sp], #-3954	; 0xfffff08e
  a0:	322d392e 	eorcc	r3, sp, #753664	; 0xb8000
  a4:	2e373130 	mrccs	1, 1, r3, cr7, cr0, {1}
  a8:	6c2f3130 	stfvss	f3, [pc], #-192	; fffffff0 <__bss_end+0x787f6a28>
  ac:	63676269 	cmnvs	r7, #-1879048186	; 0x90000006
  b0:	6f632f63 	svcvs	0x00632f63
  b4:	6769666e 	strbvs	r6, [r9, -lr, ror #12]!
  b8:	6d72612f 	ldfvse	f6, [r2, #-188]!	; 0xffffff44
  bc:	62696c2f 	rsbvs	r6, r9, #12032	; 0x2f00
  c0:	6e756631 	mrcvs	6, 3, r6, cr5, cr1, {1}
  c4:	532e7363 			; <UNDEFINED> instruction: 0x532e7363
  c8:	6f682f00 	svcvs	0x00682f00
  cc:	742f656d 	strtvc	r6, [pc], #-1389	; d4 <shift+0xd4>
  d0:	2d677763 	stclcs	7, cr7, [r7, #-396]!	; 0xfffffe74
  d4:	6c697562 	cfstr64vs	mvdx7, [r9], #-392	; 0xfffffe78
  d8:	616c7364 	cmnvs	ip, r4, ror #6
  dc:	772f6576 			; <UNDEFINED> instruction: 0x772f6576
  e0:	736b726f 	cmnvc	fp, #-268435450	; 0xf0000006
  e4:	65636170 	strbvs	r6, [r3, #-368]!	; 0xfffffe90
  e8:	7763742f 	strbvc	r7, [r3, -pc, lsr #8]!
  ec:	616d2d67 	cmnvs	sp, r7, ror #26
  f0:	722d656b 	eorvc	r6, sp, #448790528	; 0x1ac00000
  f4:	61656c65 	cmnvs	r5, r5, ror #24
  f8:	6c2f6573 	cfstr32vs	mvfx6, [pc], #-460	; ffffff34 <__bss_end+0x787f696c>
  fc:	6c656261 	sfmvs	f6, 2, [r5], #-388	; 0xfffffe7c
 100:	636f642f 	cmnvs	pc, #788529152	; 0x2f000000
 104:	2d72656b 	cfldr64cs	mvdx6, [r2, #-428]!	; 0xfffffe54
 108:	73757274 	cmnvc	r5, #116, 4	; 0x40000007
 10c:	612d7974 			; <UNDEFINED> instruction: 0x612d7974
 110:	3436646d 	ldrtcc	r6, [r6], #-1133	; 0xfffffb93
 114:	7763742d 	strbvc	r7, [r3, -sp, lsr #8]!
 118:	75622d67 	strbvc	r2, [r2, #-3431]!	; 0xfffff299
 11c:	2f646c69 	svccs	0x00646c69
 120:	67726174 			; <UNDEFINED> instruction: 0x67726174
 124:	612f7465 			; <UNDEFINED> instruction: 0x612f7465
 128:	6c2d6d72 	stcvs	13, cr6, [sp], #-456	; 0xfffffe38
 12c:	78756e69 	ldmdavc	r5!, {r0, r3, r5, r6, r9, sl, fp, sp, lr}^
 130:	756e672d 	strbvc	r6, [lr, #-1837]!	; 0xfffff8d3
 134:	69626165 	stmdbvs	r2!, {r0, r2, r5, r6, r8, sp, lr}^
 138:	5f2f6668 	svcpl	0x002f6668
 13c:	6c697562 	cfstr64vs	mvdx7, [r9], #-392	; 0xfffffe78
 140:	75622f64 	strbvc	r2, [r2, #-3940]!	; 0xfffff09c
 144:	73646c69 	cmnvc	r4, #26880	; 0x6900
 148:	3638782f 	ldrtcc	r7, [r8], -pc, lsr #16
 14c:	2d34365f 	ldccs	6, cr3, [r4, #-380]!	; 0xfffffe84
 150:	6e6b6e75 	mcrvs	14, 3, r6, cr11, cr5, {3}
 154:	2d6e776f 	stclcs	7, cr7, [lr, #-444]!	; 0xfffffe44
 158:	756e696c 	strbvc	r6, [lr, #-2412]!	; 0xfffff694
 15c:	6e672d78 	mcrvs	13, 3, r2, cr7, cr8, {3}
 160:	72612f75 	rsbvc	r2, r1, #468	; 0x1d4
 164:	696c2d6d 	stmdbvs	ip!, {r0, r2, r3, r5, r6, r8, sl, fp, sp}^
 168:	2d78756e 	cfldr64cs	mvdx7, [r8, #-440]!	; 0xfffffe48
 16c:	65756e67 	ldrbvs	r6, [r5, #-3687]!	; 0xfffff199
 170:	68696261 	stmdavs	r9!, {r0, r5, r6, r9, sp, lr}^
 174:	63672f66 	cmnvs	r7, #408	; 0x198
 178:	696c2d63 	stmdbvs	ip!, {r0, r1, r5, r6, r8, sl, fp, sp}^
 17c:	6f72616e 	svcvs	0x0072616e
 180:	392e342d 	stmdbcc	lr!, {r0, r2, r3, r5, sl, ip, sp}
 184:	3130322d 	teqcc	r0, sp, lsr #4
 188:	31302e37 	teqcc	r0, r7, lsr lr
 18c:	6174732d 	cmnvs	r4, sp, lsr #6
 190:	2f326567 	svccs	0x00326567
 194:	2d6d7261 	sfmcs	f7, 2, [sp, #-388]!	; 0xfffffe7c
 198:	756e696c 	strbvc	r6, [lr, #-2412]!	; 0xfffff694
 19c:	6e672d78 	mcrvs	13, 3, r2, cr7, cr8, {3}
 1a0:	62616575 	rsbvs	r6, r1, #490733568	; 0x1d400000
 1a4:	2f666869 	svccs	0x00666869
 1a8:	6762696c 	strbvs	r6, [r2, -ip, ror #18]!
 1ac:	47006363 	strmi	r6, [r0, -r3, ror #6]
 1b0:	4120554e 			; <UNDEFINED> instruction: 0x4120554e
 1b4:	2e322053 	mrccs	0, 1, r2, cr2, cr3, {2}
 1b8:	302e3432 	eorcc	r3, lr, r2, lsr r4
 1bc:	b7800100 	strlt	r0, [r0, r0, lsl #2]
 1c0:	02000001 	andeq	r0, r0, #1
 1c4:	00001400 	andeq	r1, r0, r0, lsl #8
 1c8:	04010400 	streq	r0, [r1], #-1024	; 0xfffffc00
 1cc:	a8000001 	stmdage	r0, {r0}
 1d0:	4887803b 	stmmi	r7, {r0, r1, r3, r4, r5, pc}
 1d4:	2f87803c 	svccs	0x0087803c
 1d8:	656d6f68 	strbvs	r6, [sp, #-3944]!	; 0xfffff098
 1dc:	7763742f 	strbvc	r7, [r3, -pc, lsr #8]!
 1e0:	75622d67 	strbvc	r2, [r2, #-3431]!	; 0xfffff299
 1e4:	73646c69 	cmnvc	r4, #26880	; 0x6900
 1e8:	6576616c 	ldrbvs	r6, [r6, #-364]!	; 0xfffffe94
 1ec:	726f772f 	rsbvc	r7, pc, #12320768	; 0xbc0000
 1f0:	6170736b 	cmnvs	r0, fp, ror #6
 1f4:	742f6563 	strtvc	r6, [pc], #-1379	; 1fc <shift+0x1fc>
 1f8:	2d677763 	stclcs	7, cr7, [r7, #-396]!	; 0xfffffe74
 1fc:	656b616d 	strbvs	r6, [fp, #-365]!	; 0xfffffe93
 200:	6c65722d 	sfmvs	f7, 2, [r5], #-180	; 0xffffff4c
 204:	65736165 	ldrbvs	r6, [r3, #-357]!	; 0xfffffe9b
 208:	62616c2f 	rsbvs	r6, r1, #12032	; 0x2f00
 20c:	642f6c65 	strtvs	r6, [pc], #-3173	; 214 <shift+0x214>
 210:	656b636f 	strbvs	r6, [fp, #-879]!	; 0xfffffc91
 214:	72742d72 	rsbsvc	r2, r4, #7296	; 0x1c80
 218:	79747375 	ldmdbvc	r4!, {r0, r2, r4, r5, r6, r8, r9, ip, sp, lr}^
 21c:	646d612d 	strbtvs	r6, [sp], #-301	; 0xfffffed3
 220:	742d3436 	strtvc	r3, [sp], #-1078	; 0xfffffbca
 224:	2d677763 	stclcs	7, cr7, [r7, #-396]!	; 0xfffffe74
 228:	6c697562 	cfstr64vs	mvdx7, [r9], #-392	; 0xfffffe78
 22c:	61742f64 	cmnvs	r4, r4, ror #30
 230:	74656772 	strbtvc	r6, [r5], #-1906	; 0xfffff88e
 234:	6d72612f 	ldfvse	f6, [r2, #-188]!	; 0xffffff44
 238:	6e696c2d 	cdpvs	12, 6, cr6, cr9, cr13, {1}
 23c:	672d7875 			; <UNDEFINED> instruction: 0x672d7875
 240:	6165756e 	cmnvs	r5, lr, ror #10
 244:	66686962 	strbtvs	r6, [r8], -r2, ror #18
 248:	616e732f 	cmnvs	lr, pc, lsr #6
 24c:	6f687370 	svcvs	0x00687370
 250:	672f7374 			; <UNDEFINED> instruction: 0x672f7374
 254:	6c2d6363 	stcvs	3, cr6, [sp], #-396	; 0xfffffe74
 258:	72616e69 	rsbvc	r6, r1, #1680	; 0x690
 25c:	2e342d6f 	cdpcs	13, 3, cr2, cr4, cr15, {3}
 260:	30322d39 	eorscc	r2, r2, r9, lsr sp
 264:	302e3731 	eorcc	r3, lr, r1, lsr r7
 268:	696c2f31 	stmdbvs	ip!, {r0, r4, r5, r8, r9, sl, fp, sp}^
 26c:	63636762 	cmnvs	r3, #25690112	; 0x1880000
 270:	6e6f632f 	cdpvs	3, 6, cr6, cr15, cr15, {1}
 274:	2f676966 	svccs	0x00676966
 278:	2f6d7261 	svccs	0x006d7261
 27c:	62617062 	rsbvs	r7, r1, #98	; 0x62
 280:	00532e69 	subseq	r2, r3, r9, ror #28
 284:	6d6f682f 	stclvs	8, cr6, [pc, #-188]!	; 1d0 <shift+0x1d0>
 288:	63742f65 	cmnvs	r4, #404	; 0x194
 28c:	622d6777 	eorvs	r6, sp, #31195136	; 0x1dc0000
 290:	646c6975 	strbtvs	r6, [ip], #-2421	; 0xfffff68b
 294:	76616c73 			; <UNDEFINED> instruction: 0x76616c73
 298:	6f772f65 	svcvs	0x00772f65
 29c:	70736b72 	rsbsvc	r6, r3, r2, ror fp
 2a0:	2f656361 	svccs	0x00656361
 2a4:	67776374 			; <UNDEFINED> instruction: 0x67776374
 2a8:	6b616d2d 	blvs	185b764 <shift+0x185b764>
 2ac:	65722d65 	ldrbvs	r2, [r2, #-3429]!	; 0xfffff29b
 2b0:	7361656c 	cmnvc	r1, #108, 10	; 0x1b000000
 2b4:	616c2f65 	cmnvs	ip, r5, ror #30
 2b8:	2f6c6562 	svccs	0x006c6562
 2bc:	6b636f64 	blvs	18dc054 <shift+0x18dc054>
 2c0:	742d7265 	strtvc	r7, [sp], #-613	; 0xfffffd9b
 2c4:	74737572 	ldrbtvc	r7, [r3], #-1394	; 0xfffffa8e
 2c8:	6d612d79 	stclvs	13, cr2, [r1, #-484]!	; 0xfffffe1c
 2cc:	2d343664 	ldccs	6, cr3, [r4, #-400]!	; 0xfffffe70
 2d0:	67776374 			; <UNDEFINED> instruction: 0x67776374
 2d4:	6975622d 	ldmdbvs	r5!, {r0, r2, r3, r5, r9, sp, lr}^
 2d8:	742f646c 	strtvc	r6, [pc], #-1132	; 2e0 <shift+0x2e0>
 2dc:	65677261 	strbvs	r7, [r7, #-609]!	; 0xfffffd9f
 2e0:	72612f74 	rsbvc	r2, r1, #116, 30	; 0x1d0
 2e4:	696c2d6d 	stmdbvs	ip!, {r0, r2, r3, r5, r6, r8, sl, fp, sp}^
 2e8:	2d78756e 	cfldr64cs	mvdx7, [r8, #-440]!	; 0xfffffe48
 2ec:	65756e67 	ldrbvs	r6, [r5, #-3687]!	; 0xfffff199
 2f0:	68696261 	stmdavs	r9!, {r0, r5, r6, r9, sp, lr}^
 2f4:	625f2f66 	subsvs	r2, pc, #408	; 0x198
 2f8:	646c6975 	strbtvs	r6, [ip], #-2421	; 0xfffff68b
 2fc:	6975622f 	ldmdbvs	r5!, {r0, r1, r2, r3, r5, r9, sp, lr}^
 300:	2f73646c 	svccs	0x0073646c
 304:	5f363878 	svcpl	0x00363878
 308:	752d3436 	strvc	r3, [sp, #-1078]!	; 0xfffffbca
 30c:	6f6e6b6e 	svcvs	0x006e6b6e
 310:	6c2d6e77 	stcvs	14, cr6, [sp], #-476	; 0xfffffe24
 314:	78756e69 	ldmdavc	r5!, {r0, r3, r5, r6, r9, sl, fp, sp, lr}^
 318:	756e672d 	strbvc	r6, [lr, #-1837]!	; 0xfffff8d3
 31c:	6d72612f 	ldfvse	f6, [r2, #-188]!	; 0xffffff44
 320:	6e696c2d 	cdpvs	12, 6, cr6, cr9, cr13, {1}
 324:	672d7875 			; <UNDEFINED> instruction: 0x672d7875
 328:	6165756e 	cmnvs	r5, lr, ror #10
 32c:	66686962 	strbtvs	r6, [r8], -r2, ror #18
 330:	6363672f 	cmnvs	r3, #12320768	; 0xbc0000
 334:	6e696c2d 	cdpvs	12, 6, cr6, cr9, cr13, {1}
 338:	2d6f7261 	sfmcs	f7, 2, [pc, #-388]!	; 1bc <shift+0x1bc>
 33c:	2d392e34 	ldccs	14, cr2, [r9, #-208]!	; 0xffffff30
 340:	37313032 			; <UNDEFINED> instruction: 0x37313032
 344:	2d31302e 	ldccs	0, cr3, [r1, #-184]!	; 0xffffff48
 348:	67617473 			; <UNDEFINED> instruction: 0x67617473
 34c:	612f3265 			; <UNDEFINED> instruction: 0x612f3265
 350:	6c2d6d72 	stcvs	13, cr6, [sp], #-456	; 0xfffffe38
 354:	78756e69 	ldmdavc	r5!, {r0, r3, r5, r6, r9, sl, fp, sp, lr}^
 358:	756e672d 	strbvc	r6, [lr, #-1837]!	; 0xfffff8d3
 35c:	69626165 	stmdbvs	r2!, {r0, r2, r5, r6, r8, sp, lr}^
 360:	6c2f6668 	stcvs	6, cr6, [pc], #-416	; 1c8 <shift+0x1c8>
 364:	63676269 	cmnvs	r7, #-1879048186	; 0x90000006
 368:	4e470063 	cdpmi	0, 4, cr0, cr7, cr3, {3}
 36c:	53412055 	movtpl	r2, #4181	; 0x1055
 370:	322e3220 	eorcc	r3, lr, #32, 4
 374:	00302e34 	eorseq	r2, r0, r4, lsr lr
 378:	01b78001 			; <UNDEFINED> instruction: 0x01b78001
 37c:	00020000 	andeq	r0, r2, r0
 380:	00000028 	andeq	r0, r0, r8, lsr #32
 384:	02030104 	andeq	r0, r3, #4, 2
 388:	3c480000 	marcc	acc0, r0, r8
 38c:	3c788780 	ldclcc	7, cr8, [r8], #-512	; 0xfffffe00
 390:	682f8780 	stmdavs	pc!, {r7, r8, r9, sl, pc}	; <UNPREDICTABLE>
 394:	2f656d6f 	svccs	0x00656d6f
 398:	67776374 			; <UNDEFINED> instruction: 0x67776374
 39c:	6975622d 	ldmdbvs	r5!, {r0, r2, r3, r5, r9, sp, lr}^
 3a0:	6c73646c 	cfldrdvs	mvd6, [r3], #-432	; 0xfffffe50
 3a4:	2f657661 	svccs	0x00657661
 3a8:	6b726f77 	blvs	1c9c18c <shift+0x1c9c18c>
 3ac:	63617073 	cmnvs	r1, #115	; 0x73
 3b0:	63742f65 	cmnvs	r4, #404	; 0x194
 3b4:	6d2d6777 	stcvs	7, cr6, [sp, #-476]!	; 0xfffffe24
 3b8:	2d656b61 	fstmdbxcs	r5!, {d22-d69}	;@ Deprecated
 3bc:	656c6572 	strbvs	r6, [ip, #-1394]!	; 0xfffffa8e
 3c0:	2f657361 	svccs	0x00657361
 3c4:	6562616c 	strbvs	r6, [r2, #-364]!	; 0xfffffe94
 3c8:	6f642f6c 	svcvs	0x00642f6c
 3cc:	72656b63 	rsbvc	r6, r5, #101376	; 0x18c00
 3d0:	7572742d 	ldrbvc	r7, [r2, #-1069]!	; 0xfffffbd3
 3d4:	2d797473 	cfldrdcs	mvd7, [r9, #-460]!	; 0xfffffe34
 3d8:	36646d61 	strbtcc	r6, [r4], -r1, ror #26
 3dc:	63742d34 	cmnvs	r4, #52, 26	; 0xd00
 3e0:	622d6777 	eorvs	r6, sp, #31195136	; 0x1dc0000
 3e4:	646c6975 	strbtvs	r6, [ip], #-2421	; 0xfffff68b
 3e8:	7261742f 	rsbvc	r7, r1, #788529152	; 0x2f000000
 3ec:	2f746567 	svccs	0x00746567
 3f0:	2d6d7261 	sfmcs	f7, 2, [sp, #-388]!	; 0xfffffe7c
 3f4:	756e696c 	strbvc	r6, [lr, #-2412]!	; 0xfffff694
 3f8:	6e672d78 	mcrvs	13, 3, r2, cr7, cr8, {3}
 3fc:	62616575 	rsbvs	r6, r1, #490733568	; 0x1d400000
 400:	2f666869 	svccs	0x00666869
 404:	70616e73 	rsbvc	r6, r1, r3, ror lr
 408:	746f6873 	strbtvc	r6, [pc], #-2163	; 410 <shift+0x410>
 40c:	63672f73 	cmnvs	r7, #460	; 0x1cc
 410:	696c2d63 	stmdbvs	ip!, {r0, r1, r5, r6, r8, sl, fp, sp}^
 414:	6f72616e 	svcvs	0x0072616e
 418:	392e342d 	stmdbcc	lr!, {r0, r2, r3, r5, sl, ip, sp}
 41c:	3130322d 	teqcc	r0, sp, lsr #4
 420:	31302e37 	teqcc	r0, r7, lsr lr
 424:	62696c2f 	rsbvs	r6, r9, #12032	; 0x2f00
 428:	2f636367 	svccs	0x00636367
 42c:	666e6f63 	strbtvs	r6, [lr], -r3, ror #30
 430:	612f6769 			; <UNDEFINED> instruction: 0x612f6769
 434:	622f6d72 	eorvs	r6, pc, #7296	; 0x1c80
 438:	69626170 	stmdbvs	r2!, {r4, r5, r6, r8, sp, lr}^
 43c:	2f00532e 	svccs	0x0000532e
 440:	656d6f68 	strbvs	r6, [sp, #-3944]!	; 0xfffff098
 444:	7763742f 	strbvc	r7, [r3, -pc, lsr #8]!
 448:	75622d67 	strbvc	r2, [r2, #-3431]!	; 0xfffff299
 44c:	73646c69 	cmnvc	r4, #26880	; 0x6900
 450:	6576616c 	ldrbvs	r6, [r6, #-364]!	; 0xfffffe94
 454:	726f772f 	rsbvc	r7, pc, #12320768	; 0xbc0000
 458:	6170736b 	cmnvs	r0, fp, ror #6
 45c:	742f6563 	strtvc	r6, [pc], #-1379	; 464 <shift+0x464>
 460:	2d677763 	stclcs	7, cr7, [r7, #-396]!	; 0xfffffe74
 464:	656b616d 	strbvs	r6, [fp, #-365]!	; 0xfffffe93
 468:	6c65722d 	sfmvs	f7, 2, [r5], #-180	; 0xffffff4c
 46c:	65736165 	ldrbvs	r6, [r3, #-357]!	; 0xfffffe9b
 470:	62616c2f 	rsbvs	r6, r1, #12032	; 0x2f00
 474:	642f6c65 	strtvs	r6, [pc], #-3173	; 47c <shift+0x47c>
 478:	656b636f 	strbvs	r6, [fp, #-879]!	; 0xfffffc91
 47c:	72742d72 	rsbsvc	r2, r4, #7296	; 0x1c80
 480:	79747375 	ldmdbvc	r4!, {r0, r2, r4, r5, r6, r8, r9, ip, sp, lr}^
 484:	646d612d 	strbtvs	r6, [sp], #-301	; 0xfffffed3
 488:	742d3436 	strtvc	r3, [sp], #-1078	; 0xfffffbca
 48c:	2d677763 	stclcs	7, cr7, [r7, #-396]!	; 0xfffffe74
 490:	6c697562 	cfstr64vs	mvdx7, [r9], #-392	; 0xfffffe78
 494:	61742f64 	cmnvs	r4, r4, ror #30
 498:	74656772 	strbtvc	r6, [r5], #-1906	; 0xfffff88e
 49c:	6d72612f 	ldfvse	f6, [r2, #-188]!	; 0xffffff44
 4a0:	6e696c2d 	cdpvs	12, 6, cr6, cr9, cr13, {1}
 4a4:	672d7875 			; <UNDEFINED> instruction: 0x672d7875
 4a8:	6165756e 	cmnvs	r5, lr, ror #10
 4ac:	66686962 	strbtvs	r6, [r8], -r2, ror #18
 4b0:	75625f2f 	strbvc	r5, [r2, #-3887]!	; 0xfffff0d1
 4b4:	2f646c69 	svccs	0x00646c69
 4b8:	6c697562 	cfstr64vs	mvdx7, [r9], #-392	; 0xfffffe78
 4bc:	782f7364 	stmdavc	pc!, {r2, r5, r6, r8, r9, ip, sp, lr}	; <UNPREDICTABLE>
 4c0:	365f3638 			; <UNDEFINED> instruction: 0x365f3638
 4c4:	6e752d34 	mrcvs	13, 3, r2, cr5, cr4, {1}
 4c8:	776f6e6b 	strbvc	r6, [pc, -fp, ror #28]!
 4cc:	696c2d6e 	stmdbvs	ip!, {r1, r2, r3, r5, r6, r8, sl, fp, sp}^
 4d0:	2d78756e 	cfldr64cs	mvdx7, [r8, #-440]!	; 0xfffffe48
 4d4:	2f756e67 	svccs	0x00756e67
 4d8:	2d6d7261 	sfmcs	f7, 2, [sp, #-388]!	; 0xfffffe7c
 4dc:	756e696c 	strbvc	r6, [lr, #-2412]!	; 0xfffff694
 4e0:	6e672d78 	mcrvs	13, 3, r2, cr7, cr8, {3}
 4e4:	62616575 	rsbvs	r6, r1, #490733568	; 0x1d400000
 4e8:	2f666869 	svccs	0x00666869
 4ec:	2d636367 	stclcs	3, cr6, [r3, #-412]!	; 0xfffffe64
 4f0:	616e696c 	cmnvs	lr, ip, ror #18
 4f4:	342d6f72 	strtcc	r6, [sp], #-3954	; 0xfffff08e
 4f8:	322d392e 	eorcc	r3, sp, #753664	; 0xb8000
 4fc:	2e373130 	mrccs	1, 1, r3, cr7, cr0, {1}
 500:	732d3130 			; <UNDEFINED> instruction: 0x732d3130
 504:	65676174 	strbvs	r6, [r7, #-372]!	; 0xfffffe8c
 508:	72612f32 	rsbvc	r2, r1, #50, 30	; 0xc8
 50c:	696c2d6d 	stmdbvs	ip!, {r0, r2, r3, r5, r6, r8, sl, fp, sp}^
 510:	2d78756e 	cfldr64cs	mvdx7, [r8, #-440]!	; 0xfffffe48
 514:	65756e67 	ldrbvs	r6, [r5, #-3687]!	; 0xfffff199
 518:	68696261 	stmdavs	r9!, {r0, r5, r6, r9, sp, lr}^
 51c:	696c2f66 	stmdbvs	ip!, {r1, r2, r5, r6, r8, r9, sl, fp, sp}^
 520:	63636762 	cmnvs	r3, #25690112	; 0x1880000
 524:	554e4700 	strbpl	r4, [lr, #-1792]	; 0xfffff900
 528:	20534120 	subscs	r4, r3, r0, lsr #2
 52c:	34322e32 	ldrtcc	r2, [r2], #-3634	; 0xfffff1ce
 530:	0100302e 	tsteq	r0, lr, lsr #32
 534:	0001bb80 	andeq	fp, r1, r0, lsl #23
 538:	3c000200 	sfmcc	f0, 4, [r0], {-0}
 53c:	04000000 	streq	r0, [r0], #-0
 540:	0002e401 	andeq	lr, r2, r1, lsl #8
 544:	803c7800 	eorshi	r7, ip, r0, lsl #16
 548:	803c8487 	eorshi	r8, ip, r7, lsl #9
 54c:	6f682f87 	svcvs	0x00682f87
 550:	742f656d 	strtvc	r6, [pc], #-1389	; 558 <shift+0x558>
 554:	2d677763 	stclcs	7, cr7, [r7, #-396]!	; 0xfffffe74
 558:	6c697562 	cfstr64vs	mvdx7, [r9], #-392	; 0xfffffe78
 55c:	616c7364 	cmnvs	ip, r4, ror #6
 560:	772f6576 			; <UNDEFINED> instruction: 0x772f6576
 564:	736b726f 	cmnvc	fp, #-268435450	; 0xf0000006
 568:	65636170 	strbvs	r6, [r3, #-368]!	; 0xfffffe90
 56c:	7763742f 	strbvc	r7, [r3, -pc, lsr #8]!
 570:	616d2d67 	cmnvs	sp, r7, ror #26
 574:	722d656b 	eorvc	r6, sp, #448790528	; 0x1ac00000
 578:	61656c65 	cmnvs	r5, r5, ror #24
 57c:	6c2f6573 	cfstr32vs	mvfx6, [pc], #-460	; 3b8 <shift+0x3b8>
 580:	6c656261 	sfmvs	f6, 2, [r5], #-388	; 0xfffffe7c
 584:	636f642f 	cmnvs	pc, #788529152	; 0x2f000000
 588:	2d72656b 	cfldr64cs	mvdx6, [r2, #-428]!	; 0xfffffe54
 58c:	73757274 	cmnvc	r5, #116, 4	; 0x40000007
 590:	612d7974 			; <UNDEFINED> instruction: 0x612d7974
 594:	3436646d 	ldrtcc	r6, [r6], #-1133	; 0xfffffb93
 598:	7763742d 	strbvc	r7, [r3, -sp, lsr #8]!
 59c:	75622d67 	strbvc	r2, [r2, #-3431]!	; 0xfffff299
 5a0:	2f646c69 	svccs	0x00646c69
 5a4:	67726174 			; <UNDEFINED> instruction: 0x67726174
 5a8:	612f7465 			; <UNDEFINED> instruction: 0x612f7465
 5ac:	6c2d6d72 	stcvs	13, cr6, [sp], #-456	; 0xfffffe38
 5b0:	78756e69 	ldmdavc	r5!, {r0, r3, r5, r6, r9, sl, fp, sp, lr}^
 5b4:	756e672d 	strbvc	r6, [lr, #-1837]!	; 0xfffff8d3
 5b8:	69626165 	stmdbvs	r2!, {r0, r2, r5, r6, r8, sp, lr}^
 5bc:	732f6668 			; <UNDEFINED> instruction: 0x732f6668
 5c0:	7370616e 	cmnvc	r0, #-2147483621	; 0x8000001b
 5c4:	73746f68 	cmnvc	r4, #104, 30	; 0x1a0
 5c8:	6363672f 	cmnvs	r3, #12320768	; 0xbc0000
 5cc:	6e696c2d 	cdpvs	12, 6, cr6, cr9, cr13, {1}
 5d0:	2d6f7261 	sfmcs	f7, 2, [pc, #-388]!	; 454 <shift+0x454>
 5d4:	2d392e34 	ldccs	14, cr2, [r9, #-208]!	; 0xffffff30
 5d8:	37313032 			; <UNDEFINED> instruction: 0x37313032
 5dc:	2f31302e 	svccs	0x0031302e
 5e0:	6762696c 	strbvs	r6, [r2, -ip, ror #18]!
 5e4:	632f6363 			; <UNDEFINED> instruction: 0x632f6363
 5e8:	69666e6f 	stmdbvs	r6!, {r0, r1, r2, r3, r5, r6, r9, sl, fp, sp, lr}^
 5ec:	72612f67 	rsbvc	r2, r1, #412	; 0x19c
 5f0:	696c2f6d 	stmdbvs	ip!, {r0, r2, r3, r5, r6, r8, r9, sl, fp, sp}^
 5f4:	75663162 	strbvc	r3, [r6, #-354]!	; 0xfffffe9e
 5f8:	2e73636e 	cdpcs	3, 7, cr6, cr3, cr14, {3}
 5fc:	682f0053 	stmdavs	pc!, {r0, r1, r4, r6}	; <UNPREDICTABLE>
 600:	2f656d6f 	svccs	0x00656d6f
 604:	67776374 			; <UNDEFINED> instruction: 0x67776374
 608:	6975622d 	ldmdbvs	r5!, {r0, r2, r3, r5, r9, sp, lr}^
 60c:	6c73646c 	cfldrdvs	mvd6, [r3], #-432	; 0xfffffe50
 610:	2f657661 	svccs	0x00657661
 614:	6b726f77 	blvs	1c9c3f8 <shift+0x1c9c3f8>
 618:	63617073 	cmnvs	r1, #115	; 0x73
 61c:	63742f65 	cmnvs	r4, #404	; 0x194
 620:	6d2d6777 	stcvs	7, cr6, [sp, #-476]!	; 0xfffffe24
 624:	2d656b61 	fstmdbxcs	r5!, {d22-d69}	;@ Deprecated
 628:	656c6572 	strbvs	r6, [ip, #-1394]!	; 0xfffffa8e
 62c:	2f657361 	svccs	0x00657361
 630:	6562616c 	strbvs	r6, [r2, #-364]!	; 0xfffffe94
 634:	6f642f6c 	svcvs	0x00642f6c
 638:	72656b63 	rsbvc	r6, r5, #101376	; 0x18c00
 63c:	7572742d 	ldrbvc	r7, [r2, #-1069]!	; 0xfffffbd3
 640:	2d797473 	cfldrdcs	mvd7, [r9, #-460]!	; 0xfffffe34
 644:	36646d61 	strbtcc	r6, [r4], -r1, ror #26
 648:	63742d34 	cmnvs	r4, #52, 26	; 0xd00
 64c:	622d6777 	eorvs	r6, sp, #31195136	; 0x1dc0000
 650:	646c6975 	strbtvs	r6, [ip], #-2421	; 0xfffff68b
 654:	7261742f 	rsbvc	r7, r1, #788529152	; 0x2f000000
 658:	2f746567 	svccs	0x00746567
 65c:	2d6d7261 	sfmcs	f7, 2, [sp, #-388]!	; 0xfffffe7c
 660:	756e696c 	strbvc	r6, [lr, #-2412]!	; 0xfffff694
 664:	6e672d78 	mcrvs	13, 3, r2, cr7, cr8, {3}
 668:	62616575 	rsbvs	r6, r1, #490733568	; 0x1d400000
 66c:	2f666869 	svccs	0x00666869
 670:	6975625f 	ldmdbvs	r5!, {r0, r1, r2, r3, r4, r6, r9, sp, lr}^
 674:	622f646c 	eorvs	r6, pc, #108, 8	; 0x6c000000
 678:	646c6975 	strbtvs	r6, [ip], #-2421	; 0xfffff68b
 67c:	38782f73 	ldmdacc	r8!, {r0, r1, r4, r5, r6, r8, r9, sl, fp, sp}^
 680:	34365f36 	ldrtcc	r5, [r6], #-3894	; 0xfffff0ca
 684:	6b6e752d 	blvs	1b9db40 <shift+0x1b9db40>
 688:	6e776f6e 	cdpvs	15, 7, cr6, cr7, cr14, {3}
 68c:	6e696c2d 	cdpvs	12, 6, cr6, cr9, cr13, {1}
 690:	672d7875 			; <UNDEFINED> instruction: 0x672d7875
 694:	612f756e 			; <UNDEFINED> instruction: 0x612f756e
 698:	6c2d6d72 	stcvs	13, cr6, [sp], #-456	; 0xfffffe38
 69c:	78756e69 	ldmdavc	r5!, {r0, r3, r5, r6, r9, sl, fp, sp, lr}^
 6a0:	756e672d 	strbvc	r6, [lr, #-1837]!	; 0xfffff8d3
 6a4:	69626165 	stmdbvs	r2!, {r0, r2, r5, r6, r8, sp, lr}^
 6a8:	672f6668 	strvs	r6, [pc, -r8, ror #12]!
 6ac:	6c2d6363 	stcvs	3, cr6, [sp], #-396	; 0xfffffe74
 6b0:	72616e69 	rsbvc	r6, r1, #1680	; 0x690
 6b4:	2e342d6f 	cdpcs	13, 3, cr2, cr4, cr15, {3}
 6b8:	30322d39 	eorscc	r2, r2, r9, lsr sp
 6bc:	302e3731 	eorcc	r3, lr, r1, lsr r7
 6c0:	74732d31 	ldrbtvc	r2, [r3], #-3377	; 0xfffff2cf
 6c4:	32656761 	rsbcc	r6, r5, #25427968	; 0x1840000
 6c8:	6d72612f 	ldfvse	f6, [r2, #-188]!	; 0xffffff44
 6cc:	6e696c2d 	cdpvs	12, 6, cr6, cr9, cr13, {1}
 6d0:	672d7875 			; <UNDEFINED> instruction: 0x672d7875
 6d4:	6165756e 	cmnvs	r5, lr, ror #10
 6d8:	66686962 	strbtvs	r6, [r8], -r2, ror #18
 6dc:	62696c2f 	rsbvs	r6, r9, #12032	; 0x2f00
 6e0:	00636367 	rsbeq	r6, r3, r7, ror #6
 6e4:	20554e47 	subscs	r4, r5, r7, asr #28
 6e8:	32205341 	eorcc	r5, r0, #67108865	; 0x4000001
 6ec:	2e34322e 	cdpcs	2, 3, cr3, cr4, cr14, {1}
 6f0:	80010030 	andhi	r0, r1, r0, lsr r0
 6f4:	0000015a 	andeq	r0, r0, sl, asr r1
 6f8:	00500004 	subseq	r0, r0, r4
 6fc:	01040000 	mrseq	r0, (UNDEF: 4)
 700:	0000012b 	andeq	r0, r0, fp, lsr #2
 704:	00024f01 	andeq	r4, r2, r1, lsl #30
 708:	00000d00 	andeq	r0, r0, r0, lsl #26
 70c:	803c8400 	eorshi	r8, ip, r0, lsl #8
 710:	00011687 	andeq	r1, r1, r7, lsl #13
 714:	0003cb00 	andeq	ip, r3, r0, lsl #22
 718:	07080200 	streq	r0, [r8, -r0, lsl #4]
 71c:	000000f3 	strdeq	r0, [r0], -r3
 720:	69050403 	stmdbvs	r5, {r0, r1, sl}
 724:	0200746e 	andeq	r7, r0, #1845493760	; 0x6e000000
 728:	00fd0704 	rscseq	r0, sp, r4, lsl #14
 72c:	01020000 	mrseq	r0, (UNDEF: 2)
 730:	00010a08 	andeq	r0, r1, r8, lsl #20
 734:	07020200 	streq	r0, [r2, -r0, lsl #4]
 738:	00000118 	andeq	r0, r0, r8, lsl r1
 73c:	f8070402 			; <UNDEFINED> instruction: 0xf8070402
 740:	02000000 	andeq	r0, r0, #0
 744:	010c0601 	tsteq	ip, r1, lsl #12
 748:	02020000 	andeq	r0, r2, #0
 74c:	00023605 	andeq	r3, r2, r5, lsl #12
 750:	05080200 	streq	r0, [r8, #-512]	; 0xfffffe00
 754:	00000220 	andeq	r0, r0, r0, lsr #4
 758:	25050402 	strcs	r0, [r5, #-1026]	; 0xfffffbfe
 75c:	02000002 	andeq	r0, r0, #2
 760:	02170704 	andseq	r0, r7, #4, 14	; 0x100000
 764:	01020000 	mrseq	r0, (UNDEF: 2)
 768:	00011308 	andeq	r1, r1, r8, lsl #6
 76c:	022e0400 	eoreq	r0, lr, #0, 8
 770:	82020000 	andhi	r0, r2, #0
 774:	00000033 	andeq	r0, r0, r3, lsr r0
 778:	00020104 	andeq	r0, r2, r4, lsl #2
 77c:	25860200 	strcs	r0, [r6, #512]	; 0x200
 780:	02000000 	andeq	r0, r0, #0
 784:	02110404 	andseq	r0, r1, #4, 8	; 0x4000000
 788:	08020000 	stmdaeq	r2, {}	; <UNPREDICTABLE>
 78c:	00020903 	andeq	r0, r2, r3, lsl #18
 790:	04080200 	streq	r0, [r8], #-512	; 0xfffffe00
 794:	00000248 	andeq	r0, r0, r8, asr #4
 798:	40031002 	andmi	r1, r3, r2
 79c:	05000002 	streq	r0, [r0, #-2]
 7a0:	00000000 	andeq	r0, r0, r0
 7a4:	8403b001 	strhi	fp, [r3], #-1
 7a8:	84000000 	strhi	r0, [r0], #-0
 7ac:	1687803c 			; <UNDEFINED> instruction: 0x1687803c
 7b0:	01000001 	tsteq	r0, r1
 7b4:	0001579c 	muleq	r1, ip, r7
 7b8:	006e0600 	rsbeq	r0, lr, r0, lsl #12
 7bc:	8403b001 	strhi	fp, [r3], #-1
 7c0:	00000000 	andeq	r0, r0, r0
 7c4:	06000000 	streq	r0, [r0], -r0
 7c8:	b0010064 	andlt	r0, r1, r4, rrx
 7cc:	00008403 	andeq	r8, r0, r3, lsl #8
 7d0:	00002800 	andeq	r2, r0, r0, lsl #16
 7d4:	70720600 	rsbsvc	r0, r2, r0, lsl #12
 7d8:	03b00100 	movseq	r0, #0, 2
 7dc:	00000157 	andeq	r0, r0, r7, asr r1
 7e0:	00000050 	andeq	r0, r0, r0, asr r0
 7e4:	01007107 	tsteq	r0, r7, lsl #2
 7e8:	008403b2 			; <UNDEFINED> instruction: 0x008403b2
 7ec:	00700000 	rsbseq	r0, r0, r0
 7f0:	72070000 	andvc	r0, r7, #0
 7f4:	03b20100 			; <UNDEFINED> instruction: 0x03b20100
 7f8:	00000084 	andeq	r0, r0, r4, lsl #1
 7fc:	000000d0 	ldrdeq	r0, [r0], -r0	; <UNPREDICTABLE>
 800:	01007907 	tsteq	r0, r7, lsl #18
 804:	008403b2 			; <UNDEFINED> instruction: 0x008403b2
 808:	01280000 			; <UNDEFINED> instruction: 0x01280000
 80c:	6c070000 	stcvs	0, cr0, [r7], {-0}
 810:	0100317a 	tsteq	r0, sl, ror r1
 814:	007903b3 	ldrhteq	r0, [r9], #-51	; 0xffffffcd
 818:	01500000 	cmpeq	r0, r0
 81c:	6c070000 	stcvs	0, cr0, [r7], {-0}
 820:	0100327a 	tsteq	r0, sl, ror r2
 824:	007903b3 	ldrhteq	r0, [r9], #-51	; 0xffffffcd
 828:	01630000 	cmneq	r3, r0
 82c:	69070000 	stmdbvs	r7, {}	; <UNPREDICTABLE>
 830:	03b30100 			; <UNDEFINED> instruction: 0x03b30100
 834:	00000079 	andeq	r0, r0, r9, ror r0
 838:	00000176 	andeq	r0, r0, r6, ror r1
 83c:	01006b07 	tsteq	r0, r7, lsl #22
 840:	007903b3 	ldrhteq	r0, [r9], #-51	; 0xffffffcd
 844:	01b90000 			; <UNDEFINED> instruction: 0x01b90000
 848:	08000000 	stmdaeq	r0, {}	; <UNPREDICTABLE>
 84c:	00008404 	andeq	r8, r0, r4, lsl #8
	...

Disassembly of section .debug_abbrev:

00000000 <.debug_abbrev>:
   0:	10001101 	andne	r1, r0, r1, lsl #2
   4:	12011106 	andne	r1, r1, #-2147483647	; 0x80000001
   8:	1b080301 	blne	200c14 <shift+0x200c14>
   c:	13082508 	movwne	r2, #34056	; 0x8508
  10:	00000005 	andeq	r0, r0, r5
  14:	10001101 	andne	r1, r0, r1, lsl #2
  18:	12011106 	andne	r1, r1, #-2147483647	; 0x80000001
  1c:	1b080301 	blne	200c28 <shift+0x200c28>
  20:	13082508 	movwne	r2, #34056	; 0x8508
  24:	00000005 	andeq	r0, r0, r5
  28:	10001101 	andne	r1, r0, r1, lsl #2
  2c:	12011106 	andne	r1, r1, #-2147483647	; 0x80000001
  30:	1b080301 	blne	200c3c <shift+0x200c3c>
  34:	13082508 	movwne	r2, #34056	; 0x8508
  38:	00000005 	andeq	r0, r0, r5
  3c:	10001101 	andne	r1, r0, r1, lsl #2
  40:	12011106 	andne	r1, r1, #-2147483647	; 0x80000001
  44:	1b080301 	blne	200c50 <shift+0x200c50>
  48:	13082508 	movwne	r2, #34056	; 0x8508
  4c:	00000005 	andeq	r0, r0, r5
  50:	25011101 	strcs	r1, [r1, #-257]	; 0xfffffeff
  54:	030b130e 	movweq	r1, #45838	; 0xb30e
  58:	110e1b0e 	tstne	lr, lr, lsl #22
  5c:	10061201 	andne	r1, r6, r1, lsl #4
  60:	02000017 	andeq	r0, r0, #23
  64:	0b0b0024 	bleq	2c00fc <shift+0x2c00fc>
  68:	0e030b3e 	vmoveq.16	d3[0], r0
  6c:	24030000 	strcs	r0, [r3], #-0
  70:	3e0b0b00 	vmlacc.f64	d0, d11, d0
  74:	0008030b 	andeq	r0, r8, fp, lsl #6
  78:	00160400 	andseq	r0, r6, r0, lsl #8
  7c:	0b3a0e03 	bleq	e83890 <shift+0xe83890>
  80:	13490b3b 	movtne	r0, #39739	; 0x9b3b
  84:	2e050000 	cdpcs	0, 0, cr0, cr5, cr0, {0}
  88:	03193f01 	tsteq	r9, #1, 30
  8c:	3b0b3a0e 	blcc	2ce8cc <shift+0x2ce8cc>
  90:	49192705 	ldmdbmi	r9, {r0, r2, r8, r9, sl, sp}
  94:	12011113 	andne	r1, r1, #-1073741820	; 0xc0000004
  98:	97184006 	ldrls	r4, [r8, -r6]
  9c:	13011942 	movwne	r1, #6466	; 0x1942
  a0:	05060000 	streq	r0, [r6, #-0]
  a4:	3a080300 	bcc	200cac <shift+0x200cac>
  a8:	49053b0b 	stmdbmi	r5, {r0, r1, r3, r8, r9, fp, ip, sp}
  ac:	00170213 	andseq	r0, r7, r3, lsl r2
  b0:	00340700 	eorseq	r0, r4, r0, lsl #14
  b4:	0b3a0803 	bleq	e820c8 <shift+0xe820c8>
  b8:	1349053b 	movtne	r0, #38203	; 0x953b
  bc:	00001702 	andeq	r1, r0, r2, lsl #14
  c0:	0b000f08 	bleq	3ce8 <shift+0x3ce8>
  c4:	0013490b 	andseq	r4, r3, fp, lsl #18
	...

Disassembly of section .debug_aranges:

00000000 <.debug_aranges>:
   0:	0000001c 	andeq	r0, r0, ip, lsl r0
   4:	00000002 	andeq	r0, r0, r2
   8:	00040000 	andeq	r0, r4, r0
   c:	00000000 	andeq	r0, r0, r0
  10:	87803930 			; <UNDEFINED> instruction: 0x87803930
  14:	00000276 	andeq	r0, r0, r6, ror r2
	...
  20:	0000001c 	andeq	r0, r0, ip, lsl r0
  24:	01bf0002 			; <UNDEFINED> instruction: 0x01bf0002
  28:	00040000 	andeq	r0, r4, r0
  2c:	00000000 	andeq	r0, r0, r0
  30:	87803ba8 	strhi	r3, [r0, r8, lsr #23]
  34:	000000a0 	andeq	r0, r0, r0, lsr #1
	...
  40:	0000001c 	andeq	r0, r0, ip, lsl r0
  44:	037a0002 	cmneq	sl, #2
  48:	00040000 	andeq	r0, r4, r0
  4c:	00000000 	andeq	r0, r0, r0
  50:	87803c48 	strhi	r3, [r0, r8, asr #24]
  54:	00000030 	andeq	r0, r0, r0, lsr r0
	...
  60:	0000001c 	andeq	r0, r0, ip, lsl r0
  64:	05350002 	ldreq	r0, [r5, #-2]!
  68:	00040000 	andeq	r0, r4, r0
  6c:	00000000 	andeq	r0, r0, r0
  70:	87803c78 			; <UNDEFINED> instruction: 0x87803c78
  74:	0000000c 	andeq	r0, r0, ip
	...
  80:	0000001c 	andeq	r0, r0, ip, lsl r0
  84:	06f40002 	ldrbteq	r0, [r4], r2
  88:	00040000 	andeq	r0, r4, r0
  8c:	00000000 	andeq	r0, r0, r0
  90:	87803c84 	strhi	r3, [r0, r4, lsl #25]
  94:	00000116 	andeq	r0, r0, r6, lsl r1
	...

Disassembly of section .debug_loc:

00000000 <.debug_loc>:
   0:	00000000 	andeq	r0, r0, r0
   4:	0000000c 	andeq	r0, r0, ip
   8:	93500006 	cmpls	r0, #6
   c:	04935104 	ldreq	r5, [r3], #260	; 0x104
  10:	0000000c 	andeq	r0, r0, ip
  14:	00000116 	andeq	r0, r0, r6, lsl r1
  18:	03f30006 	mvnseq	r0, #6
  1c:	9f2500f5 	svcls	0x002500f5
	...
  2c:	00000014 	andeq	r0, r0, r4, lsl r0
  30:	93520006 	cmpls	r2, #6
  34:	04935304 	ldreq	r5, [r3], #772	; 0x304
  38:	00000014 	andeq	r0, r0, r4, lsl r0
  3c:	00000116 	andeq	r0, r0, r6, lsl r1
  40:	03f30006 	mvnseq	r0, #6
  44:	9f2502f5 	svcls	0x002502f5
	...
  54:	000000fc 	strdeq	r0, [r0], -ip
  58:	00910002 	addseq	r0, r1, r2
  5c:	000000fc 	strdeq	r0, [r0], -ip
  60:	00000116 	andeq	r0, r0, r6, lsl r1
  64:	00910002 	addseq	r0, r1, r2
	...
  74:	00000076 	andeq	r0, r0, r6, ror r0
  78:	089e000a 	ldmeq	lr, {r1, r3}
	...
  84:	00000076 	andeq	r0, r0, r6, ror r0
  88:	000000c0 	andeq	r0, r0, r0, asr #1
  8c:	93500006 	cmpls	r0, #6
  90:	04935104 	ldreq	r5, [r3], #260	; 0x104
  94:	000000ca 	andeq	r0, r0, sl, asr #1
  98:	000000ea 	andeq	r0, r0, sl, ror #1
  9c:	93500006 	cmpls	r0, #6
  a0:	04935104 	ldreq	r5, [r3], #260	; 0x104
  a4:	000000f2 	strdeq	r0, [r0], -r2
  a8:	000000fc 	strdeq	r0, [r0], -ip
  ac:	93500006 	cmpls	r0, #6
  b0:	04935104 	ldreq	r5, [r3], #260	; 0x104
  b4:	000000fc 	strdeq	r0, [r0], -ip
  b8:	00000116 	andeq	r0, r0, r6, lsl r1
  bc:	089e000a 	ldmeq	lr, {r1, r3}
	...
  d0:	0000000a 	andeq	r0, r0, sl
  d4:	00000062 	andeq	r0, r0, r2, rrx
  d8:	93540006 	cmpls	r4, #6
  dc:	04935504 	ldreq	r5, [r3], #1284	; 0x504
  e0:	00000076 	andeq	r0, r0, r6, ror r0
  e4:	00000084 	andeq	r0, r0, r4, lsl #1
  e8:	93540006 	cmpls	r4, #6
  ec:	04935504 	ldreq	r5, [r3], #1284	; 0x504
  f0:	00000092 	muleq	r0, r2, r0
  f4:	000000a0 	andeq	r0, r0, r0, lsr #1
  f8:	93540006 	cmpls	r4, #6
  fc:	04935504 	ldreq	r5, [r3], #1284	; 0x504
 100:	000000a2 	andeq	r0, r0, r2, lsr #1
 104:	000000c8 	andeq	r0, r0, r8, asr #1
 108:	93540006 	cmpls	r4, #6
 10c:	04935504 	ldreq	r5, [r3], #1284	; 0x504
 110:	000000cc 	andeq	r0, r0, ip, asr #1
 114:	00000116 	andeq	r0, r0, r6, lsl r1
 118:	93540006 	cmpls	r4, #6
 11c:	04935504 	ldreq	r5, [r3], #1284	; 0x504
	...
 128:	0000000e 	andeq	r0, r0, lr
 12c:	00000018 	andeq	r0, r0, r8, lsl r0
 130:	93500006 	cmpls	r0, #6
 134:	04935104 	ldreq	r5, [r3], #260	; 0x104
 138:	0000004e 	andeq	r0, r0, lr, asr #32
 13c:	000000ae 	andeq	r0, r0, lr, lsr #1
 140:	93560006 	cmpls	r6, #6
 144:	04935704 	ldreq	r5, [r3], #1796	; 0x704
	...
 150:	0000010c 	andeq	r0, r0, ip, lsl #2
 154:	00000116 	andeq	r0, r0, r6, lsl r1
 158:	00560001 	subseq	r0, r6, r1
 15c:	00000000 	andeq	r0, r0, r0
 160:	2c000000 	stccs	0, cr0, [r0], {-0}
 164:	2e000000 	cdpcs	0, 0, cr0, cr0, cr0, {0}
 168:	01000000 	mrseq	r0, (UNDEF: 0)
 16c:	00005300 	andeq	r5, r0, r0, lsl #6
 170:	00000000 	andeq	r0, r0, r0
 174:	00800000 	addeq	r0, r0, r0
 178:	00920000 	addseq	r0, r2, r0
 17c:	00010000 	andeq	r0, r1, r0
 180:	00009253 	andeq	r9, r0, r3, asr r2
 184:	00009400 	andeq	r9, r0, r0, lsl #8
 188:	73000300 	movwvc	r0, #768	; 0x300
 18c:	00949f7f 	addseq	r9, r4, pc, ror pc
 190:	00a20000 	adceq	r0, r2, r0
 194:	00010000 	andeq	r0, r1, r0
 198:	0000a253 	andeq	sl, r0, r3, asr r2
 19c:	0000a400 	andeq	sl, r0, r0, lsl #8
 1a0:	73000300 	movwvc	r0, #768	; 0x300
 1a4:	00a49f7f 	adceq	r9, r4, pc, ror pc
 1a8:	00b60000 	adcseq	r0, r6, r0
 1ac:	00010000 	andeq	r0, r1, r0
 1b0:	00000053 	andeq	r0, r0, r3, asr r0
 1b4:	00000000 	andeq	r0, r0, r0
 1b8:	00002e00 	andeq	r2, r0, r0, lsl #28
 1bc:	00008200 	andeq	r8, r0, r0, lsl #4
 1c0:	53000100 	movwpl	r0, #256	; 0x100
 1c4:	00000082 	andeq	r0, r0, r2, lsl #1
 1c8:	000000f2 	strdeq	r0, [r0], -r2
 1cc:	005e0001 	subseq	r0, lr, r1
 1d0:	00000000 	andeq	r0, r0, r0
 1d4:	Address 0x00000000000001d4 is out of bounds.


Disassembly of section .debug_str:

00000000 <.debug_str>:
   0:	64755f5f 	ldrbtvs	r5, [r5], #-3935	; 0xfffff0a1
   4:	6f6d7669 	svcvs	0x006d7669
   8:	34696464 	strbtcc	r6, [r9], #-1124	; 0xfffffb9c
   c:	6f682f00 	svcvs	0x00682f00
  10:	742f656d 	strtvc	r6, [pc], #-1389	; 18 <shift+0x18>
  14:	2d677763 	stclcs	7, cr7, [r7, #-396]!	; 0xfffffe74
  18:	6c697562 	cfstr64vs	mvdx7, [r9], #-392	; 0xfffffe78
  1c:	616c7364 	cmnvs	ip, r4, ror #6
  20:	772f6576 			; <UNDEFINED> instruction: 0x772f6576
  24:	736b726f 	cmnvc	fp, #-268435450	; 0xf0000006
  28:	65636170 	strbvs	r6, [r3, #-368]!	; 0xfffffe90
  2c:	7763742f 	strbvc	r7, [r3, -pc, lsr #8]!
  30:	616d2d67 	cmnvs	sp, r7, ror #26
  34:	722d656b 	eorvc	r6, sp, #448790528	; 0x1ac00000
  38:	61656c65 	cmnvs	r5, r5, ror #24
  3c:	6c2f6573 	cfstr32vs	mvfx6, [pc], #-460	; fffffe78 <__bss_end+0x787f68b0>
  40:	6c656261 	sfmvs	f6, 2, [r5], #-388	; 0xfffffe7c
  44:	636f642f 	cmnvs	pc, #788529152	; 0x2f000000
  48:	2d72656b 	cfldr64cs	mvdx6, [r2, #-428]!	; 0xfffffe54
  4c:	73757274 	cmnvc	r5, #116, 4	; 0x40000007
  50:	612d7974 			; <UNDEFINED> instruction: 0x612d7974
  54:	3436646d 	ldrtcc	r6, [r6], #-1133	; 0xfffffb93
  58:	7763742d 	strbvc	r7, [r3, -sp, lsr #8]!
  5c:	75622d67 	strbvc	r2, [r2, #-3431]!	; 0xfffff299
  60:	2f646c69 	svccs	0x00646c69
  64:	67726174 			; <UNDEFINED> instruction: 0x67726174
  68:	612f7465 			; <UNDEFINED> instruction: 0x612f7465
  6c:	6c2d6d72 	stcvs	13, cr6, [sp], #-456	; 0xfffffe38
  70:	78756e69 	ldmdavc	r5!, {r0, r3, r5, r6, r9, sl, fp, sp, lr}^
  74:	756e672d 	strbvc	r6, [lr, #-1837]!	; 0xfffff8d3
  78:	69626165 	stmdbvs	r2!, {r0, r2, r5, r6, r8, sp, lr}^
  7c:	5f2f6668 	svcpl	0x002f6668
  80:	6c697562 	cfstr64vs	mvdx7, [r9], #-392	; 0xfffffe78
  84:	75622f64 	strbvc	r2, [r2, #-3940]!	; 0xfffff09c
  88:	73646c69 	cmnvc	r4, #26880	; 0x6900
  8c:	3638782f 	ldrtcc	r7, [r8], -pc, lsr #16
  90:	2d34365f 	ldccs	6, cr3, [r4, #-380]!	; 0xfffffe84
  94:	6e6b6e75 	mcrvs	14, 3, r6, cr11, cr5, {3}
  98:	2d6e776f 	stclcs	7, cr7, [lr, #-444]!	; 0xfffffe44
  9c:	756e696c 	strbvc	r6, [lr, #-2412]!	; 0xfffff694
  a0:	6e672d78 	mcrvs	13, 3, r2, cr7, cr8, {3}
  a4:	72612f75 	rsbvc	r2, r1, #468	; 0x1d4
  a8:	696c2d6d 	stmdbvs	ip!, {r0, r2, r3, r5, r6, r8, sl, fp, sp}^
  ac:	2d78756e 	cfldr64cs	mvdx7, [r8, #-440]!	; 0xfffffe48
  b0:	65756e67 	ldrbvs	r6, [r5, #-3687]!	; 0xfffff199
  b4:	68696261 	stmdavs	r9!, {r0, r5, r6, r9, sp, lr}^
  b8:	63672f66 	cmnvs	r7, #408	; 0x198
  bc:	696c2d63 	stmdbvs	ip!, {r0, r1, r5, r6, r8, sl, fp, sp}^
  c0:	6f72616e 	svcvs	0x0072616e
  c4:	392e342d 	stmdbcc	lr!, {r0, r2, r3, r5, sl, ip, sp}
  c8:	3130322d 	teqcc	r0, sp, lsr #4
  cc:	31302e37 	teqcc	r0, r7, lsr lr
  d0:	6174732d 	cmnvs	r4, sp, lsr #6
  d4:	2f326567 	svccs	0x00326567
  d8:	2d6d7261 	sfmcs	f7, 2, [sp, #-388]!	; 0xfffffe7c
  dc:	756e696c 	strbvc	r6, [lr, #-2412]!	; 0xfffff694
  e0:	6e672d78 	mcrvs	13, 3, r2, cr7, cr8, {3}
  e4:	62616575 	rsbvs	r6, r1, #490733568	; 0x1d400000
  e8:	2f666869 	svccs	0x00666869
  ec:	6762696c 	strbvs	r6, [r2, -ip, ror #18]!
  f0:	6c006363 	stcvs	3, cr6, [r0], {99}	; 0x63
  f4:	20676e6f 	rsbcs	r6, r7, pc, ror #28
  f8:	676e6f6c 	strbvs	r6, [lr, -ip, ror #30]!
  fc:	736e7520 	cmnvc	lr, #32, 10	; 0x8000000
 100:	656e6769 	strbvs	r6, [lr, #-1897]!	; 0xfffff897
 104:	6e692064 	cdpvs	0, 6, cr2, cr9, cr4, {3}
 108:	6e750074 	mrcvs	0, 3, r0, cr5, cr4, {3}
 10c:	6e676973 			; <UNDEFINED> instruction: 0x6e676973
 110:	63206465 			; <UNDEFINED> instruction: 0x63206465
 114:	00726168 	rsbseq	r6, r2, r8, ror #2
 118:	726f6873 	rsbvc	r6, pc, #7536640	; 0x730000
 11c:	6e752074 	mrcvs	0, 3, r2, cr5, cr4, {3}
 120:	6e676973 			; <UNDEFINED> instruction: 0x6e676973
 124:	69206465 	stmdbvs	r0!, {r0, r2, r5, r6, sl, sp, lr}
 128:	4700746e 	strmi	r7, [r0, -lr, ror #8]
 12c:	4320554e 			; <UNDEFINED> instruction: 0x4320554e
 130:	392e3420 	stmdbcc	lr!, {r5, sl, ip, sp}
 134:	2d20342e 	cfstrscs	mvf3, [r0, #-184]!	; 0xffffff48
 138:	6372616d 	cmnvs	r2, #1073741851	; 0x4000001b
 13c:	72613d68 	rsbvc	r3, r1, #104, 26	; 0x1a00
 140:	2d37766d 	ldccs	6, cr7, [r7, #-436]!	; 0xfffffe4c
 144:	6d2d2061 	stcvs	0, cr2, [sp, #-388]!	; 0xfffffe7c
 148:	656e7574 	strbvs	r7, [lr, #-1396]!	; 0xfffffa8c
 14c:	726f633d 	rsbvc	r6, pc, #-201326592	; 0xf4000000
 150:	2d786574 	cfldr64cs	mvdx6, [r8, #-464]!	; 0xfffffe30
 154:	2d203961 			; <UNDEFINED> instruction: 0x2d203961
 158:	6f6c666d 	svcvs	0x006c666d
 15c:	612d7461 			; <UNDEFINED> instruction: 0x612d7461
 160:	683d6962 	ldmdavs	sp!, {r1, r5, r6, r8, fp, sp, lr}
 164:	20647261 	rsbcs	r7, r4, r1, ror #4
 168:	70666d2d 	rsbvc	r6, r6, sp, lsr #26
 16c:	66763d75 			; <UNDEFINED> instruction: 0x66763d75
 170:	2d337670 	ldccs	6, cr7, [r3, #-448]!	; 0xfffffe40
 174:	20363164 	eorscs	r3, r6, r4, ror #2
 178:	68746d2d 	ldmdavs	r4!, {r0, r2, r3, r5, r8, sl, fp, sp, lr}^
 17c:	20626d75 	rsbcs	r6, r2, r5, ror sp
 180:	6c746d2d 	ldclvs	13, cr6, [r4], #-180	; 0xffffff4c
 184:	69642d73 	stmdbvs	r4!, {r0, r1, r4, r5, r6, r8, sl, fp, sp}^
 188:	63656c61 	cmnvs	r5, #24832	; 0x6100
 18c:	6e673d74 	mcrvs	13, 3, r3, cr7, cr4, {3}
 190:	672d2075 			; <UNDEFINED> instruction: 0x672d2075
 194:	20672d20 	rsbcs	r2, r7, r0, lsr #26
 198:	2d20672d 	stccs	7, cr6, [r0, #-180]!	; 0xffffff4c
 19c:	2d20324f 	sfmcs	f3, 4, [r0, #-316]!	; 0xfffffec4
 1a0:	2d20324f 	sfmcs	f3, 4, [r0, #-316]!	; 0xfffffec4
 1a4:	2d20324f 	sfmcs	f3, 4, [r0, #-316]!	; 0xfffffec4
 1a8:	69756266 	ldmdbvs	r5!, {r1, r2, r5, r6, r9, sp, lr}^
 1ac:	6e69646c 	cdpvs	4, 6, cr6, cr9, cr12, {3}
 1b0:	696c2d67 	stmdbvs	ip!, {r0, r1, r2, r5, r6, r8, sl, fp, sp}^
 1b4:	63636762 	cmnvs	r3, #25690112	; 0x1880000
 1b8:	6e662d20 	cdpvs	13, 6, cr2, cr6, cr0, {1}
 1bc:	74732d6f 	ldrbtvc	r2, [r3], #-3439	; 0xfffff291
 1c0:	2d6b6361 	stclcs	3, cr6, [fp, #-388]!	; 0xfffffe7c
 1c4:	746f7270 	strbtvc	r7, [pc], #-624	; 1cc <shift+0x1cc>
 1c8:	6f746365 	svcvs	0x00746365
 1cc:	662d2072 			; <UNDEFINED> instruction: 0x662d2072
 1d0:	20434950 	subcs	r4, r3, r0, asr r9
 1d4:	6f6e662d 	svcvs	0x006e662d
 1d8:	6c6e692d 			; <UNDEFINED> instruction: 0x6c6e692d
 1dc:	20656e69 	rsbcs	r6, r5, r9, ror #28
 1e0:	7865662d 	stmdavc	r5!, {r0, r2, r3, r5, r9, sl, sp, lr}^
 1e4:	74706563 	ldrbtvc	r6, [r0], #-1379	; 0xfffffa9d
 1e8:	736e6f69 	cmnvc	lr, #420	; 0x1a4
 1ec:	76662d20 	strbtvc	r2, [r6], -r0, lsr #26
 1f0:	62697369 	rsbvs	r7, r9, #-1543503871	; 0xa4000001
 1f4:	74696c69 	strbtvc	r6, [r9], #-3177	; 0xfffff397
 1f8:	69683d79 	stmdbvs	r8!, {r0, r3, r4, r5, r6, r8, sl, fp, ip, sp}^
 1fc:	6e656464 	cdpvs	4, 6, cr6, cr5, cr4, {3}
 200:	49445500 	stmdbmi	r4, {r8, sl, ip, lr}^
 204:	65707974 	ldrbvs	r7, [r0, #-2420]!	; 0xfffff68c
 208:	6d6f6300 	stclvs	3, cr6, [pc, #-0]	; 210 <shift+0x210>
 20c:	78656c70 	stmdavc	r5!, {r4, r5, r6, sl, fp, sp, lr}^
 210:	6f6c6620 	svcvs	0x006c6620
 214:	73007461 	movwvc	r7, #1121	; 0x461
 218:	74657a69 	strbtvc	r7, [r5], #-2665	; 0xfffff597
 21c:	00657079 	rsbeq	r7, r5, r9, ror r0
 220:	676e6f6c 	strbvs	r6, [lr, -ip, ror #30]!
 224:	6e6f6c20 	cdpvs	12, 6, cr6, cr15, cr0, {1}
 228:	6e692067 	cdpvs	0, 6, cr2, cr9, cr7, {3}
 22c:	53550074 	cmppl	r5, #116	; 0x74
 230:	70797449 	rsbsvc	r7, r9, r9, asr #8
 234:	68730065 	ldmdavs	r3!, {r0, r2, r5, r6}^
 238:	2074726f 	rsbscs	r7, r4, pc, ror #4
 23c:	00746e69 	rsbseq	r6, r4, r9, ror #28
 240:	706d6f63 	rsbvc	r6, sp, r3, ror #30
 244:	2078656c 	rsbscs	r6, r8, ip, ror #10
 248:	62756f64 	rsbsvs	r6, r5, #100, 30	; 0x190
 24c:	2f00656c 	svccs	0x0000656c
 250:	656d6f68 	strbvs	r6, [sp, #-3944]!	; 0xfffff098
 254:	7763742f 	strbvc	r7, [r3, -pc, lsr #8]!
 258:	75622d67 	strbvc	r2, [r2, #-3431]!	; 0xfffff299
 25c:	73646c69 	cmnvc	r4, #26880	; 0x6900
 260:	6576616c 	ldrbvs	r6, [r6, #-364]!	; 0xfffffe94
 264:	726f772f 	rsbvc	r7, pc, #12320768	; 0xbc0000
 268:	6170736b 	cmnvs	r0, fp, ror #6
 26c:	742f6563 	strtvc	r6, [pc], #-1379	; 274 <shift+0x274>
 270:	2d677763 	stclcs	7, cr7, [r7, #-396]!	; 0xfffffe74
 274:	656b616d 	strbvs	r6, [fp, #-365]!	; 0xfffffe93
 278:	6c65722d 	sfmvs	f7, 2, [r5], #-180	; 0xffffff4c
 27c:	65736165 	ldrbvs	r6, [r3, #-357]!	; 0xfffffe9b
 280:	62616c2f 	rsbvs	r6, r1, #12032	; 0x2f00
 284:	642f6c65 	strtvs	r6, [pc], #-3173	; 28c <shift+0x28c>
 288:	656b636f 	strbvs	r6, [fp, #-879]!	; 0xfffffc91
 28c:	72742d72 	rsbsvc	r2, r4, #7296	; 0x1c80
 290:	79747375 	ldmdbvc	r4!, {r0, r2, r4, r5, r6, r8, r9, ip, sp, lr}^
 294:	646d612d 	strbtvs	r6, [sp], #-301	; 0xfffffed3
 298:	742d3436 	strtvc	r3, [sp], #-1078	; 0xfffffbca
 29c:	2d677763 	stclcs	7, cr7, [r7, #-396]!	; 0xfffffe74
 2a0:	6c697562 	cfstr64vs	mvdx7, [r9], #-392	; 0xfffffe78
 2a4:	61742f64 	cmnvs	r4, r4, ror #30
 2a8:	74656772 	strbtvc	r6, [r5], #-1906	; 0xfffff88e
 2ac:	6d72612f 	ldfvse	f6, [r2, #-188]!	; 0xffffff44
 2b0:	6e696c2d 	cdpvs	12, 6, cr6, cr9, cr13, {1}
 2b4:	672d7875 			; <UNDEFINED> instruction: 0x672d7875
 2b8:	6165756e 	cmnvs	r5, lr, ror #10
 2bc:	66686962 	strbtvs	r6, [r8], -r2, ror #18
 2c0:	616e732f 	cmnvs	lr, pc, lsr #6
 2c4:	6f687370 	svcvs	0x00687370
 2c8:	672f7374 			; <UNDEFINED> instruction: 0x672f7374
 2cc:	6c2d6363 	stcvs	3, cr6, [sp], #-396	; 0xfffffe74
 2d0:	72616e69 	rsbvc	r6, r1, #1680	; 0x690
 2d4:	2e342d6f 	cdpcs	13, 3, cr2, cr4, cr15, {3}
 2d8:	30322d39 	eorscc	r2, r2, r9, lsr sp
 2dc:	302e3731 	eorcc	r3, lr, r1, lsr r7
 2e0:	696c2f31 	stmdbvs	ip!, {r0, r4, r5, r8, r9, sl, fp, sp}^
 2e4:	63636762 	cmnvs	r3, #25690112	; 0x1880000
 2e8:	62696c2f 	rsbvs	r6, r9, #12032	; 0x2f00
 2ec:	32636367 	rsbcc	r6, r3, #-1677721599	; 0x9c000001
 2f0:	Address 0x00000000000002f0 is out of bounds.

