Archive member included to satisfy reference by file (symbol)

/usr/lib/gcc-cross/arm-linux-gnueabihf/5/libgcc.a(_udivsi3.o)
                              arch/arm/cpu/armv7/built-in.o (__aeabi_uidiv)
/usr/lib/gcc-cross/arm-linux-gnueabihf/5/libgcc.a(_divsi3.o)
                              cmd/built-in.o (__aeabi_idiv)
/usr/lib/gcc-cross/arm-linux-gnueabihf/5/libgcc.a(_lshrdi3.o)
                              fs/built-in.o (__aeabi_llsr)
/usr/lib/gcc-cross/arm-linux-gnueabihf/5/libgcc.a(_ashldi3.o)
                              drivers/mmc/built-in.o (__aeabi_llsl)
/usr/lib/gcc-cross/arm-linux-gnueabihf/5/libgcc.a(_dvmd_lnx.o)
                              /usr/lib/gcc-cross/arm-linux-gnueabihf/5/libgcc.a(_udivsi3.o) (__aeabi_idiv0)

Discarded input sections

 .data          0x0000000000000000        0x0 arch/arm/cpu/armv7/start.o
 .bss           0x0000000000000000        0x0 arch/arm/cpu/armv7/start.o
 .text.v7_arch_cp15_set_l2aux_ctrl
                0x0000000000000000        0x8 arch/arm/cpu/armv7/built-in.o
 .text.v7_arch_cp15_set_acr
                0x0000000000000000        0x8 arch/arm/cpu/armv7/built-in.o
 .text.sdelay   0x0000000000000000        0xc arch/arm/cpu/armv7/built-in.o
 .text.wait_on_value
                0x0000000000000000       0x34 arch/arm/cpu/armv7/built-in.o
 .text.get_nr_cpus
                0x0000000000000000       0x10 arch/arm/cpu/armv7/built-in.o
 .text.board_mmc_get_env_dev
                0x0000000000000000        0x8 arch/arm/cpu/armv7/built-in.o
 .text.get_boot_device
                0x0000000000000000       0x9c arch/arm/cpu/armv7/built-in.o
 .text.enable_uart_clk
                0x0000000000000000       0x54 arch/arm/cpu/armv7/built-in.o
 .text.enable_usdhc_clk
                0x0000000000000000       0x4c arch/arm/cpu/armv7/built-in.o
 .text.enable_spi_clk
                0x0000000000000000       0x44 arch/arm/cpu/armv7/built-in.o
 .text.enable_lvds_bridge
                0x0000000000000000      0x1d8 arch/arm/cpu/armv7/built-in.o
 .text.enable_ipu_clock
                0x0000000000000000       0x90 arch/arm/cpu/armv7/built-in.o
 .data          0x0000000000000000        0x0 arch/arm/cpu/armv7/built-in.o
 .bss           0x0000000000000000        0x0 arch/arm/cpu/armv7/built-in.o
 .text          0x0000000000000000        0x0 arch/arm/imx-common/built-in.o
 .text.imx_iomux_set_gpr_register
                0x0000000000000000       0x40 arch/arm/imx-common/built-in.o
 .text.get_imx_reset_cause
                0x0000000000000000       0x10 arch/arm/imx-common/built-in.o
 .text.set_chipselect_size
                0x0000000000000000       0x7c arch/arm/imx-common/built-in.o
 .text.usec2ticks
                0x0000000000000000       0x64 arch/arm/imx-common/built-in.o
 .data          0x0000000000000000        0x0 arch/arm/imx-common/built-in.o
 .bss           0x0000000000000000        0x0 arch/arm/imx-common/built-in.o
 .text.reset_misc
                0x0000000000000000        0x4 arch/arm/lib/built-in.o
 .text.enable_caches
                0x0000000000000000        0xc arch/arm/lib/built-in.o
 .text.invalidate_dcache_range
                0x0000000000000000        0x4 arch/arm/lib/built-in.o
 .text.flush_dcache_range
                0x0000000000000000        0x4 arch/arm/lib/built-in.o
 .text.flush_dcache_all
                0x0000000000000000        0xc arch/arm/lib/built-in.o
 .text.arm_init_before_mmu
                0x0000000000000000        0x4 arch/arm/lib/built-in.o
 .text.mmu_page_table_flush
                0x0000000000000000        0x4 arch/arm/lib/built-in.o
 .data          0x0000000000000000        0x0 arch/arm/lib/built-in.o
 .__secure_start
                0x0000000000000000        0x0 arch/arm/lib/built-in.o
 .__secure_end  0x0000000000000000        0x0 arch/arm/lib/built-in.o
 .bss           0x0000000000000000        0x0 arch/arm/lib/built-in.o
 .text          0x0000000000000000        0x0 board/freescale/common/built-in.o
 .text.mmc_map_to_kernel_blk
                0x0000000000000000        0x4 board/freescale/common/built-in.o
 .data          0x0000000000000000        0x0 board/freescale/common/built-in.o
 .bss           0x0000000000000000        0x0 board/freescale/common/built-in.o
 .text          0x0000000000000000        0x0 board/freescale/mx6ullevk/built-in.o
 .text.iox74lv_set
                0x0000000000000000       0xf8 board/freescale/mx6ullevk/built-in.o
 .data          0x0000000000000000        0x0 board/freescale/mx6ullevk/built-in.o
 .bss           0x0000000000000000        0x0 board/freescale/mx6ullevk/built-in.o
 .text          0x0000000000000000        0x0 cmd/built-in.o
 .text.bootz_setup
                0x0000000000000000       0x18 cmd/built-in.o
 .text.gunzip_bmp
                0x0000000000000000        0x8 cmd/built-in.o
 .text.invalidate_icache_all
                0x0000000000000000        0xc cmd/built-in.o
 .text.flush_dcache_all
                0x0000000000000000        0xc cmd/built-in.o
 .data          0x0000000000000000        0x0 cmd/built-in.o
 .bss           0x0000000000000000        0x0 cmd/built-in.o
 .text          0x0000000000000000        0x0 common/built-in.o
 .text.hash_finish_crc32
                0x0000000000000000       0x30 common/built-in.o
 .text.hash_update_crc32
                0x0000000000000000       0x24 common/built-in.o
 .text.hash_init_crc32
                0x0000000000000000       0x24 common/built-in.o
 .text.hash_lookup_algo
                0x0000000000000000       0x28 common/built-in.o
 .text.hash_progressive_lookup_algo
                0x0000000000000000       0x3c common/built-in.o
 .text.hash_parse_string
                0x0000000000000000       0x68 common/built-in.o
 .text.hash_block
                0x0000000000000000       0x6c common/built-in.o
 .text.unset_local_var
                0x0000000000000000       0xa0 common/built-in.o
 .text.arch_cpu_init
                0x0000000000000000        0x8 common/built-in.o
 .text.red_led_off
                0x0000000000000000        0x4 common/built-in.o
 .text.green_led_on
                0x0000000000000000        0x4 common/built-in.o
 .text.green_led_off
                0x0000000000000000        0x4 common/built-in.o
 .text.yellow_led_on
                0x0000000000000000        0x4 common/built-in.o
 .text.yellow_led_off
                0x0000000000000000        0x4 common/built-in.o
 .text.blue_led_on
                0x0000000000000000        0x4 common/built-in.o
 .text.blue_led_off
                0x0000000000000000        0x4 common/built-in.o
 .text.arch_reserve_stacks
                0x0000000000000000        0x8 common/built-in.o
 .text.power_init_board
                0x0000000000000000        0x8 common/built-in.o
 .text.board_flash_wp_on
                0x0000000000000000        0x8 common/built-in.o
 .text.fixup_cpu
                0x0000000000000000        0x8 common/built-in.o
 .text.checkboard
                0x0000000000000000        0x8 common/built-in.o
 .text.arch_preboot_os
                0x0000000000000000        0x4 common/built-in.o
 .text.env_flags_parse_varaccess_from_binflags
                0x0000000000000000       0x54 common/built-in.o
 .text.mmc_get_env_dev
                0x0000000000000000        0x8 common/built-in.o
 .text.mmc_get_env_part
                0x0000000000000000        0x8 common/built-in.o
 .text.of_bus_default_map
                0x0000000000000000       0xdc common/built-in.o
 .text.fdt_read_prop
                0x0000000000000000       0x64 common/built-in.o
 .text.of_bus_default_count_cells
                0x0000000000000000       0x58 common/built-in.o
 .text.of_bus_default_translate
                0x0000000000000000       0xa0 common/built-in.o
 .text.fdt_getprop_u32_default_node
                0x0000000000000000       0x40 common/built-in.o
 .text.fdt_getprop_u32_default
                0x0000000000000000       0x3c common/built-in.o
 .text.do_fixup_by_path_u32
                0x0000000000000000       0x2c common/built-in.o
 .text.do_fixup_by_prop
                0x0000000000000000       0x9c common/built-in.o
 .text.do_fixup_by_prop_u32
                0x0000000000000000       0x38 common/built-in.o
 .text.do_fixup_by_compat
                0x0000000000000000       0x8c common/built-in.o
 .text.do_fixup_by_compat_u32
                0x0000000000000000       0x2c common/built-in.o
 .text.fdt_increase_size
                0x0000000000000000       0x14 common/built-in.o
 .text.fdt_del_node_and_alias
                0x0000000000000000       0x44 common/built-in.o
 .text.fdt_translate_address
                0x0000000000000000      0x280 common/built-in.o
 .text.fdt_node_offset_by_compat_reg
                0x0000000000000000       0x8c common/built-in.o
 .text.fdt_alloc_phandle
                0x0000000000000000       0x58 common/built-in.o
 .text.fdt_set_phandle
                0x0000000000000000       0x60 common/built-in.o
 .text.fdt_create_phandle
                0x0000000000000000       0x64 common/built-in.o
 .text.fdt_set_node_status
                0x0000000000000000       0xf4 common/built-in.o
 .text.fdt_set_status_by_alias
                0x0000000000000000       0x2c common/built-in.o
 .text.fdt_add_edid
                0x0000000000000000       0xac common/built-in.o
 .text.fdt_verify_alias_address
                0x0000000000000000       0xd0 common/built-in.o
 .text.fdt_get_base_address
                0x0000000000000000       0x54 common/built-in.o
 .text.fdt_read_range
                0x0000000000000000      0x13c common/built-in.o
 .text.fdt_setup_simplefb_node
                0x0000000000000000      0x200 common/built-in.o
 .text.fdt_fixup_display
                0x0000000000000000       0xd4 common/built-in.o
 .text.legacy_miiphy_read
                0x0000000000000000       0x34 common/built-in.o
 .text.legacy_miiphy_write
                0x0000000000000000       0x28 common/built-in.o
 .text.miiphy_register
                0x0000000000000000      0x124 common/built-in.o
 .text.mdio_free
                0x0000000000000000        0x4 common/built-in.o
 .text.usb_detect_change
                0x0000000000000000       0x6c common/built-in.o
 .text.usb_submit_int_msg
                0x0000000000000000        0x4 common/built-in.o
 .text.usb_set_protocol
                0x0000000000000000       0x4c common/built-in.o
 .text.usb_set_idle
                0x0000000000000000       0x54 common/built-in.o
 .text.usb_get_report
                0x0000000000000000       0x5c common/built-in.o
 .text.usb_get_class_descriptor
                0x0000000000000000       0x5c common/built-in.o
 .text.board_usb_init
                0x0000000000000000        0x8 common/built-in.o
 .text.board_usb_cleanup
                0x0000000000000000        0x8 common/built-in.o
 .text.usb_stor_reset
                0x0000000000000000       0x14 common/built-in.o
 .text.splash_screen_prepare
                0x0000000000000000        0x8 common/built-in.o
 .text.bounce_buffer_start
                0x0000000000000000       0x88 common/built-in.o
 .text.bounce_buffer_stop
                0x0000000000000000       0x54 common/built-in.o
 .text.fputc    0x0000000000000000       0x1c common/built-in.o
 .text.fputs    0x0000000000000000       0x1c common/built-in.o
 .text.fprintf  0x0000000000000000       0x4c common/built-in.o
 .text.disable_ctrlc
                0x0000000000000000       0x18 common/built-in.o
 .text.valloc   0x0000000000000000        0xc common/built-in.o
 .text.pvalloc  0x0000000000000000       0x18 common/built-in.o
 .text.cfree    0x0000000000000000        0x4 common/built-in.o
 .text.malloc_usable_size
                0x0000000000000000       0x3c common/built-in.o
 .text.mallopt  0x0000000000000000       0x54 common/built-in.o
 .text.memalign_simple
                0x0000000000000000       0x44 common/built-in.o
 .text.genimg_get_type_short_name
                0x0000000000000000       0x28 common/built-in.o
 .text.get_table_entry_id
                0x0000000000000000       0x4c common/built-in.o
 .text.genimg_get_os_id
                0x0000000000000000       0x18 common/built-in.o
 .text.genimg_get_arch_id
                0x0000000000000000       0x18 common/built-in.o
 .text.genimg_get_type_id
                0x0000000000000000       0x18 common/built-in.o
 .text.genimg_get_comp_id
                0x0000000000000000       0x18 common/built-in.o
 .text.genimg_get_kernel_addr
                0x0000000000000000       0x24 common/built-in.o
 .text.arch_fixup_fdt
                0x0000000000000000        0x8 common/built-in.o
 .text.get_ram_size
                0x0000000000000000       0xe0 common/built-in.o
 .text.stdio_init
                0x0000000000000000       0x14 common/built-in.o
 .text.cli_simple_parse_line
                0x0000000000000000       0x8c common/built-in.o
 .text.cli_simple_process_macros
                0x0000000000000000      0x20c common/built-in.o
 .text.cli_simple_run_command
                0x0000000000000000      0x150 common/built-in.o
 .text.cli_simple_loop
                0x0000000000000000       0x80 common/built-in.o
 .text.cli_simple_run_command_list
                0x0000000000000000       0x78 common/built-in.o
 .text.run_command_repeatable
                0x0000000000000000       0x1c common/built-in.o
 .rodata.__FUNCTION__.9171
                0x0000000000000000       0x17 common/built-in.o
 .rodata.__FUNCTION__.9457
                0x0000000000000000       0x10 common/built-in.o
 .data          0x0000000000000000        0x0 common/built-in.o
 .data.hash_algo
                0x0000000000000000       0x1c common/built-in.o
 .data.of_busses
                0x0000000000000000       0x14 common/built-in.o
 .bss           0x0000000000000000        0x0 common/built-in.o
 .bss.env_ptr   0x0000000000000000        0x4 common/built-in.o
 .bss.save_addr
                0x0000000000000000        0x4 common/built-in.o
 .bss.save_size
                0x0000000000000000        0x4 common/built-in.o
 .bss.lastcommand.7419
                0x0000000000000000      0x201 common/built-in.o
 .text          0x0000000000000000        0x0 disk/built-in.o
 .text.get_dev  0x0000000000000000        0x8 disk/built-in.o
 .data          0x0000000000000000        0x0 disk/built-in.o
 .bss           0x0000000000000000        0x0 disk/built-in.o
 .text          0x0000000000000000        0x0 drivers/built-in.o
 .text._device_find_global_by_of_offset
                0x0000000000000000       0x50 drivers/built-in.o
 .text.dev_get_parent_platdata
                0x0000000000000000       0x34 drivers/built-in.o
 .text.dev_get_uclass_platdata
                0x0000000000000000       0x34 drivers/built-in.o
 .text.dev_get_uclass_priv
                0x0000000000000000       0x34 drivers/built-in.o
 .text.dev_get_parent_priv
                0x0000000000000000       0x34 drivers/built-in.o
 .text.device_get_child
                0x0000000000000000       0x58 drivers/built-in.o
 .text.device_find_child_by_seq
                0x0000000000000000       0x64 drivers/built-in.o
 .text.device_get_child_by_seq
                0x0000000000000000       0x64 drivers/built-in.o
 .text.device_find_child_by_of_offset
                0x0000000000000000       0x44 drivers/built-in.o
 .text.device_get_child_by_of_offset
                0x0000000000000000       0x3c drivers/built-in.o
 .text.device_get_global_by_of_offset
                0x0000000000000000       0x40 drivers/built-in.o
 .text.device_find_first_child
                0x0000000000000000       0x1c drivers/built-in.o
 .text.device_find_next_child
                0x0000000000000000       0x28 drivers/built-in.o
 .text.dev_get_parent
                0x0000000000000000        0x8 drivers/built-in.o
 .text.dev_get_driver_data
                0x0000000000000000        0x8 drivers/built-in.o
 .text.dev_get_driver_ops
                0x0000000000000000       0x10 drivers/built-in.o
 .text.device_get_uclass_id
                0x0000000000000000       0x10 drivers/built-in.o
 .text.dev_get_uclass_name
                0x0000000000000000       0x14 drivers/built-in.o
 .text.dev_get_addr_index
                0x0000000000000000        0x8 drivers/built-in.o
 .text.dev_get_addr
                0x0000000000000000        0x8 drivers/built-in.o
 .text.device_has_children
                0x0000000000000000       0x14 drivers/built-in.o
 .text.device_has_active_children
                0x0000000000000000       0x3c drivers/built-in.o
 .text.device_is_last_sibling
                0x0000000000000000       0x24 drivers/built-in.o
 .text.device_set_name
                0x0000000000000000       0x24 drivers/built-in.o
 .text.device_bind_driver_to_node
                0x0000000000000000       0x48 drivers/built-in.o
 .text.device_bind_driver
                0x0000000000000000       0x18 drivers/built-in.o
 .text.dm_get_translation_offset
                0x0000000000000000       0x14 drivers/built-in.o
 .text.dm_set_translation_offset
                0x0000000000000000       0x18 drivers/built-in.o
 .text.dm_uninit
                0x0000000000000000       0x1c drivers/built-in.o
 .text.uclass_destroy
                0x0000000000000000       0x98 drivers/built-in.o
 .text.uclass_find_first_device
                0x0000000000000000       0x3c drivers/built-in.o
 .text.uclass_find_next_device
                0x0000000000000000       0x2c drivers/built-in.o
 .text.uclass_find_device_by_name
                0x0000000000000000       0x8c drivers/built-in.o
 .text.uclass_find_device_by_of_offset
                0x0000000000000000       0x6c drivers/built-in.o
 .text.uclass_get_device_by_name
                0x0000000000000000       0x30 drivers/built-in.o
 .text.uclass_get_device_by_seq
                0x0000000000000000       0x54 drivers/built-in.o
 .text.uclass_get_device_by_of_offset
                0x0000000000000000       0x30 drivers/built-in.o
 .text.uclass_first_device
                0x0000000000000000       0x38 drivers/built-in.o
 .text.uclass_next_device
                0x0000000000000000       0x40 drivers/built-in.o
 .text.dm_dbg   0x0000000000000000       0x28 drivers/built-in.o
 .text.list_count_items
                0x0000000000000000       0x20 drivers/built-in.o
 .text.device_unbind
                0x0000000000000000      0x13c drivers/built-in.o
 .text.board_video_skip
                0x0000000000000000        0x8 drivers/built-in.o
 .text.video_position_cursor
                0x0000000000000000       0x50 drivers/built-in.o
 .text.video_get_pixel_width
                0x0000000000000000       0x14 drivers/built-in.o
 .text.video_get_pixel_height
                0x0000000000000000       0x14 drivers/built-in.o
 .text.video_get_screen_rows
                0x0000000000000000       0x18 drivers/built-in.o
 .text.video_get_screen_columns
                0x0000000000000000       0x18 drivers/built-in.o
 .text.mxs_lcd_get_panel
                0x0000000000000000       0x3c drivers/built-in.o
 .text.video_get_video_mode
                0x0000000000000000      0x184 drivers/built-in.o
 .text.video_get_ctfb_res_modes
                0x0000000000000000       0xf4 drivers/built-in.o
 .text.video_get_option_string
                0x0000000000000000       0xac drivers/built-in.o
 .text.video_get_option_int
                0x0000000000000000       0x84 drivers/built-in.o
 .text.video_edid_dtd_to_ctfb_res_modes
                0x0000000000000000      0x268 drivers/built-in.o
 .text._input_send_keycodes
                0x0000000000000000      0x424 drivers/built-in.o
 .text.input_tstc
                0x0000000000000000       0x48 drivers/built-in.o
 .text.input_getc
                0x0000000000000000       0x5c drivers/built-in.o
 .text.input_send_keycodes
                0x0000000000000000        0x8 drivers/built-in.o
 .text.input_add_keycode
                0x0000000000000000       0x84 drivers/built-in.o
 .text.input_add_table
                0x0000000000000000       0x40 drivers/built-in.o
 .text.input_set_delays
                0x0000000000000000        0xc drivers/built-in.o
 .text.input_allow_repeats
                0x0000000000000000        0x8 drivers/built-in.o
 .text.input_leds_changed
                0x0000000000000000       0x14 drivers/built-in.o
 .text.input_add_tables
                0x0000000000000000       0x74 drivers/built-in.o
 .text.input_init
                0x0000000000000000       0x24 drivers/built-in.o
 .text.input_stdio_register
                0x0000000000000000       0x54 drivers/built-in.o
 .rodata.__func__.9425
                0x0000000000000000       0x14 drivers/built-in.o
 .rodata.__func__.9429
                0x0000000000000000       0x14 drivers/built-in.o
 .rodata.__func__.9413
                0x0000000000000000       0x18 drivers/built-in.o
 .rodata.__func__.9417
                0x0000000000000000       0x18 drivers/built-in.o
 .rodata.vesa_modes
                0x0000000000000000       0xe4 drivers/built-in.o
 .rodata.kbd_to_ansi364
                0x0000000000000000       0x20 drivers/built-in.o
 .rodata.kbd_plain_xlate
                0x0000000000000000       0x64 drivers/built-in.o
 .rodata.kbd_plain_xlate_german
                0x0000000000000000       0x84 drivers/built-in.o
 .rodata.CSWTCH.33
                0x0000000000000000        0xd drivers/built-in.o
 .data          0x0000000000000000        0x0 drivers/built-in.o
 .data.kbd_ctrl_xlate
                0x0000000000000000       0x64 drivers/built-in.o
 .data.kbd_right_alt_xlate_german
                0x0000000000000000       0x58 drivers/built-in.o
 .data.kbd_shift_xlate_german
                0x0000000000000000       0x84 drivers/built-in.o
 .data.kbd_entry
                0x0000000000000000       0x8c drivers/built-in.o
 .data.kbd_shift_xlate
                0x0000000000000000       0x64 drivers/built-in.o
 .bss           0x0000000000000000        0x0 drivers/built-in.o
 .bss.desc      0x0000000000000000       0x80 drivers/built-in.o
 .text          0x0000000000000000        0x0 drivers/gpio/built-in.o
 .data          0x0000000000000000        0x0 drivers/gpio/built-in.o
 .bss           0x0000000000000000        0x0 drivers/gpio/built-in.o
 .text          0x0000000000000000        0x0 drivers/i2c/built-in.o
 .text.i2c_reloc_fixup
                0x0000000000000000        0x4 drivers/i2c/built-in.o
 .text.i2c_init_board
                0x0000000000000000        0x4 drivers/i2c/built-in.o
 .text.i2c_reg_read
                0x0000000000000000       0x20 drivers/i2c/built-in.o
 .text.i2c_reg_write
                0x0000000000000000       0x20 drivers/i2c/built-in.o
 .text.i2c_get_base
                0x0000000000000000       0x18 drivers/i2c/built-in.o
 .text.__enable_i2c_clk
                0x0000000000000000        0x8 drivers/i2c/built-in.o
 .data          0x0000000000000000        0x0 drivers/i2c/built-in.o
 .bss           0x0000000000000000        0x0 drivers/i2c/built-in.o
 .text          0x0000000000000000        0x0 drivers/mmc/built-in.o
 .text.fdt_fixup_esdhc
                0x0000000000000000       0x5c drivers/mmc/built-in.o
 .text.board_mmc_getcd
                0x0000000000000000        0x8 drivers/mmc/built-in.o
 .text.mmc_register
                0x0000000000000000       0x20 drivers/mmc/built-in.o
 .text.mmc_destroy
                0x0000000000000000        0x4 drivers/mmc/built-in.o
 .text.cpu_mmc_init
                0x0000000000000000        0x8 drivers/mmc/built-in.o
 .text.board_mmc_init
                0x0000000000000000        0x8 drivers/mmc/built-in.o
 .text.mmc_set_preinit
                0x0000000000000000        0x8 drivers/mmc/built-in.o
 .rodata.__func__.9528
                0x0000000000000000        0xd drivers/mmc/built-in.o
 .data          0x0000000000000000        0x0 drivers/mmc/built-in.o
 .bss           0x0000000000000000        0x0 drivers/mmc/built-in.o
 .text          0x0000000000000000        0x0 drivers/mtd/built-in.o
 .text.idr_remove
                0x0000000000000000       0x14 drivers/mtd/built-in.o
 .text.idr_find
                0x0000000000000000       0x14 drivers/mtd/built-in.o
 .text.idr_get_next
                0x0000000000000000       0x44 drivers/mtd/built-in.o
 .text.idr_alloc
                0x0000000000000000       0x3c drivers/mtd/built-in.o
 .text.__mtd_next_device
                0x0000000000000000       0x20 drivers/mtd/built-in.o
 .text.del_mtd_device
                0x0000000000000000       0x74 drivers/mtd/built-in.o
 .text.__get_mtd_device
                0x0000000000000000       0x38 drivers/mtd/built-in.o
 .text.get_mtd_device
                0x0000000000000000       0x8c drivers/mtd/built-in.o
 .text.get_mtd_device_nm
                0x0000000000000000       0x58 drivers/mtd/built-in.o
 .text.__put_mtd_device
                0x0000000000000000       0x4c drivers/mtd/built-in.o
 .text.put_mtd_device
                0x0000000000000000        0x4 drivers/mtd/built-in.o
 .text.mtd_erase
                0x0000000000000000       0x90 drivers/mtd/built-in.o
 .text.mtd_get_unmapped_area
                0x0000000000000000       0x60 drivers/mtd/built-in.o
 .text.mtd_read
                0x0000000000000000       0xa4 drivers/mtd/built-in.o
 .text.mtd_write
                0x0000000000000000       0x9c drivers/mtd/built-in.o
 .text.mtd_panic_write
                0x0000000000000000       0xa0 drivers/mtd/built-in.o
 .text.mtd_read_oob
                0x0000000000000000       0x60 drivers/mtd/built-in.o
 .text.mtd_get_fact_prot_info
                0x0000000000000000       0x34 drivers/mtd/built-in.o
 .text.mtd_read_fact_prot_reg
                0x0000000000000000       0x48 drivers/mtd/built-in.o
 .text.mtd_get_user_prot_info
                0x0000000000000000       0x34 drivers/mtd/built-in.o
 .text.mtd_read_user_prot_reg
                0x0000000000000000       0x48 drivers/mtd/built-in.o
 .text.mtd_write_user_prot_reg
                0x0000000000000000       0x64 drivers/mtd/built-in.o
 .text.mtd_lock_user_prot_reg
                0x0000000000000000       0x38 drivers/mtd/built-in.o
 .text.mtd_lock
                0x0000000000000000       0x74 drivers/mtd/built-in.o
 .text.mtd_unlock
                0x0000000000000000       0x74 drivers/mtd/built-in.o
 .text.add_mtd_device
                0x0000000000000000      0x1d4 drivers/mtd/built-in.o
 .text.mtd_is_locked
                0x0000000000000000       0x74 drivers/mtd/built-in.o
 .text.mtd_block_isreserved
                0x0000000000000000       0x50 drivers/mtd/built-in.o
 .text.mtd_block_isbad
                0x0000000000000000       0x50 drivers/mtd/built-in.o
 .text.mtd_block_markbad
                0x0000000000000000       0x64 drivers/mtd/built-in.o
 .data          0x0000000000000000        0x0 drivers/mtd/built-in.o
 .bss           0x0000000000000000        0x0 drivers/mtd/built-in.o
 .bss.mtd_table
                0x0000000000000000       0x80 drivers/mtd/built-in.o
 .bss.mtd_idr   0x0000000000000000      0x200 drivers/mtd/built-in.o
 .text          0x0000000000000000        0x0 drivers/mtd/spi/built-in.o
 .data          0x0000000000000000        0x0 drivers/mtd/spi/built-in.o
 .bss           0x0000000000000000        0x0 drivers/mtd/spi/built-in.o
 .text          0x0000000000000000        0x0 drivers/net/built-in.o
 .data          0x0000000000000000        0x0 drivers/net/built-in.o
 .bss           0x0000000000000000        0x0 drivers/net/built-in.o
 .text          0x0000000000000000        0x0 drivers/net/phy/built-in.o
 .text.phy_set_supported
                0x0000000000000000       0x5c drivers/net/phy/built-in.o
 .text.miiphy_reset
                0x0000000000000000       0x24 drivers/net/phy/built-in.o
 .text.phy_connect
                0x0000000000000000       0x50 drivers/net/phy/built-in.o
 .text.board_phy_config
                0x0000000000000000       0x1c drivers/net/phy/built-in.o
 .text.phy_shutdown
                0x0000000000000000       0x28 drivers/net/phy/built-in.o
 .text.phy_get_interface_by_name
                0x0000000000000000       0x44 drivers/net/phy/built-in.o
 .rodata.phy_interface_strings
                0x0000000000000000       0x38 drivers/net/phy/built-in.o
 .data          0x0000000000000000        0x0 drivers/net/phy/built-in.o
 .bss           0x0000000000000000        0x0 drivers/net/phy/built-in.o
 .text          0x0000000000000000        0x0 drivers/power/built-in.o
 .text.pmic_set_output
                0x0000000000000000       0x60 drivers/power/built-in.o
 .text.pmic_alloc
                0x0000000000000000       0x58 drivers/power/built-in.o
 .text.pmic_probe
                0x0000000000000000       0x38 drivers/power/built-in.o
 .rodata.__func__.7699
                0x0000000000000000        0xb drivers/power/built-in.o
 .data          0x0000000000000000        0x0 drivers/power/built-in.o
 .bss           0x0000000000000000        0x0 drivers/power/built-in.o
 .text          0x0000000000000000        0x0 drivers/power/pmic/built-in.o
 .text.power_pfuze3000_init
                0x0000000000000000       0x64 drivers/power/pmic/built-in.o
 .rodata.__func__.7671
                0x0000000000000000       0x15 drivers/power/pmic/built-in.o
 .rodata.str1.1
                0x0000000000000000       0x1d drivers/power/pmic/built-in.o
 .rodata.name.7669
                0x0000000000000000        0xa drivers/power/pmic/built-in.o
 .data          0x0000000000000000        0x0 drivers/power/pmic/built-in.o
 .bss           0x0000000000000000        0x0 drivers/power/pmic/built-in.o
 .comment       0x0000000000000000       0x3c drivers/power/pmic/built-in.o
 .note.GNU-stack
                0x0000000000000000        0x0 drivers/power/pmic/built-in.o
 .ARM.attributes
                0x0000000000000000       0x2d drivers/power/pmic/built-in.o
 .debug_aranges
                0x0000000000000000       0x20 drivers/power/pmic/built-in.o
 .debug_info    0x0000000000000000      0x84f drivers/power/pmic/built-in.o
 .debug_abbrev  0x0000000000000000      0x1c2 drivers/power/pmic/built-in.o
 .debug_line    0x0000000000000000      0x10f drivers/power/pmic/built-in.o
 .debug_frame   0x0000000000000000       0x28 drivers/power/pmic/built-in.o
 .debug_str     0x0000000000000000      0x941 drivers/power/pmic/built-in.o
 .debug_loc     0x0000000000000000       0x55 drivers/power/pmic/built-in.o
 .debug_ranges  0x0000000000000000       0x10 drivers/power/pmic/built-in.o
 .text          0x0000000000000000        0x0 drivers/serial/built-in.o
 .text.serial_reinit_all
                0x0000000000000000       0x2c drivers/serial/built-in.o
 .data          0x0000000000000000        0x0 drivers/serial/built-in.o
 .bss           0x0000000000000000        0x0 drivers/serial/built-in.o
 .text          0x0000000000000000        0x0 drivers/spi/built-in.o
 .text.spi_set_wordlen
                0x0000000000000000       0x30 drivers/spi/built-in.o
 .text.spi_init
                0x0000000000000000        0x4 drivers/spi/built-in.o
 .data          0x0000000000000000        0x0 drivers/spi/built-in.o
 .bss           0x0000000000000000        0x0 drivers/spi/built-in.o
 .text          0x0000000000000000        0x0 drivers/usb/eth/built-in.o
 .text.is_eth_dev_on_usb_host
                0x0000000000000000       0x60 drivers/usb/eth/built-in.o
 .data          0x0000000000000000        0x0 drivers/usb/eth/built-in.o
 .bss           0x0000000000000000        0x0 drivers/usb/eth/built-in.o
 .text          0x0000000000000000        0x0 drivers/usb/host/built-in.o
 .text.ehci_set_controller_priv
                0x0000000000000000       0xa8 drivers/usb/host/built-in.o
 .text.ehci_get_controller_priv
                0x0000000000000000       0x18 drivers/usb/host/built-in.o
 .text.create_int_queue
                0x0000000000000000        0x4 drivers/usb/host/built-in.o
 .text.poll_int_queue
                0x0000000000000000        0x4 drivers/usb/host/built-in.o
 .text.destroy_int_queue
                0x0000000000000000        0x4 drivers/usb/host/built-in.o
 .text.board_usb_phy_mode
                0x0000000000000000        0x4 drivers/usb/host/built-in.o
 .text.board_ehci_hcd_init
                0x0000000000000000        0x8 drivers/usb/host/built-in.o
 .data          0x0000000000000000        0x0 drivers/usb/host/built-in.o
 .bss           0x0000000000000000        0x0 drivers/usb/host/built-in.o
 .text          0x0000000000000000        0x0 fs/built-in.o
 .text.fs_uuid  0x0000000000000000       0x28 fs/built-in.o
 .text.do_fs_uuid
                0x0000000000000000       0x8c fs/built-in.o
 .text.print_revoke_blks
                0x0000000000000000       0x58 fs/built-in.o
 .text.fat_register_device
                0x0000000000000000       0x88 fs/built-in.o
 .text.file_fat_read
                0x0000000000000000       0x38 fs/built-in.o
 .text.file_getfsname
                0x0000000000000000       0x14 fs/built-in.o
 .text.file_cd  0x0000000000000000      0x1bc fs/built-in.o
 .text.file_detectfs
                0x0000000000000000       0x40 fs/built-in.o
 .text.file_ls  0x0000000000000000       0x94 fs/built-in.o
 .text.file_read
                0x0000000000000000       0xa4 fs/built-in.o
 .rodata.filesystems
                0x0000000000000000       0x18 fs/built-in.o
 .data          0x0000000000000000        0x0 fs/built-in.o
 .data.file_cwd
                0x0000000000000000      0x200 fs/built-in.o
 .data.current_filesystem
                0x0000000000000000        0x4 fs/built-in.o
 .bss           0x0000000000000000        0x0 fs/built-in.o
 .bss.ext4fs_symlinknest
                0x0000000000000000        0x4 fs/built-in.o
 .text          0x0000000000000000        0x0 lib/built-in.o
 .text.inflateInit_
                0x0000000000000000       0x10 lib/built-in.o
 .text.fdt_first_subnode
                0x0000000000000000       0x34 lib/built-in.o
 .text.fdt_next_subnode
                0x0000000000000000       0x50 lib/built-in.o
 .text.fdt_get_phandle
                0x0000000000000000       0x70 lib/built-in.o
 .text.fdt_get_alias
                0x0000000000000000       0x28 lib/built-in.o
 .text.fdt_get_path
                0x0000000000000000      0x134 lib/built-in.o
 .text.fdt_parent_offset
                0x0000000000000000       0x30 lib/built-in.o
 .text.fdt_node_offset_by_prop_value
                0x0000000000000000       0x90 lib/built-in.o
 .text.fdt_node_offset_by_phandle
                0x0000000000000000       0x74 lib/built-in.o
 .text.fdt_stringlist_contains
                0x0000000000000000       0x7c lib/built-in.o
 .text.fdt_count_strings
                0x0000000000000000       0x58 lib/built-in.o
 .text.fdt_find_string
                0x0000000000000000       0x8c lib/built-in.o
 .text.fdt_get_string_index
                0x0000000000000000       0x64 lib/built-in.o
 .text.fdt_get_string
                0x0000000000000000       0x18 lib/built-in.o
 .text.fdt_node_check_compatible
                0x0000000000000000       0x40 lib/built-in.o
 .text.fdt_node_offset_by_compatible
                0x0000000000000000       0x6c lib/built-in.o
 .text.fdt_set_name
                0x0000000000000000       0x88 lib/built-in.o
 .text.fdt_appendprop
                0x0000000000000000       0xd8 lib/built-in.o
 .text.fdt_pack
                0x0000000000000000       0x5c lib/built-in.o
 .text.fdt_remove_unused_strings
                0x0000000000000000       0xb0 lib/built-in.o
 .text._fdt_sw_check_header
                0x0000000000000000       0x1c lib/built-in.o
 .text._fdt_grab_space
                0x0000000000000000       0x50 lib/built-in.o
 .text.fdt_create
                0x0000000000000000       0x64 lib/built-in.o
 .text.fdt_resize
                0x0000000000000000       0xb4 lib/built-in.o
 .text.fdt_add_reservemap_entry
                0x0000000000000000       0x90 lib/built-in.o
 .text.fdt_finish_reservemap
                0x0000000000000000       0x1c lib/built-in.o
 .text.fdt_begin_node
                0x0000000000000000       0x68 lib/built-in.o
 .text.fdt_end_node
                0x0000000000000000       0x40 lib/built-in.o
 .text.fdt_property
                0x0000000000000000      0x118 lib/built-in.o
 .text.fdt_finish
                0x0000000000000000      0x100 lib/built-in.o
 .text.fdt_setprop_inplace
                0x0000000000000000       0x44 lib/built-in.o
 .text.fdt_nop_property
                0x0000000000000000       0x3c lib/built-in.o
 .text.fdt_nop_node
                0x0000000000000000       0x50 lib/built-in.o
 .text.fdt_find_regions
                0x0000000000000000      0x3a0 lib/built-in.o
 .text.fdt_create_empty_tree
                0x0000000000000000       0x74 lib/built-in.o
 .text.fdt_add_region
                0x0000000000000000       0x98 lib/built-in.o
 .text.fdt_add_alias_regions
                0x0000000000000000      0x18c lib/built-in.o
 .text.fdt_next_region
                0x0000000000000000      0x52c lib/built-in.o
 .text.fdt_first_region
                0x0000000000000000       0x48 lib/built-in.o
 .text.crc7     0x0000000000000000       0x24 lib/built-in.o
 .text.crc8     0x0000000000000000       0x40 lib/built-in.o
 .text.lmb_dump_all
                0x0000000000000000        0x4 lib/built-in.o
 .text.lmb_is_reserved
                0x0000000000000000       0x5c lib/built-in.o
 .text.arch_lmb_reserve
                0x0000000000000000        0x4 lib/built-in.o
 .text.ldiv     0x0000000000000000       0x50 lib/built-in.o
 .text.rc4_encode
                0x0000000000000000       0xec lib/built-in.o
 .text.strmhz   0x0000000000000000       0x64 lib/built-in.o
 .text.merge    0x0000000000000000       0x68 lib/built-in.o
 .text.list_sort
                0x0000000000000000      0x194 lib/built-in.o
 .text.print_freq
                0x0000000000000000      0x1a8 lib/built-in.o
 .text.crc32_wd_buf
                0x0000000000000000       0x38 lib/built-in.o
 .text.copy_from_user
                0x0000000000000000       0x10 lib/built-in.o
 .text.kmalloc  0x0000000000000000       0x38 lib/built-in.o
 .text.get_mem  0x0000000000000000       0x1c lib/built-in.o
 .text.kmem_cache_alloc
                0x0000000000000000        0xc lib/built-in.o
 .text.membuff_purge
                0x0000000000000000       0x10 lib/built-in.o
 .text.membuff_putraw
                0x0000000000000000       0xc0 lib/built-in.o
 .text.membuff_putbyte
                0x0000000000000000       0x30 lib/built-in.o
 .text.membuff_getraw
                0x0000000000000000       0x98 lib/built-in.o
 .text.membuff_getbyte
                0x0000000000000000       0x34 lib/built-in.o
 .text.membuff_peekbyte
                0x0000000000000000       0x30 lib/built-in.o
 .text.membuff_get
                0x0000000000000000       0x80 lib/built-in.o
 .text.membuff_put
                0x0000000000000000       0x60 lib/built-in.o
 .text.membuff_isempty
                0x0000000000000000       0x18 lib/built-in.o
 .text.membuff_avail
                0x0000000000000000       0x54 lib/built-in.o
 .text.membuff_size
                0x0000000000000000        0xc lib/built-in.o
 .text.membuff_makecontig
                0x0000000000000000       0x80 lib/built-in.o
 .text.membuff_free
                0x0000000000000000       0x30 lib/built-in.o
 .text.membuff_readline
                0x0000000000000000       0xb8 lib/built-in.o
 .text.membuff_extend_by
                0x0000000000000000       0xc0 lib/built-in.o
 .text.membuff_init
                0x0000000000000000       0x18 lib/built-in.o
 .text.membuff_new
                0x0000000000000000       0x38 lib/built-in.o
 .text.membuff_uninit
                0x0000000000000000       0x18 lib/built-in.o
 .text.membuff_dispose
                0x0000000000000000       0x24 lib/built-in.o
 .text.strncasecmp
                0x0000000000000000       0x84 lib/built-in.o
 .text.strcasecmp
                0x0000000000000000        0x8 lib/built-in.o
 .text.strsep   0x0000000000000000       0x38 lib/built-in.o
 .text.strswab  0x0000000000000000       0x48 lib/built-in.o
 .text.bcopy    0x0000000000000000       0x24 lib/built-in.o
 .text.memscan  0x0000000000000000       0x2c lib/built-in.o
 .text.memchr_inv
                0x0000000000000000      0x13c lib/built-in.o
 .text.tick_to_time
                0x0000000000000000       0x64 lib/built-in.o
 .text.get_ticks
                0x0000000000000000       0x40 lib/built-in.o
 .text.timer_init
                0x0000000000000000        0x8 lib/built-in.o
 .text.get_timer
                0x0000000000000000       0x18 lib/built-in.o
 .text.timer_get_us
                0x0000000000000000       0x24 lib/built-in.o
 .text.__udelay
                0x0000000000000000       0x9c lib/built-in.o
 .text.vsnprintf
                0x0000000000000000        0x4 lib/built-in.o
 .text.scnprintf
                0x0000000000000000       0x28 lib/built-in.o
 .text.__assert_fail
                0x0000000000000000       0x14 lib/built-in.o
 .text.print_grouped_ull
                0x0000000000000000       0x8c lib/built-in.o
 .text.str2long
                0x0000000000000000       0x3c lib/built-in.o
 .text.panic_str
                0x0000000000000000        0xc lib/built-in.o
 .rodata.z_errmsg
                0x0000000000000000       0x28 lib/built-in.o
 .rodata.crc7_syndrome_table
                0x0000000000000000      0x100 lib/built-in.o
 .rodata.names.7468
                0x0000000000000000        0x3 lib/built-in.o
 .data          0x0000000000000000        0x0 lib/built-in.o
 .data.cur      0x0000000000000000        0x4 lib/built-in.o
 .data.current  0x0000000000000000        0x4 lib/built-in.o
 .bss           0x0000000000000000        0x0 lib/built-in.o
 .text          0x0000000000000000        0x0 net/built-in.o
 .text.add_ip_checksums
                0x0000000000000000       0x3c net/built-in.o
 .text.eth_is_active
                0x0000000000000000       0x18 net/built-in.o
 .text.net_get_udp_handler
                0x0000000000000000       0x10 net/built-in.o
 .text.net_set_arp_handler
                0x0000000000000000       0x20 net/built-in.o
 .text.random_port
                0x0000000000000000       0x18 net/built-in.o
 .text.vlan_to_string
                0x0000000000000000       0x44 net/built-in.o
 .text.getenv_vlan
                0x0000000000000000       0x10 net/built-in.o
 .data          0x0000000000000000        0x0 net/built-in.o
 .data.tftp_timeout_ms
                0x0000000000000000        0x4 net/built-in.o
 .bss           0x0000000000000000        0x0 net/built-in.o
 .bss.net_busy_flag
                0x0000000000000000        0x4 net/built-in.o
 .text          0x0000000000000000        0x0 test/dm/built-in.o
 .data          0x0000000000000000        0x0 test/dm/built-in.o
 .bss           0x0000000000000000        0x0 test/dm/built-in.o
 .text          0x0000000000000000        0x0 arch/arm/lib/eabi_compat.o
 .data          0x0000000000000000        0x0 arch/arm/lib/eabi_compat.o
 .bss           0x0000000000000000        0x0 arch/arm/lib/eabi_compat.o
 .text.__aeabi_unwind_cpp_pr0
                0x0000000000000000        0x4 arch/arm/lib/eabi_compat.o
 .text.__aeabi_unwind_cpp_pr1
                0x0000000000000000        0x4 arch/arm/lib/eabi_compat.o
 .text.__aeabi_memcpy
                0x0000000000000000        0x4 arch/arm/lib/eabi_compat.o
 .text.__aeabi_memset
                0x0000000000000000       0x10 arch/arm/lib/eabi_compat.o
 .data          0x0000000000000000        0x0 /usr/lib/gcc-cross/arm-linux-gnueabihf/5/libgcc.a(_udivsi3.o)
 .bss           0x0000000000000000        0x0 /usr/lib/gcc-cross/arm-linux-gnueabihf/5/libgcc.a(_udivsi3.o)
 .data          0x0000000000000000        0x0 /usr/lib/gcc-cross/arm-linux-gnueabihf/5/libgcc.a(_divsi3.o)
 .bss           0x0000000000000000        0x0 /usr/lib/gcc-cross/arm-linux-gnueabihf/5/libgcc.a(_divsi3.o)
 .data          0x0000000000000000        0x0 /usr/lib/gcc-cross/arm-linux-gnueabihf/5/libgcc.a(_lshrdi3.o)
 .bss           0x0000000000000000        0x0 /usr/lib/gcc-cross/arm-linux-gnueabihf/5/libgcc.a(_lshrdi3.o)
 .data          0x0000000000000000        0x0 /usr/lib/gcc-cross/arm-linux-gnueabihf/5/libgcc.a(_ashldi3.o)
 .bss           0x0000000000000000        0x0 /usr/lib/gcc-cross/arm-linux-gnueabihf/5/libgcc.a(_ashldi3.o)
 .data          0x0000000000000000        0x0 /usr/lib/gcc-cross/arm-linux-gnueabihf/5/libgcc.a(_dvmd_lnx.o)
 .bss           0x0000000000000000        0x0 /usr/lib/gcc-cross/arm-linux-gnueabihf/5/libgcc.a(_dvmd_lnx.o)

Memory Configuration

Name             Origin             Length             Attributes
*default*        0x0000000000000000 0xffffffffffffffff

Linker script and memory map

Address of section .text set to 0x87800000
                0x0000000000000000                . = 0x0
                0x0000000000000000                . = ALIGN (0x4)

.text           0x0000000087800000    0x3f8ec
 *(.__image_copy_start)
 .__image_copy_start
                0x0000000087800000        0x0 arch/arm/lib/built-in.o
                0x0000000087800000                __image_copy_start
 *(.vectors)
 .vectors       0x0000000087800000      0x2e8 arch/arm/lib/built-in.o
                0x0000000087800000                _start
                0x0000000087800020                _undefined_instruction
                0x0000000087800024                _software_interrupt
                0x0000000087800028                _prefetch_abort
                0x000000008780002c                _data_abort
                0x0000000087800030                _not_used
                0x0000000087800034                _irq
                0x0000000087800038                _fiq
                0x0000000087800040                IRQ_STACK_START_IN
 arch/arm/cpu/armv7/start.o(.text*)
 .text          0x00000000878002e8       0xb0 arch/arm/cpu/armv7/start.o
                0x00000000878002e8                reset
                0x00000000878002ec                save_boot_params_ret
                0x0000000087800328                c_runtime_cpu_setup
                0x0000000087800338                save_boot_params
                0x000000008780033c                cpu_init_cp15
                0x0000000087800390                cpu_init_crit
 *(.text*)
 .text          0x0000000087800398       0x24 arch/arm/cpu/armv7/built-in.o
                0x0000000087800398                lowlevel_init
 .text.v7_maint_dcache_all
                0x00000000878003bc       0xd0 arch/arm/cpu/armv7/built-in.o
 .text.invalidate_icache_all
                0x000000008780048c       0x18 arch/arm/cpu/armv7/built-in.o
                0x000000008780048c                invalidate_icache_all
 .text.v7_outer_cache_enable
                0x00000000878004a4        0x4 arch/arm/cpu/armv7/built-in.o
                0x00000000878004a4                v7_outer_cache_enable
 .text.v7_outer_cache_disable
                0x00000000878004a8        0x4 arch/arm/cpu/armv7/built-in.o
                0x00000000878004a8                v7_outer_cache_disable
 .text.v7_outer_cache_flush_all
                0x00000000878004ac        0x4 arch/arm/cpu/armv7/built-in.o
                0x00000000878004ac                v7_outer_cache_flush_all
 .text.flush_dcache_all
                0x00000000878004b0       0x14 arch/arm/cpu/armv7/built-in.o
                0x00000000878004b0                flush_dcache_all
 .text.v7_outer_cache_inval_all
                0x00000000878004c4        0x4 arch/arm/cpu/armv7/built-in.o
                0x00000000878004c4                v7_outer_cache_inval_all
 .text.invalidate_dcache_all
                0x00000000878004c8       0x14 arch/arm/cpu/armv7/built-in.o
                0x00000000878004c8                invalidate_dcache_all
 .text.arm_init_before_mmu
                0x00000000878004dc       0x28 arch/arm/cpu/armv7/built-in.o
                0x00000000878004dc                arm_init_before_mmu
 .text.v7_outer_cache_flush_range
                0x0000000087800504        0x4 arch/arm/cpu/armv7/built-in.o
                0x0000000087800504                v7_outer_cache_flush_range
 .text.flush_dcache_range
                0x0000000087800508       0x38 arch/arm/cpu/armv7/built-in.o
                0x0000000087800508                flush_dcache_range
 .text.mmu_page_table_flush
                0x0000000087800540       0x24 arch/arm/cpu/armv7/built-in.o
                0x0000000087800540                mmu_page_table_flush
 .text.v7_outer_cache_inval_range
                0x0000000087800564        0x4 arch/arm/cpu/armv7/built-in.o
                0x0000000087800564                v7_outer_cache_inval_range
 .text.invalidate_dcache_range
                0x0000000087800568       0xa8 arch/arm/cpu/armv7/built-in.o
                0x0000000087800568                invalidate_dcache_range
 .text.cpu_cache_initialization
                0x0000000087800610        0x4 arch/arm/cpu/armv7/built-in.o
                0x0000000087800610                cpu_cache_initialization
 .text.cleanup_before_linux_select
                0x0000000087800614       0x4c arch/arm/cpu/armv7/built-in.o
                0x0000000087800614                cleanup_before_linux_select
 .text.cleanup_before_linux
                0x0000000087800660        0x8 arch/arm/cpu/armv7/built-in.o
                0x0000000087800660                cleanup_before_linux
 .text.get_cpu_rev
                0x0000000087800668       0x90 arch/arm/cpu/armv7/built-in.o
                0x0000000087800668                get_cpu_rev
 .text.get_cpu_speed_grade_hz
                0x00000000878006f8      0x12c arch/arm/cpu/armv7/built-in.o
                0x00000000878006f8                get_cpu_speed_grade_hz
 .text.get_cpu_temp_grade
                0x0000000087800824       0x68 arch/arm/cpu/armv7/built-in.o
                0x0000000087800824                get_cpu_temp_grade
 .text.get_board_rev
                0x000000008780088c       0x40 arch/arm/cpu/armv7/built-in.o
                0x000000008780088c                get_board_rev
 .text.arch_cpu_init
                0x00000000878008cc      0x364 arch/arm/cpu/armv7/built-in.o
                0x00000000878008cc                arch_cpu_init
 .text.mmc_get_env_dev
                0x0000000087800c30       0x28 arch/arm/cpu/armv7/built-in.o
                0x0000000087800c30                mmc_get_env_dev
 .text.board_mmc_get_env_part
                0x0000000087800c58        0x8 arch/arm/cpu/armv7/built-in.o
                0x0000000087800c58                board_mmc_get_env_part
 .text.mmc_get_env_part
                0x0000000087800c60       0x28 arch/arm/cpu/armv7/built-in.o
                0x0000000087800c60                mmc_get_env_part
 .text.board_postclk_init
                0x0000000087800c88       0x70 arch/arm/cpu/armv7/built-in.o
                0x0000000087800c88                board_postclk_init
 .text.imx_get_mac_from_fuse
                0x0000000087800cf8       0xb8 arch/arm/cpu/armv7/built-in.o
                0x0000000087800cf8                imx_get_mac_from_fuse
 .text.set_wdog_reset
                0x0000000087800db0       0x18 arch/arm/cpu/armv7/built-in.o
                0x0000000087800db0                set_wdog_reset
 .text.reset_misc
                0x0000000087800dc8        0x4 arch/arm/cpu/armv7/built-in.o
                0x0000000087800dc8                reset_misc
 .text.s_init   0x0000000087800dcc       0xa8 arch/arm/cpu/armv7/built-in.o
                0x0000000087800dcc                s_init
 .text.disable_lcdif_clock
                0x0000000087800e74      0x208 arch/arm/cpu/armv7/built-in.o
 .text.get_ipg_clk
                0x000000008780107c       0x28 arch/arm/cpu/armv7/built-in.o
 .text.enable_pll_video.constprop.0
                0x00000000878010a4       0xf8 arch/arm/cpu/armv7/built-in.o
 .text.get_uart_clk
                0x000000008780119c       0xd8 arch/arm/cpu/armv7/built-in.o
 .text.mxc_get_pll_pfd
                0x0000000087801274       0xdc arch/arm/cpu/armv7/built-in.o
 .text.get_usdhc_clk
                0x0000000087801350       0xe8 arch/arm/cpu/armv7/built-in.o
 .text.enable_ocotp_clk
                0x0000000087801438       0x24 arch/arm/cpu/armv7/built-in.o
                0x0000000087801438                enable_ocotp_clk
 .text.enable_usboh3_clk
                0x000000008780145c       0x24 arch/arm/cpu/armv7/built-in.o
                0x000000008780145c                enable_usboh3_clk
 .text.enable_enet_clk
                0x0000000087801480       0x64 arch/arm/cpu/armv7/built-in.o
                0x0000000087801480                enable_enet_clk
 .text.enable_i2c_clk
                0x00000000878014e4       0xd8 arch/arm/cpu/armv7/built-in.o
                0x00000000878014e4                enable_i2c_clk
 .text.get_periph_clk
                0x00000000878015bc       0xdc arch/arm/cpu/armv7/built-in.o
                0x00000000878015bc                get_periph_clk
 .text.get_axi_clk
                0x0000000087801698       0x4c arch/arm/cpu/armv7/built-in.o
 .text.enable_lcdif_clock
                0x00000000878016e4      0x264 arch/arm/cpu/armv7/built-in.o
                0x00000000878016e4                enable_lcdif_clock
 .text.mxs_set_lcdclk
                0x0000000087801948      0x39c arch/arm/cpu/armv7/built-in.o
                0x0000000087801948                mxs_set_lcdclk
 .text.enable_qspi_clk
                0x0000000087801ce4       0x9c arch/arm/cpu/armv7/built-in.o
                0x0000000087801ce4                enable_qspi_clk
 .text.enable_fec_anatop_clock
                0x0000000087801d80       0xf4 arch/arm/cpu/armv7/built-in.o
                0x0000000087801d80                enable_fec_anatop_clock
 .text.imx_get_uartclk
                0x0000000087801e74        0x4 arch/arm/cpu/armv7/built-in.o
                0x0000000087801e74                imx_get_uartclk
 .text.enable_thermal_clk
                0x0000000087801e78       0x44 arch/arm/cpu/armv7/built-in.o
                0x0000000087801e78                enable_thermal_clk
 .text.mxc_get_clock
                0x0000000087801ebc      0x4bc arch/arm/cpu/armv7/built-in.o
                0x0000000087801ebc                mxc_get_clock
 .text.imx_get_fecclk
                0x0000000087802378        0x8 arch/arm/cpu/armv7/built-in.o
                0x0000000087802378                imx_get_fecclk
 .text.do_mx6_showclocks
                0x0000000087802380      0x230 arch/arm/cpu/armv7/built-in.o
                0x0000000087802380                do_mx6_showclocks
 .text.imx_iomux_v3_setup_pad
                0x00000000878025b0      0x17c arch/arm/imx-common/built-in.o
                0x00000000878025b0                imx_iomux_v3_setup_pad
 .text.imx_iomux_v3_setup_multiple_pads
                0x000000008780272c       0x2c arch/arm/imx-common/built-in.o
                0x000000008780272c                imx_iomux_v3_setup_multiple_pads
 .text.imx_ddr_size
                0x0000000087802758       0x64 arch/arm/imx-common/built-in.o
                0x0000000087802758                imx_ddr_size
 .text.get_imx_type
                0x00000000878027bc       0x20 arch/arm/imx-common/built-in.o
                0x00000000878027bc                get_imx_type
 .text.print_cpuinfo
                0x00000000878027dc      0x228 arch/arm/imx-common/built-in.o
                0x00000000878027dc                print_cpuinfo
 .text.cpu_eth_init
                0x0000000087802a04        0x4 arch/arm/imx-common/built-in.o
                0x0000000087802a04                cpu_eth_init
 .text.cpu_mmc_init
                0x0000000087802a08        0x4 arch/arm/imx-common/built-in.o
                0x0000000087802a08                cpu_mmc_init
 .text.get_ahb_clk
                0x0000000087802a0c       0x24 arch/arm/imx-common/built-in.o
                0x0000000087802a0c                get_ahb_clk
 .text.arch_preboot_os
                0x0000000087802a30        0x4 arch/arm/imx-common/built-in.o
                0x0000000087802a30                arch_preboot_os
 .text.get_clocks
                0x0000000087802a34       0x1c arch/arm/imx-common/built-in.o
                0x0000000087802a34                get_clocks
 .text.force_idle_bus
                0x0000000087802a50      0x1c4 arch/arm/imx-common/built-in.o
                0x0000000087802a50                force_idle_bus
 .text.setup_i2c
                0x0000000087802c14       0xe4 arch/arm/imx-common/built-in.o
                0x0000000087802c14                setup_i2c
 .text.mxs_wait_mask_set
                0x0000000087802cf8       0x3c arch/arm/imx-common/built-in.o
                0x0000000087802cf8                mxs_wait_mask_set
 .text.mxs_wait_mask_clr
                0x0000000087802d34       0x3c arch/arm/imx-common/built-in.o
                0x0000000087802d34                mxs_wait_mask_clr
 .text.mxs_reset_block
                0x0000000087802d70       0x90 arch/arm/imx-common/built-in.o
                0x0000000087802d70                mxs_reset_block
 .text.enable_caches
                0x0000000087802e00       0x34 arch/arm/imx-common/built-in.o
                0x0000000087802e00                enable_caches
 .text.init_aips
                0x0000000087802e34       0xc0 arch/arm/imx-common/built-in.o
                0x0000000087802e34                init_aips
 .text.imx_set_wdog_powerdown
                0x0000000087802ef4       0xa0 arch/arm/imx-common/built-in.o
                0x0000000087802ef4                imx_set_wdog_powerdown
 .text.init_src
                0x0000000087802f94       0x18 arch/arm/imx-common/built-in.o
                0x0000000087802f94                init_src
 .text.boot_mode_apply
                0x0000000087802fac       0x24 arch/arm/imx-common/built-in.o
                0x0000000087802fac                boot_mode_apply
 .text.board_video_skip
                0x0000000087802fd0      0x1a4 arch/arm/imx-common/built-in.o
                0x0000000087802fd0                board_video_skip
 .text.timer_init
                0x0000000087803174       0x3c arch/arm/imx-common/built-in.o
                0x0000000087803174                timer_init
 .text.get_ticks
                0x00000000878031b0       0x18 arch/arm/imx-common/built-in.o
                0x00000000878031b0                get_ticks
 .text.get_timer_masked
                0x00000000878031c8       0x58 arch/arm/imx-common/built-in.o
                0x00000000878031c8                get_timer_masked
 .text.get_timer
                0x0000000087803220       0x14 arch/arm/imx-common/built-in.o
                0x0000000087803220                get_timer
 *fill*         0x0000000087803234        0x4 
 .text.__udelay
                0x0000000087803238       0x88 arch/arm/imx-common/built-in.o
                0x0000000087803238                __udelay
 .text.get_tbclk
                0x00000000878032c0        0x8 arch/arm/imx-common/built-in.o
                0x00000000878032c0                get_tbclk
 .text.create_usage
                0x00000000878032c8       0xac arch/arm/imx-common/built-in.o
 .text.do_boot_mode
                0x0000000087803374       0xd4 arch/arm/imx-common/built-in.o
 .text.add_board_boot_modes
                0x0000000087803448       0x60 arch/arm/imx-common/built-in.o
                0x0000000087803448                add_board_boot_modes
 .text          0x00000000878034a8       0x90 arch/arm/lib/built-in.o
                0x00000000878034a8                _main
 .text.relocate_vectors
                0x0000000087803538       0x70 arch/arm/lib/built-in.o
                0x0000000087803538                relocate_vectors
                0x0000000087803544                relocate_code
 .text.arch_fixup_fdt
                0x00000000878035a8       0x38 arch/arm/lib/built-in.o
                0x00000000878035a8                arch_fixup_fdt
 .text.boot_jump_linux
                0x00000000878035e0       0xc4 arch/arm/lib/built-in.o
 .text.arch_lmb_reserve
                0x00000000878036a4       0x24 arch/arm/lib/built-in.o
                0x00000000878036a4                arch_lmb_reserve
 .text.setup_board_tags
                0x00000000878036c8        0x4 arch/arm/lib/built-in.o
                0x00000000878036c8                setup_board_tags
 .text.boot_prep_linux
                0x00000000878036cc      0x1b8 arch/arm/lib/built-in.o
 .text.do_bootm_linux
                0x0000000087803884       0x64 arch/arm/lib/built-in.o
                0x0000000087803884                do_bootm_linux
 .text.bootz_setup
                0x00000000878038e8       0x58 arch/arm/lib/built-in.o
                0x00000000878038e8                bootz_setup
 .text.boot_prep_vxworks
                0x0000000087803940       0x50 arch/arm/lib/built-in.o
                0x0000000087803940                boot_prep_vxworks
 .text.boot_jump_vxworks
                0x0000000087803990        0xc arch/arm/lib/built-in.o
                0x0000000087803990                boot_jump_vxworks
 .text.arch_reserve_stacks
                0x000000008780399c       0x1c arch/arm/lib/built-in.o
                0x000000008780399c                arch_reserve_stacks
 .text.interrupt_init
                0x00000000878039b8       0x1c arch/arm/lib/built-in.o
                0x00000000878039b8                interrupt_init
 .text.enable_interrupts
                0x00000000878039d4        0x4 arch/arm/lib/built-in.o
                0x00000000878039d4                enable_interrupts
 .text.disable_interrupts
                0x00000000878039d8        0x8 arch/arm/lib/built-in.o
                0x00000000878039d8                disable_interrupts
 .text.bad_mode
                0x00000000878039e0       0x10 arch/arm/lib/built-in.o
                0x00000000878039e0                bad_mode
 .text.show_regs
                0x00000000878039f0      0x174 arch/arm/lib/built-in.o
                0x00000000878039f0                show_regs
 .text.do_undefined_instruction
                0x0000000087803b64       0x20 arch/arm/lib/built-in.o
                0x0000000087803b64                do_undefined_instruction
 .text.do_software_interrupt
                0x0000000087803b84       0x20 arch/arm/lib/built-in.o
                0x0000000087803b84                do_software_interrupt
 .text.do_prefetch_abort
                0x0000000087803ba4       0x20 arch/arm/lib/built-in.o
                0x0000000087803ba4                do_prefetch_abort
 .text.do_data_abort
                0x0000000087803bc4       0x20 arch/arm/lib/built-in.o
                0x0000000087803bc4                do_data_abort
 .text.do_not_used
                0x0000000087803be4       0x20 arch/arm/lib/built-in.o
                0x0000000087803be4                do_not_used
 .text.do_fiq   0x0000000087803c04       0x20 arch/arm/lib/built-in.o
                0x0000000087803c04                do_fiq
 .text.do_irq   0x0000000087803c24       0x20 arch/arm/lib/built-in.o
                0x0000000087803c24                do_irq
 .text.do_reset
                0x0000000087803c44       0x30 arch/arm/lib/built-in.o
                0x0000000087803c44                do_reset
 .text.flush_cache
                0x0000000087803c74        0x8 arch/arm/lib/built-in.o
                0x0000000087803c74                flush_cache
 .text.cp_delay
                0x0000000087803c7c       0x30 arch/arm/lib/built-in.o
 .text.arm_init_domains
                0x0000000087803cac        0x4 arch/arm/lib/built-in.o
                0x0000000087803cac                arm_init_domains
 .text.set_section_dcache
                0x0000000087803cb0       0x14 arch/arm/lib/built-in.o
                0x0000000087803cb0                set_section_dcache
 .text.mmu_set_region_dcache_behaviour
                0x0000000087803cc4       0x4c arch/arm/lib/built-in.o
                0x0000000087803cc4                mmu_set_region_dcache_behaviour
 .text.dram_bank_mmu_setup
                0x0000000087803d10       0x44 arch/arm/lib/built-in.o
                0x0000000087803d10                dram_bank_mmu_setup
 .text.icache_enable
                0x0000000087803d54       0x18 arch/arm/lib/built-in.o
                0x0000000087803d54                icache_enable
 .text.icache_disable
                0x0000000087803d6c       0x20 arch/arm/lib/built-in.o
                0x0000000087803d6c                icache_disable
 .text.icache_status
                0x0000000087803d8c        0xc arch/arm/lib/built-in.o
                0x0000000087803d8c                icache_status
 .text.dcache_enable
                0x0000000087803d98       0x7c arch/arm/lib/built-in.o
                0x0000000087803d98                dcache_enable
 .text.dcache_disable
                0x0000000087803e14       0x2c arch/arm/lib/built-in.o
                0x0000000087803e14                dcache_disable
 .text.dcache_status
                0x0000000087803e40        0xc arch/arm/lib/built-in.o
                0x0000000087803e40                dcache_status
 .text.board_late_mmc_env_init
                0x0000000087803e4c       0x9c board/freescale/common/built-in.o
                0x0000000087803e4c                board_late_mmc_env_init
 .text.do_enable_parallel_lcd
                0x0000000087803ee8       0x2c board/freescale/mx6ullevk/built-in.o
                0x0000000087803ee8                do_enable_parallel_lcd
 .text.power_init_board
                0x0000000087803f14        0x8 board/freescale/mx6ullevk/built-in.o
                0x0000000087803f14                power_init_board
 .text.dram_init
                0x0000000087803f1c       0x18 board/freescale/mx6ullevk/built-in.o
                0x0000000087803f1c                dram_init
 .text.board_mmc_get_env_dev
                0x0000000087803f34        0x4 board/freescale/mx6ullevk/built-in.o
                0x0000000087803f34                board_mmc_get_env_dev
 .text.mmc_map_to_kernel_blk
                0x0000000087803f38        0x4 board/freescale/mx6ullevk/built-in.o
                0x0000000087803f38                mmc_map_to_kernel_blk
 .text.board_mmc_getcd
                0x0000000087803f3c       0x44 board/freescale/mx6ullevk/built-in.o
                0x0000000087803f3c                board_mmc_getcd
 .text.board_mmc_init
                0x0000000087803f80       0xc0 board/freescale/mx6ullevk/built-in.o
                0x0000000087803f80                board_mmc_init
 .text.board_usb_phy_mode
                0x0000000087804040       0x14 board/freescale/mx6ullevk/built-in.o
                0x0000000087804040                board_usb_phy_mode
 .text.board_ehci_hcd_init
                0x0000000087804054       0x28 board/freescale/mx6ullevk/built-in.o
                0x0000000087804054                board_ehci_hcd_init
 .text.board_eth_init
                0x000000008780407c       0x60 board/freescale/mx6ullevk/built-in.o
                0x000000008780407c                board_eth_init
 .text.board_phy_config
                0x00000000878040dc       0x4c board/freescale/mx6ullevk/built-in.o
                0x00000000878040dc                board_phy_config
 .text.board_early_init_f
                0x0000000087804128       0x1c board/freescale/mx6ullevk/built-in.o
                0x0000000087804128                board_early_init_f
 .text.select_display_dev
                0x0000000087804144      0x170 board/freescale/mx6ullevk/built-in.o
                0x0000000087804144                select_display_dev
 .text.imx6_light_up_led1
                0x00000000878042b4       0x18 board/freescale/mx6ullevk/built-in.o
                0x00000000878042b4                imx6_light_up_led1
 .text.imx6_light_up_led2
                0x00000000878042cc       0x18 board/freescale/mx6ullevk/built-in.o
                0x00000000878042cc                imx6_light_up_led2
 .text.board_init
                0x00000000878042e4      0x1a8 board/freescale/mx6ullevk/built-in.o
                0x00000000878042e4                board_init
 .text.board_late_init
                0x000000008780448c       0x50 board/freescale/mx6ullevk/built-in.o
                0x000000008780448c                board_late_init
 .text.checkboard
                0x00000000878044dc       0x18 board/freescale/mx6ullevk/built-in.o
                0x00000000878044dc                checkboard
 .text.do_go_exec
                0x00000000878044f4       0x10 cmd/built-in.o
                0x00000000878044f4                do_go_exec
 .text.do_go    0x0000000087804504       0x6c cmd/built-in.o
 .text.do_bootm
                0x0000000087804570      0x10c cmd/built-in.o
                0x0000000087804570                do_bootm
 .text.do_bootd
                0x000000008780467c       0x20 cmd/built-in.o
                0x000000008780467c                do_bootd
 .text.image_info
                0x000000008780469c       0xcc cmd/built-in.o
 .text.do_iminfo
                0x0000000087804768       0x5c cmd/built-in.o
 .text.bootm_maybe_autostart
                0x00000000878047c4       0x78 cmd/built-in.o
                0x00000000878047c4                bootm_maybe_autostart
 .text.do_bootz
                0x000000008780483c       0xf8 cmd/built-in.o
                0x000000008780483c                do_bootz
 .text.do_help  0x0000000087804934       0x44 cmd/built-in.o
 .text.do_version
                0x0000000087804978       0x38 cmd/built-in.o
 .text.source   0x00000000878049b0       0xd8 cmd/built-in.o
                0x00000000878049b0                source
 .text.do_source
                0x0000000087804a88       0x48 cmd/built-in.o
 .text.print_num
                0x0000000087804ad0       0x14 cmd/built-in.o
 .text.do_bdinfo
                0x0000000087804ae4      0x198 cmd/built-in.o
 .text.do_bmp   0x0000000087804c7c       0x58 cmd/built-in.o
 .text.do_bmp_info
                0x0000000087804cd4      0x10c cmd/built-in.o
 .text.bmp_display
                0x0000000087804de0       0x50 cmd/built-in.o
                0x0000000087804de0                bmp_display
 .text.do_bmp_display
                0x0000000087804e30       0xbc cmd/built-in.o
 .text.parse_argv
                0x0000000087804eec       0x64 cmd/built-in.o
 .text.do_icache
                0x0000000087804f50       0x88 cmd/built-in.o
 .text.do_dcache
                0x0000000087804fd8       0x88 cmd/built-in.o
 .text.do_coninfo
                0x0000000087805060       0xb0 cmd/built-in.o
 .text.do_echo  0x0000000087805110       0xb4 cmd/built-in.o
 .text.load_elf_image_shdr
                0x00000000878051c4       0x8c cmd/built-in.o
 .text.valid_elf_image
                0x0000000087805250       0x4c cmd/built-in.o
                0x0000000087805250                valid_elf_image
 .text.do_bootelf
                0x000000008780529c      0x1b0 cmd/built-in.o
                0x000000008780529c                do_bootelf
 .text.do_bootvx
                0x000000008780544c      0x330 cmd/built-in.o
                0x000000008780544c                do_bootvx
 .text.do_exit  0x000000008780577c       0x48 cmd/built-in.o
 .text.do_ext4_size
                0x00000000878057c4       0x18 cmd/built-in.o
                0x00000000878057c4                do_ext4_size
 .text.do_ext4_load
                0x00000000878057dc       0x18 cmd/built-in.o
                0x00000000878057dc                do_ext4_load
 .text.do_ext4_ls
                0x00000000878057f4       0x18 cmd/built-in.o
                0x00000000878057f4                do_ext4_ls
 .text.do_ext4_write
                0x000000008780580c       0x18 cmd/built-in.o
                0x000000008780580c                do_ext4_write
 .text.do_ext2load
                0x0000000087805824       0x18 cmd/built-in.o
                0x0000000087805824                do_ext2load
 .text.do_ext2ls
                0x000000008780583c       0x18 cmd/built-in.o
 .text.do_fat_size
                0x0000000087805854       0x18 cmd/built-in.o
                0x0000000087805854                do_fat_size
 .text.do_fat_fsload
                0x000000008780586c       0x18 cmd/built-in.o
                0x000000008780586c                do_fat_fsload
 .text.do_fat_ls
                0x0000000087805884       0x18 cmd/built-in.o
 .text.do_fat_fsinfo
                0x000000008780589c       0x90 cmd/built-in.o
 .text.do_fat_fswrite
                0x000000008780592c      0x10c cmd/built-in.o
 .text.fdt_valid
                0x0000000087805a38       0xbc cmd/built-in.o
 .text.is_printable_string
                0x0000000087805af4       0xa8 cmd/built-in.o
 .text.print_data
                0x0000000087805b9c      0x178 cmd/built-in.o
 .text.set_working_fdt_addr
                0x0000000087805d14       0x1c cmd/built-in.o
                0x0000000087805d14                set_working_fdt_addr
 .text.do_fdt   0x0000000087805d30      0xe50 cmd/built-in.o
 .text.do_flerase
                0x0000000087806b80        0x8 cmd/built-in.o
 .text.do_protect
                0x0000000087806b88       0x10 cmd/built-in.o
 .text.do_flinfo
                0x0000000087806b98        0x8 cmd/built-in.o
 .text.do_size_wrapper
                0x0000000087806ba0       0x18 cmd/built-in.o
 .text.do_load_wrapper
                0x0000000087806bb8       0x18 cmd/built-in.o
 .text.do_save_wrapper
                0x0000000087806bd0       0x18 cmd/built-in.o
 .text.do_ls_wrapper
                0x0000000087806be8       0x18 cmd/built-in.o
 .text.do_fstype_wrapper
                0x0000000087806c00        0x4 cmd/built-in.o
 .text.strtou32
                0x0000000087806c04       0x44 cmd/built-in.o
 .text.do_fuse  0x0000000087806c48      0x374 cmd/built-in.o
 .text.name_to_gpio
                0x0000000087806fbc        0xc cmd/built-in.o
                0x0000000087806fbc                name_to_gpio
 .text.do_gpio  0x0000000087806fc8      0x154 cmd/built-in.o
 .text.do_i2c   0x000000008780711c       0x68 cmd/built-in.o
 .text.do_i2c_bus_speed
                0x0000000087807184       0x78 cmd/built-in.o
 .text.do_i2c_reset
                0x00000000878071fc       0x2c cmd/built-in.o
 .text.do_i2c_probe
                0x0000000087807228       0xa0 cmd/built-in.o
 .text.do_i2c_bus_num
                0x00000000878072c8       0xb8 cmd/built-in.o
 .text.do_i2c_show_bus
                0x0000000087807380       0xd8 cmd/built-in.o
 .text.get_alen.constprop.5
                0x0000000087807458       0x3c cmd/built-in.o
 .text.do_i2c_crc
                0x0000000087807494      0x120 cmd/built-in.o
 .text.mod_i2c_mem.isra.3
                0x00000000878075b4      0x1f0 cmd/built-in.o
 .text.do_i2c_nm
                0x00000000878077a4        0x8 cmd/built-in.o
 .text.do_i2c_mm
                0x00000000878077ac        0x8 cmd/built-in.o
 .text.do_i2c_md
                0x00000000878077b4      0x1e4 cmd/built-in.o
 .text.do_i2c_read
                0x0000000087807998       0xbc cmd/built-in.o
 .text.do_i2c_mw
                0x0000000087807a54       0xfc cmd/built-in.o
 .text.do_i2c_write
                0x0000000087807b50      0x14c cmd/built-in.o
 .text.do_i2c_loop
                0x0000000087807c9c       0xec cmd/built-in.o
 .text.i2c_init_board
                0x0000000087807d88        0x4 cmd/built-in.o
                0x0000000087807d88                i2c_init_board
 .text.evalexp  0x0000000087807d8c       0x78 cmd/built-in.o
 .text.evalstr  0x0000000087807e04       0x6c cmd/built-in.o
 .text.binary_test
                0x0000000087807e70      0x1c0 cmd/built-in.o
 .text.do_itest
                0x0000000087808030       0x88 cmd/built-in.o
 .text.bin_data_init
                0x00000000878080b8       0x2c cmd/built-in.o
 .text.k_data_save
                0x00000000878080e4       0x4c cmd/built-in.o
 .text.k_data_restore
                0x0000000087808130       0x4c cmd/built-in.o
 .text.getcxmodem
                0x000000008780817c       0x20 cmd/built-in.o
 .text.load_serial_ymodem
                0x000000008780819c       0xcc cmd/built-in.o
 .text.bin_data_char
                0x0000000087808268       0x2c cmd/built-in.o
 .text.chk1.constprop.1
                0x0000000087808294       0x2c cmd/built-in.o
 .text.s1_sendpacket.constprop.2
                0x00000000878082c0       0x50 cmd/built-in.o
 .text.load_serial
                0x0000000087808310      0x1f0 cmd/built-in.o
 .text.do_load_serial
                0x0000000087808500       0xdc cmd/built-in.o
 .text.do_load_serial_bin
                0x00000000878085dc      0x7a0 cmd/built-in.o
 .text.do_mem_mw
                0x0000000087808d7c       0xc0 cmd/built-in.o
 .text.do_mem_loop
                0x0000000087808e3c       0xec cmd/built-in.o
 .text.do_mem_md
                0x0000000087808f28       0xe4 cmd/built-in.o
 .text.do_mem_cmp
                0x000000008780900c      0x168 cmd/built-in.o
 .text.do_mem_base
                0x0000000087809174       0x40 cmd/built-in.o
 .text.do_mem_cp
                0x00000000878091b4       0xd8 cmd/built-in.o
 .text.do_mem_crc
                0x000000008780928c       0x48 cmd/built-in.o
 .text.do_mem_mtest
                0x00000000878092d4      0x224 cmd/built-in.o
 .text.mod_mem.isra.0
                0x00000000878094f8      0x174 cmd/built-in.o
 .text.do_mem_mm
                0x000000008780966c        0x8 cmd/built-in.o
 .text.do_mem_nm
                0x0000000087809674        0x8 cmd/built-in.o
 .text.extract_range
                0x000000008780967c       0xe4 cmd/built-in.o
 .text.do_mii   0x0000000087809760      0x904 cmd/built-in.o
 .text.do_mdio  0x000000008780a064      0x4ec cmd/built-in.o
 .text.do_sleep
                0x000000008780a550       0x70 cmd/built-in.o
 .text.do_mmcops
                0x000000008780a5c0       0xb8 cmd/built-in.o
 .text.init_mmc_device
                0x000000008780a678       0x54 cmd/built-in.o
 .text.do_mmc_rescan
                0x000000008780a6cc       0x24 cmd/built-in.o
 .text.do_mmc_rst_func
                0x000000008780a6f0       0xa0 cmd/built-in.o
 .text.do_mmc_partconf
                0x000000008780a790       0xb4 cmd/built-in.o
 .text.do_mmc_boot_resize
                0x000000008780a844       0xcc cmd/built-in.o
 .text.do_mmc_bootbus
                0x000000008780a910       0xb4 cmd/built-in.o
 .text.do_mmc_hwpartition
                0x000000008780a9c4      0x518 cmd/built-in.o
 .text.do_mmc_list
                0x000000008780aedc       0x14 cmd/built-in.o
 .text.do_mmc_dev
                0x000000008780aef0      0x134 cmd/built-in.o
 .text.do_mmc_part
                0x000000008780b024       0x5c cmd/built-in.o
 .text.do_mmc_erase
                0x000000008780b080       0xe8 cmd/built-in.o
 .text.do_mmc_write
                0x000000008780b168      0x100 cmd/built-in.o
 .text.do_mmc_read
                0x000000008780b268       0xec cmd/built-in.o
 .text.do_mmcinfo
                0x000000008780b354      0x374 cmd/built-in.o
 .text.do_mmc_setdsr
                0x000000008780b6c8       0xb0 cmd/built-in.o
 .text.netboot_common
                0x000000008780b778      0x294 cmd/built-in.o
 .text.do_bootp
                0x000000008780ba0c        0xc cmd/built-in.o
 .text.do_dhcp  0x000000008780ba18        0xc cmd/built-in.o
 .text.do_nfs   0x000000008780ba24        0xc cmd/built-in.o
 .text.do_tftpb
                0x000000008780ba30       0x40 cmd/built-in.o
                0x000000008780ba30                do_tftpb
 .text.do_ping  0x000000008780ba70       0x78 cmd/built-in.o
 .text.bytes_per_second
                0x000000008780bae8       0x50 cmd/built-in.o
 .text.do_spi_flash
                0x000000008780bb38      0x864 cmd/built-in.o
 .text.substitute
                0x000000008780c39c       0xf0 cmd/built-in.o
 .text.get_arg  0x000000008780c48c       0x58 cmd/built-in.o
 .text.regex_sub
                0x000000008780c4e4      0x450 cmd/built-in.o
 .text.do_setexpr
                0x000000008780c934      0x1a0 cmd/built-in.o
 .text.do_false
                0x000000008780cad4        0x8 cmd/built-in.o
 .text.do_true  0x000000008780cadc        0x8 cmd/built-in.o
 .text.do_test  0x000000008780cae4      0x338 cmd/built-in.o
 .text.usb_get_class_desc
                0x000000008780ce1c       0xbc cmd/built-in.o
 .text.usb_find_device
                0x000000008780ced8       0x3c cmd/built-in.o
 .text.usb_show_tree_graph
                0x000000008780cf14      0x234 cmd/built-in.o
 .text.usb_display_class_sub
                0x000000008780d148      0x170 cmd/built-in.o
 .text.usb_display_string
                0x000000008780d2b8       0x44 cmd/built-in.o
 .text.usb_display_config
                0x000000008780d2fc      0x20c cmd/built-in.o
 .text.do_usbboot
                0x000000008780d508        0xc cmd/built-in.o
 .text.usb_display_desc.part.1
                0x000000008780d514      0x12c cmd/built-in.o
 .text.do_usb_start
                0x000000008780d640       0x38 cmd/built-in.o
 .text.usb_show_tree
                0x000000008780d678       0x54 cmd/built-in.o
                0x000000008780d678                usb_show_tree
 .text.do_usb   0x000000008780d6cc      0x754 cmd/built-in.o
 .text.do_imgextract
                0x000000008780de20      0x290 cmd/built-in.o
 .text.do_env_delete
                0x000000008780e0b0       0xa0 cmd/built-in.o
 .text.do_env_exists
                0x000000008780e150       0x64 cmd/built-in.o
 .text.do_env_save
                0x000000008780e1b4       0x2c cmd/built-in.o
 .text.do_env   0x000000008780e1e0       0x68 cmd/built-in.o
 .text.env_print
                0x000000008780e248       0xc0 cmd/built-in.o
 .text.do_env_print
                0x000000008780e308       0xc8 cmd/built-in.o
 .text.do_env_import
                0x000000008780e3d0      0x284 cmd/built-in.o
 .text.do_env_default
                0x000000008780e654       0xa8 cmd/built-in.o
 .text._do_env_set.isra.0
                0x000000008780e6fc      0x1bc cmd/built-in.o
 .text.do_env_set
                0x000000008780e8b8       0x20 cmd/built-in.o
 .text.get_env_id
                0x000000008780e8d8       0x10 cmd/built-in.o
                0x000000008780e8d8                get_env_id
 .text.setenv   0x000000008780e8e8       0x60 cmd/built-in.o
                0x000000008780e8e8                setenv
 .text.setenv_ulong
                0x000000008780e948       0x20 cmd/built-in.o
                0x000000008780e948                setenv_ulong
 .text.setenv_hex
                0x000000008780e968       0x34 cmd/built-in.o
                0x000000008780e968                setenv_hex
 .text.do_env_export
                0x000000008780e99c      0x258 cmd/built-in.o
 .text.envmatch
                0x000000008780ebf4       0x6c cmd/built-in.o
                0x000000008780ebf4                envmatch
 .text.getenv_f
                0x000000008780ec60       0xc0 cmd/built-in.o
                0x000000008780ec60                getenv_f
 .text.getenv   0x000000008780ed20       0x78 cmd/built-in.o
                0x000000008780ed20                getenv
 .text.getenv_hex
                0x000000008780ed98       0x3c cmd/built-in.o
                0x000000008780ed98                getenv_hex
 .text.getenv_ulong
                0x000000008780edd4       0x30 cmd/built-in.o
                0x000000008780edd4                getenv_ulong
 .text.do_env_edit.part.2
                0x000000008780ee04       0xa4 cmd/built-in.o
 .text.do_env_edit
                0x000000008780eea8       0x2c cmd/built-in.o
 .text.common_diskboot
                0x000000008780eed4      0x238 cmd/built-in.o
                0x000000008780eed4                common_diskboot
 .text.board_init_f_alloc_reserve
                0x000000008780f10c       0x10 common/built-in.o
                0x000000008780f10c                board_init_f_alloc_reserve
 .text.board_init_f_init_reserve
                0x000000008780f11c       0x20 common/built-in.o
                0x000000008780f11c                board_init_f_init_reserve
 .text.show_boot_progress
                0x000000008780f13c        0x4 common/built-in.o
                0x000000008780f13c                show_boot_progress
 .text.main_loop
                0x000000008780f140       0x20 common/built-in.o
                0x000000008780f140                main_loop
 .text.dummy    0x000000008780f160        0x4 common/built-in.o
 .text.get_version
                0x000000008780f164        0x8 common/built-in.o
                0x000000008780f164                get_version
 .text.jumptable_init
                0x000000008780f16c      0x1e0 common/built-in.o
                0x000000008780f16c                jumptable_init
 .text.hash_command
                0x000000008780f34c       0xb4 common/built-in.o
                0x000000008780f34c                hash_command
 .text.b_reset  0x000000008780f400       0x1c common/built-in.o
 .text.static_get
                0x000000008780f41c       0x1c common/built-in.o
 .text.file_peek
                0x000000008780f438        0xc common/built-in.o
 .text.mapset   0x000000008780f444       0x20 common/built-in.o
 .text.syntax_err
                0x000000008780f464        0xc common/built-in.o
 .text.free_pipe_list
                0x000000008780f470       0xf4 common/built-in.o
 .text.xmalloc  0x000000008780f564       0x20 common/built-in.o
 .text.new_pipe
                0x000000008780f584       0x28 common/built-in.o
 .text.xrealloc
                0x000000008780f5ac       0x20 common/built-in.o
 .text.done_command
                0x000000008780f5cc       0x88 common/built-in.o
 .text.done_pipe
                0x000000008780f654       0x48 common/built-in.o
 .text.done_word
                0x000000008780f69c      0x2e4 common/built-in.o
 .text.do_showvar
                0x000000008780f980      0x100 common/built-in.o
 .text.is_assignment
                0x000000008780fa80       0x5c common/built-in.o
 .text.file_get
                0x000000008780fadc      0x1ec common/built-in.o
 .text.b_addchr
                0x000000008780fcc8       0x80 common/built-in.o
 .text.b_addqchr
                0x000000008780fd48       0x50 common/built-in.o
 .text.static_peek
                0x000000008780fd98        0xc common/built-in.o
 .text.get_local_var
                0x000000008780fda4       0xa0 common/built-in.o
                0x000000008780fda4                get_local_var
 .text.set_local_var
                0x000000008780fe44      0x1bc common/built-in.o
                0x000000008780fe44                set_local_var
 .text.insert_var_value_sub
                0x0000000087810000      0x2c0 common/built-in.o
 .text.parse_string_outer
                0x00000000878102c0       0xe4 common/built-in.o
                0x00000000878102c0                parse_string_outer
 .text.run_list_real
                0x00000000878103a4      0x7c0 common/built-in.o
 .text.parse_stream_outer
                0x0000000087810b64      0x6d0 common/built-in.o
 .text.parse_file_outer
                0x0000000087811234       0x44 common/built-in.o
                0x0000000087811234                parse_file_outer
 .text.u_boot_hush_start
                0x0000000087811278       0x54 common/built-in.o
                0x0000000087811278                u_boot_hush_start
 .text.bootdelay_process
                0x00000000878112cc       0xd0 common/built-in.o
                0x00000000878112cc                bootdelay_process
 .text.autoboot_command
                0x000000008781139c       0xd4 common/built-in.o
                0x000000008781139c                autoboot_command
 .text.setup_mon_len
                0x0000000087811470       0x20 common/built-in.o
 .text.reserve_round_4k
                0x0000000087811490       0x18 common/built-in.o
 .text.reserve_mmu
                0x00000000878114a8       0x38 common/built-in.o
 .text.reserve_uboot
                0x00000000878114e0       0x30 common/built-in.o
 .text.reserve_malloc
                0x0000000087811510       0x18 common/built-in.o
 .text.reserve_global_data
                0x0000000087811528       0x1c common/built-in.o
 .text.reserve_fdt
                0x0000000087811544       0x4c common/built-in.o
 .text.initf_console_record
                0x0000000087811590        0x8 common/built-in.o
 .text.arch_cpu_init_dm
                0x0000000087811598        0x8 common/built-in.o
                0x0000000087811598                arch_cpu_init_dm
 .text.announce_dram_init
                0x00000000878115a0       0x18 common/built-in.o
 .text.init_func_i2c
                0x00000000878115b8       0x28 common/built-in.o
 .text.init_baud_rate
                0x00000000878115e0       0x2c common/built-in.o
 .text.mark_bootstage
                0x000000008781160c       0x14 common/built-in.o
 .text.initf_dm
                0x0000000087811620        0x8 common/built-in.o
 .text.setup_reloc
                0x0000000087811628       0x40 common/built-in.o
 .text.reloc_fdt
                0x0000000087811668       0x44 common/built-in.o
 .text.reserve_board
                0x00000000878116ac       0x40 common/built-in.o
 .text.reserve_arch
                0x00000000878116ec        0x8 common/built-in.o
                0x00000000878116ec                reserve_arch
 .text.display_text_info
                0x00000000878116f4        0x8 common/built-in.o
 .text.reserve_trace
                0x00000000878116fc        0x8 common/built-in.o
 .text.setup_machine
                0x0000000087811704        0x8 common/built-in.o
 .text.display_new_sp
                0x000000008781170c        0x8 common/built-in.o
 .text.coloured_LED_init
                0x0000000087811714        0x4 common/built-in.o
                0x0000000087811714                coloured_LED_init
 .text.red_led_on
                0x0000000087811718        0x4 common/built-in.o
                0x0000000087811718                red_led_on
 .text.board_add_ram_info
                0x000000008781171c        0x4 common/built-in.o
                0x000000008781171c                board_add_ram_info
 .text.show_dram_config
                0x0000000087811720       0x38 common/built-in.o
 .text.dram_init_banksize
                0x0000000087811758       0x20 common/built-in.o
                0x0000000087811758                dram_init_banksize
 .text.setup_dram_config
                0x0000000087811778       0x10 common/built-in.o
 .text.board_get_usable_ram_top
                0x0000000087811788       0x14 common/built-in.o
                0x0000000087811788                board_get_usable_ram_top
 .text.board_reserve_ram_top
                0x000000008781179c        0x4 common/built-in.o
                0x000000008781179c                board_reserve_ram_top
 .text.setup_dest_addr
                0x00000000878117a0       0x4c common/built-in.o
 .text.reserve_stacks
                0x00000000878117ec       0x1c common/built-in.o
 .text.board_init_f
                0x0000000087811808       0x30 common/built-in.o
                0x0000000087811808                board_init_f
 .text.bootstage_relocate
                0x0000000087811838        0x8 common/built-in.o
 .text.initr_reloc
                0x0000000087811840       0x18 common/built-in.o
 .text.initr_reloc_global_data
                0x0000000087811858       0x28 common/built-in.o
 .text.initr_announce
                0x0000000087811880        0x8 common/built-in.o
 .text.run_main_loop
                0x0000000087811888        0xc common/built-in.o
 .text.initr_net
                0x0000000087811894       0x1c common/built-in.o
 .text.initr_ethaddr
                0x00000000878118b0       0x20 common/built-in.o
 .text.initr_enable_interrupts
                0x00000000878118d0       0x10 common/built-in.o
 .text.initr_jumptable
                0x00000000878118e0       0x10 common/built-in.o
 .text.initr_env
                0x00000000878118f0       0x30 common/built-in.o
 .text.initr_mmc
                0x0000000087811920       0x20 common/built-in.o
 .text.initr_serial
                0x0000000087811940       0x10 common/built-in.o
 .text.initr_bootstage
                0x0000000087811950       0x14 common/built-in.o
 .text.initr_dm
                0x0000000087811964       0x14 common/built-in.o
 .text.initr_malloc
                0x0000000087811978       0x24 common/built-in.o
 .text.initr_caches
                0x000000008781199c       0x10 common/built-in.o
 .text.initr_console_record
                0x00000000878119ac        0x8 common/built-in.o
 .text.initr_trace
                0x00000000878119b4        0x8 common/built-in.o
 .text.initr_barrier
                0x00000000878119bc        0x8 common/built-in.o
 .text.cpu_secondary_init_r
                0x00000000878119c4        0x4 common/built-in.o
                0x00000000878119c4                cpu_secondary_init_r
 .text.initr_secondary_cpu
                0x00000000878119c8       0x10 common/built-in.o
 .text.board_init_r
                0x00000000878119d8       0x14 common/built-in.o
                0x00000000878119d8                board_init_r
 .text.show_board_info
                0x00000000878119ec        0x4 common/built-in.o
                0x00000000878119ec                show_board_info
 .text.bootm_find_images
                0x00000000878119f0       0xa8 common/built-in.o
                0x00000000878119f0                bootm_find_images
 .text.bootm_decomp_image
                0x0000000087811a98      0x14c common/built-in.o
                0x0000000087811a98                bootm_decomp_image
 .text.bootm_disable_interrupts
                0x0000000087811be4       0x18 common/built-in.o
                0x0000000087811be4                bootm_disable_interrupts
 .text.do_bootm_states
                0x0000000087811bfc      0x74c common/built-in.o
                0x0000000087811bfc                do_bootm_states
 .text.copy_args
                0x0000000087812348       0x54 common/built-in.o
 .text.do_bootm_rtems
                0x000000008781239c       0x40 common/built-in.o
 .text.do_bootm_plan9
                0x00000000878123dc       0xa4 common/built-in.o
 .text.do_bootm_standalone
                0x0000000087812480       0x64 common/built-in.o
 .text.do_bootm_qnxelf
                0x00000000878124e4       0x5c common/built-in.o
 .text.do_bootm_netbsd
                0x0000000087812540       0xf8 common/built-in.o
 .text.do_bootvx_fdt
                0x0000000087812638      0x118 common/built-in.o
                0x0000000087812638                do_bootvx_fdt
 .text.do_bootm_vxworks
                0x0000000087812750       0x24 common/built-in.o
 .text.boot_selected_os
                0x0000000087812774       0x58 common/built-in.o
                0x0000000087812774                boot_selected_os
 .text.bootm_os_get_boot_func
                0x00000000878127cc       0x10 common/built-in.o
                0x00000000878127cc                bootm_os_get_boot_func
 .text.regex_callback
                0x00000000878127dc      0x134 common/built-in.o
 .text.env_attr_walk
                0x0000000087812910      0x128 common/built-in.o
                0x0000000087812910                env_attr_walk
 .text.env_attr_lookup
                0x0000000087812a38       0x84 common/built-in.o
                0x0000000087812a38                env_attr_lookup
 .text.clear_callback
                0x0000000087812abc       0x10 common/built-in.o
 .text.find_env_callback
                0x0000000087812acc       0x64 common/built-in.o
 .text.on_callbacks
                0x0000000087812b30       0x50 common/built-in.o
 .text.set_callback
                0x0000000087812b80       0x98 common/built-in.o
 .text.env_callback_init
                0x0000000087812c18       0xc4 common/built-in.o
                0x0000000087812c18                env_callback_init
 .text.skip_num
                0x0000000087812cdc       0x78 common/built-in.o
 .text.clear_flags
                0x0000000087812d54       0x10 common/built-in.o
 .text.on_flags
                0x0000000087812d64       0x50 common/built-in.o
 .text.env_flags_parse_vartype
                0x0000000087812db4       0x50 common/built-in.o
                0x0000000087812db4                env_flags_parse_vartype
 .text.env_flags_parse_varaccess
                0x0000000087812e04       0x58 common/built-in.o
                0x0000000087812e04                env_flags_parse_varaccess
 .text.set_flags
                0x0000000087812e5c       0xb0 common/built-in.o
 .text.eth_validate_ethaddr_str
                0x0000000087812f0c       0x94 common/built-in.o
                0x0000000087812f0c                eth_validate_ethaddr_str
 .text.env_flags_init
                0x0000000087812fa0       0xd8 common/built-in.o
                0x0000000087812fa0                env_flags_init
 .text.env_flags_validate
                0x0000000087813078      0x2b8 common/built-in.o
                0x0000000087813078                env_flags_validate
 .text.mmc_get_env_addr
                0x0000000087813330       0x10 common/built-in.o
                0x0000000087813330                mmc_get_env_addr
 .text.fini_mmc_for_env.isra.0
                0x0000000087813340       0x1c common/built-in.o
 .text.env_init
                0x000000008781335c       0x1c common/built-in.o
                0x000000008781335c                env_init
 .text.init_mmc_for_env
                0x0000000087813378       0x78 common/built-in.o
 .text.saveenv  0x00000000878133f0      0x114 common/built-in.o
                0x00000000878133f0                saveenv
 .text.env_relocate_spec
                0x0000000087813504       0xe0 common/built-in.o
                0x0000000087813504                env_relocate_spec
 .text.fdt_find_and_setprop
                0x00000000878135e4       0x70 common/built-in.o
                0x00000000878135e4                fdt_find_and_setprop
 .text.fdt_find_or_add_subnode
                0x0000000087813654       0x60 common/built-in.o
                0x0000000087813654                fdt_find_or_add_subnode
 .text.fdt_root
                0x00000000878136b4       0x90 common/built-in.o
                0x00000000878136b4                fdt_root
 .text.fdt_initrd
                0x0000000087813744      0x1cc common/built-in.o
                0x0000000087813744                fdt_initrd
 .text.fdt_chosen
                0x0000000087813910       0xa8 common/built-in.o
                0x0000000087813910                fdt_chosen
 .text.do_fixup_by_path
                0x00000000878139b8       0x54 common/built-in.o
                0x00000000878139b8                do_fixup_by_path
 .text.fdt_fixup_memory_banks
                0x0000000087813a0c      0x1b0 common/built-in.o
                0x0000000087813a0c                fdt_fixup_memory_banks
 .text.fdt_fixup_memory
                0x0000000087813bbc       0x20 common/built-in.o
                0x0000000087813bbc                fdt_fixup_memory
 .text.fdt_fixup_ethernet
                0x0000000087813bdc      0x188 common/built-in.o
                0x0000000087813bdc                fdt_fixup_ethernet
 .text.fdt_shrink_to_minimum
                0x0000000087813d64       0xcc common/built-in.o
                0x0000000087813d64                fdt_shrink_to_minimum
 .text.miiphy_get_dev_by_name
                0x0000000087813e30       0x60 common/built-in.o
                0x0000000087813e30                miiphy_get_dev_by_name
 .text.miiphy_init
                0x0000000087813e90       0x24 common/built-in.o
                0x0000000087813e90                miiphy_init
 .text.mdio_alloc
                0x0000000087813eb4       0x30 common/built-in.o
                0x0000000087813eb4                mdio_alloc
 .text.mdio_register
                0x0000000087813ee4       0x94 common/built-in.o
                0x0000000087813ee4                mdio_register
 .text.mdio_unregister
                0x0000000087813f78       0x3c common/built-in.o
                0x0000000087813f78                mdio_unregister
 .text.mdio_list_devices
                0x0000000087813fb4       0xac common/built-in.o
                0x0000000087813fb4                mdio_list_devices
 .text.miiphy_set_current_dev
                0x0000000087814060       0x40 common/built-in.o
                0x0000000087814060                miiphy_set_current_dev
 .text.miiphy_get_active_dev
                0x00000000878140a0       0x54 common/built-in.o
 .text.mdio_get_current_dev
                0x00000000878140f4       0x10 common/built-in.o
                0x00000000878140f4                mdio_get_current_dev
 .text.mdio_phydev_for_ethname
                0x0000000087814104       0x88 common/built-in.o
                0x0000000087814104                mdio_phydev_for_ethname
 .text.miiphy_get_current_dev
                0x000000008781418c       0x18 common/built-in.o
                0x000000008781418c                miiphy_get_current_dev
 .text.miiphy_read
                0x00000000878141a4       0x4c common/built-in.o
                0x00000000878141a4                miiphy_read
 .text.miiphy_write
                0x00000000878141f0       0x40 common/built-in.o
                0x00000000878141f0                miiphy_write
 .text.miiphy_listdev
                0x0000000087814230       0x78 common/built-in.o
                0x0000000087814230                miiphy_listdev
 .text.miiphy_info
                0x00000000878142a8       0x88 common/built-in.o
                0x00000000878142a8                miiphy_info
 .text.miiphy_speed
                0x0000000087814330       0x94 common/built-in.o
                0x0000000087814330                miiphy_speed
 .text.miiphy_duplex
                0x00000000878143c4       0x94 common/built-in.o
                0x00000000878143c4                miiphy_duplex
 .text.miiphy_is_1000base_x
                0x0000000087814458        0x8 common/built-in.o
                0x0000000087814458                miiphy_is_1000base_x
 .text.usb_set_maxpacket_ep
                0x0000000087814460       0x70 common/built-in.o
 .text.usb_stop
                0x00000000878144d0       0x80 common/built-in.o
                0x00000000878144d0                usb_stop
 .text.usb_disable_asynch
                0x0000000087814550       0x20 common/built-in.o
                0x0000000087814550                usb_disable_asynch
 .text.usb_control_msg
                0x0000000087814570       0xc0 common/built-in.o
                0x0000000087814570                usb_control_msg
 .text.usb_get_descriptor
                0x0000000087814630       0x58 common/built-in.o
 .text.get_descriptor_len
                0x0000000087814688       0x90 common/built-in.o
 .text.usb_get_string
                0x0000000087814718       0x74 common/built-in.o
 .text.usb_string_sub
                0x000000008781478c      0x108 common/built-in.o
 .text.usb_bulk_msg
                0x0000000087814894       0x70 common/built-in.o
                0x0000000087814894                usb_bulk_msg
 .text.usb_maxpacket
                0x0000000087814904       0x1c common/built-in.o
                0x0000000087814904                usb_maxpacket
 .text.usb_clear_halt
                0x0000000087814920       0x90 common/built-in.o
                0x0000000087814920                usb_clear_halt
 .text.usb_get_configuration_len
                0x00000000878149b0       0x74 common/built-in.o
                0x00000000878149b0                usb_get_configuration_len
 .text.usb_get_configuration_no
                0x0000000087814a24       0x34 common/built-in.o
                0x0000000087814a24                usb_get_configuration_no
 .text.usb_set_interface
                0x0000000087814a58       0xb4 common/built-in.o
                0x0000000087814a58                usb_set_interface
 .text.usb_string
                0x0000000087814b0c      0x100 common/built-in.o
                0x0000000087814b0c                usb_string
 .text.usb_get_dev_index
                0x0000000087814c0c       0x24 common/built-in.o
                0x0000000087814c0c                usb_get_dev_index
 .text.usb_alloc_new_device
                0x0000000087814c30       0x90 common/built-in.o
                0x0000000087814c30                usb_alloc_new_device
 .text.usb_free_device
                0x0000000087814cc0       0x48 common/built-in.o
                0x0000000087814cc0                usb_free_device
 .text.usb_alloc_device
                0x0000000087814d08        0x8 common/built-in.o
                0x0000000087814d08                usb_alloc_device
 .text.usb_select_config
                0x0000000087814d10      0x45c common/built-in.o
                0x0000000087814d10                usb_select_config
 .text.usb_setup_device
                0x000000008781516c      0x19c common/built-in.o
                0x000000008781516c                usb_setup_device
 .text.usb_new_device
                0x0000000087815308       0x34 common/built-in.o
                0x0000000087815308                usb_new_device
 .text.usb_init
                0x000000008781533c      0x170 common/built-in.o
                0x000000008781533c                usb_init
 .text.usb_device_has_child_on_port
                0x00000000878154ac       0x14 common/built-in.o
                0x00000000878154ac                usb_device_has_child_on_port
 .text.usb_find_usb2_hub_address_port
                0x00000000878154c0       0x5c common/built-in.o
                0x00000000878154c0                usb_find_usb2_hub_address_port
 .text.usb_set_port_feature
                0x000000008781551c       0x4c common/built-in.o
 .text.usb_clear_port_feature
                0x0000000087815568       0x4c common/built-in.o
 .text.usb_get_hub_descriptor
                0x00000000878155b4       0x4c common/built-in.o
 .text.usb_hub_power_on
                0x0000000087815600       0x6c common/built-in.o
 .text.usb_hub_reset_devices
                0x000000008781566c        0x4 common/built-in.o
                0x000000008781566c                usb_hub_reset_devices
 .text.usb_get_port_status
                0x0000000087815670       0x4c common/built-in.o
                0x0000000087815670                usb_get_port_status
 .text.usb_hub_reset
                0x00000000878156bc       0x14 common/built-in.o
                0x00000000878156bc                usb_hub_reset
 .text.legacy_hub_port_reset
                0x00000000878156d0       0xa0 common/built-in.o
                0x00000000878156d0                legacy_hub_port_reset
 .text.usb_hub_port_connect_change
                0x0000000087815770      0x16c common/built-in.o
                0x0000000087815770                usb_hub_port_connect_change
 .text.usb_hub_configure
                0x00000000878158dc      0x2c0 common/built-in.o
 .text.usb_hub_probe
                0x0000000087815b9c       0x54 common/built-in.o
                0x0000000087815b9c                usb_hub_probe
 .text.usb_stor_irq
                0x0000000087815bf0       0x1c common/built-in.o
 .text.usb_stor_BBB_reset
                0x0000000087815c0c       0xd0 common/built-in.o
 .text.usb_stor_CB_reset
                0x0000000087815cdc       0xd0 common/built-in.o
 .text.usb_stor_BBB_clear_endpt_stall.isra.0
                0x0000000087815dac       0x40 common/built-in.o
 .text.usb_stor_BBB_transport
                0x0000000087815dec      0x258 common/built-in.o
 .text.usb_stor_CB_comdat
                0x0000000087816044      0x204 common/built-in.o
 .text.usb_stor_CBI_get_status.isra.2
                0x0000000087816248       0xc8 common/built-in.o
 .text.usb_stor_CB_transport
                0x0000000087816310      0x228 common/built-in.o
 .text.usb_request_sense.constprop.8
                0x0000000087816538       0x70 common/built-in.o
 .text.usb_stor_read
                0x00000000878165a8      0x16c common/built-in.o
 .text.usb_stor_write
                0x0000000087816714      0x16c common/built-in.o
 .text.usb_stor_get_dev
                0x0000000087816880       0x28 common/built-in.o
                0x0000000087816880                usb_stor_get_dev
 .text.usb_stor_info
                0x00000000878168a8       0x78 common/built-in.o
                0x00000000878168a8                usb_stor_info
 .text.usb_storage_probe
                0x0000000087816920      0x204 common/built-in.o
                0x0000000087816920                usb_storage_probe
 .text.usb_stor_get_info
                0x0000000087816b24      0x324 common/built-in.o
                0x0000000087816b24                usb_stor_get_info
 .text.usb_stor_scan
                0x0000000087816e48      0x1e8 common/built-in.o
                0x0000000087816e48                usb_stor_scan
 .text.splash_get_pos
                0x0000000087817030       0x88 common/built-in.o
                0x0000000087817030                splash_get_pos
 .text.env_get_char_spec
                0x00000000878170b8        0xc common/built-in.o
                0x00000000878170b8                env_get_char_spec
 .text.env_get_addr
                0x00000000878170c4       0x20 common/built-in.o
                0x00000000878170c4                env_get_addr
 .text.env_get_char_memory
                0x00000000878170e4       0x10 common/built-in.o
                0x00000000878170e4                env_get_char_memory
 .text.env_get_char
                0x00000000878170f4       0x30 common/built-in.o
                0x00000000878170f4                env_get_char
 .text.getenv_yesno
                0x0000000087817124       0x3c common/built-in.o
                0x0000000087817124                getenv_yesno
 .text.getenv_default
                0x0000000087817160       0x30 common/built-in.o
                0x0000000087817160                getenv_default
 .text.set_default_env
                0x0000000087817190       0xc0 common/built-in.o
                0x0000000087817190                set_default_env
 .text.set_default_vars
                0x0000000087817250       0x38 common/built-in.o
                0x0000000087817250                set_default_vars
 .text.env_import
                0x0000000087817288       0xdc common/built-in.o
                0x0000000087817288                env_import
 .text.env_export
                0x0000000087817364       0xa0 common/built-in.o
                0x0000000087817364                env_export
 .text.env_relocate
                0x0000000087817404       0x2c common/built-in.o
                0x0000000087817404                env_relocate
 .text.env_complete
                0x0000000087817430       0xf0 common/built-in.o
                0x0000000087817430                env_complete
 .text.console_setfile
                0x0000000087817520       0xc0 common/built-in.o
 .text.serial_printf
                0x00000000878175e0       0x44 common/built-in.o
                0x00000000878175e0                serial_printf
 .text.putc     0x0000000087817624       0x34 common/built-in.o
                0x0000000087817624                putc
 .text.puts     0x0000000087817658       0x34 common/built-in.o
                0x0000000087817658                puts
 .text.fgetc    0x000000008781768c       0x24 common/built-in.o
                0x000000008781768c                fgetc
 .text.getc     0x00000000878176b0       0x24 common/built-in.o
                0x00000000878176b0                getc
 .text.ftstc    0x00000000878176d4       0x24 common/built-in.o
                0x00000000878176d4                ftstc
 .text.tstc     0x00000000878176f8       0x24 common/built-in.o
                0x00000000878176f8                tstc
 .text.ctrlc    0x000000008781771c       0x58 common/built-in.o
                0x000000008781771c                ctrlc
 .text.confirm_yesno
                0x0000000087817774       0xd4 common/built-in.o
                0x0000000087817774                confirm_yesno
 .text.had_ctrlc
                0x0000000087817848       0x10 common/built-in.o
                0x0000000087817848                had_ctrlc
 .text.clear_ctrlc
                0x0000000087817858       0x14 common/built-in.o
                0x0000000087817858                clear_ctrlc
 .text.search_device
                0x000000008781786c       0x28 common/built-in.o
                0x000000008781786c                search_device
 .text.console_assign
                0x0000000087817894       0x48 common/built-in.o
                0x0000000087817894                console_assign
 .text.on_console
                0x00000000878178dc       0xb8 common/built-in.o
 .text.console_init_f
                0x0000000087817994       0x10 common/built-in.o
                0x0000000087817994                console_init_f
 .text.stdio_print_current_devices
                0x00000000878179a4       0xb0 common/built-in.o
                0x00000000878179a4                stdio_print_current_devices
 .text.console_init_r
                0x0000000087817a54      0x180 common/built-in.o
                0x0000000087817a54                console_init_r
 .text.sbrk     0x0000000087817bd4       0x6c common/built-in.o
                0x0000000087817bd4                sbrk
 .text.mem_malloc_init
                0x0000000087817c40       0x34 common/built-in.o
                0x0000000087817c40                mem_malloc_init
 .text.malloc_trim
                0x0000000087817c74       0xcc common/built-in.o
                0x0000000087817c74                malloc_trim
 .text.free     0x0000000087817d40      0x244 common/built-in.o
                0x0000000087817d40                free
 .text.malloc   0x0000000087817f84      0x618 common/built-in.o
                0x0000000087817f84                malloc
 .text.calloc   0x000000008781859c      0x144 common/built-in.o
                0x000000008781859c                calloc
 .text.realloc  0x00000000878186e0      0x4e0 common/built-in.o
                0x00000000878186e0                realloc
 .text.memalign
                0x0000000087818bc0      0x140 common/built-in.o
                0x0000000087818bc0                memalign
 .text.initf_malloc
                0x0000000087818d00       0x18 common/built-in.o
                0x0000000087818d00                initf_malloc
 .text.malloc_simple
                0x0000000087818d18       0x30 common/built-in.o
                0x0000000087818d18                malloc_simple
 .text.on_loadaddr
                0x0000000087818d48       0x38 common/built-in.o
 .text.image_check_hcrc
                0x0000000087818d80       0x4c common/built-in.o
                0x0000000087818d80                image_check_hcrc
 .text.image_check_dcrc
                0x0000000087818dcc       0x38 common/built-in.o
                0x0000000087818dcc                image_check_dcrc
 .text.image_multi_count
                0x0000000087818e04       0x1c common/built-in.o
                0x0000000087818e04                image_multi_count
 .text.image_multi_getimg
                0x0000000087818e20       0x80 common/built-in.o
                0x0000000087818e20                image_multi_getimg
 .text.getenv_bootm_low
                0x0000000087818ea0       0x30 common/built-in.o
                0x0000000087818ea0                getenv_bootm_low
 .text.getenv_bootm_size
                0x0000000087818ed0       0x68 common/built-in.o
                0x0000000087818ed0                getenv_bootm_size
 .text.getenv_bootm_mapsize
                0x0000000087818f38       0x30 common/built-in.o
                0x0000000087818f38                getenv_bootm_mapsize
 .text.memmove_wd
                0x0000000087818f68        0xc common/built-in.o
                0x0000000087818f68                memmove_wd
 .text.genimg_print_size
                0x0000000087818f74       0x30 common/built-in.o
                0x0000000087818f74                genimg_print_size
 .text.get_table_entry
                0x0000000087818fa4       0x24 common/built-in.o
                0x0000000087818fa4                get_table_entry
 .text.get_table_entry_name
                0x0000000087818fc8       0x20 common/built-in.o
                0x0000000087818fc8                get_table_entry_name
 .text.genimg_get_os_name
                0x0000000087818fe8       0x18 common/built-in.o
                0x0000000087818fe8                genimg_get_os_name
 .text.genimg_get_arch_name
                0x0000000087819000       0x18 common/built-in.o
                0x0000000087819000                genimg_get_arch_name
 .text.genimg_get_type_name
                0x0000000087819018       0x18 common/built-in.o
                0x0000000087819018                genimg_get_type_name
 .text.genimg_get_comp_name
                0x0000000087819030       0x18 common/built-in.o
                0x0000000087819030                genimg_get_comp_name
 .text.image_print_contents
                0x0000000087819048      0x17c common/built-in.o
                0x0000000087819048                image_print_contents
 .text.genimg_get_kernel_addr_fit
                0x00000000878191c4       0x24 common/built-in.o
                0x00000000878191c4                genimg_get_kernel_addr_fit
 .text.genimg_get_format
                0x00000000878191e8       0x34 common/built-in.o
                0x00000000878191e8                genimg_get_format
 .text.genimg_get_image
                0x000000008781921c        0x4 common/built-in.o
                0x000000008781921c                genimg_get_image
 .text.genimg_has_config
                0x0000000087819220        0x8 common/built-in.o
                0x0000000087819220                genimg_has_config
 .text.boot_get_ramdisk
                0x0000000087819228      0x274 common/built-in.o
                0x0000000087819228                boot_get_ramdisk
 .text.boot_ramdisk_high
                0x000000008781949c      0x138 common/built-in.o
                0x000000008781949c                boot_ramdisk_high
 .text.boot_get_setup
                0x00000000878195d4        0x8 common/built-in.o
                0x00000000878195d4                boot_get_setup
 .text.image_setup_linux
                0x00000000878195dc       0x8c common/built-in.o
                0x00000000878195dc                image_setup_linux
 .text.fdt_error
                0x0000000087819668       0x2c common/built-in.o
 .text.boot_fdt_add_mem_rsv_regions
                0x0000000087819694       0x8c common/built-in.o
                0x0000000087819694                boot_fdt_add_mem_rsv_regions
 .text.boot_relocate_fdt
                0x0000000087819720      0x198 common/built-in.o
                0x0000000087819720                boot_relocate_fdt
 .text.boot_get_fdt
                0x00000000878198b8      0x2ac common/built-in.o
                0x00000000878198b8                boot_get_fdt
 .text.ft_verify_fdt
                0x0000000087819b64        0x8 common/built-in.o
                0x0000000087819b64                ft_verify_fdt
 .text.image_setup_libfdt
                0x0000000087819b6c      0x100 common/built-in.o
                0x0000000087819b6c                image_setup_libfdt
 .text.get_effective_memsize
                0x0000000087819c6c        0x8 common/built-in.o
                0x0000000087819c6c                get_effective_memsize
 .text.nulldev_putc
                0x0000000087819c74        0x4 common/built-in.o
 .text.nulldev_puts
                0x0000000087819c78        0x4 common/built-in.o
 .text.nulldev_input
                0x0000000087819c7c        0x8 common/built-in.o
 .text.stdio_serial_tstc
                0x0000000087819c84        0x4 common/built-in.o
 .text.stdio_serial_getc
                0x0000000087819c88        0x4 common/built-in.o
 .text.stdio_serial_puts
                0x0000000087819c8c        0x8 common/built-in.o
 .text.stdio_serial_putc
                0x0000000087819c94        0x8 common/built-in.o
 .text.stdio_get_list
                0x0000000087819c9c        0xc common/built-in.o
                0x0000000087819c9c                stdio_get_list
 .text.stdio_get_by_name
                0x0000000087819ca8       0x5c common/built-in.o
                0x0000000087819ca8                stdio_get_by_name
 .text.stdio_clone
                0x0000000087819d04       0x38 common/built-in.o
                0x0000000087819d04                stdio_clone
 .text.stdio_register_dev
                0x0000000087819d3c       0x50 common/built-in.o
                0x0000000087819d3c                stdio_register_dev
 .text.stdio_register
                0x0000000087819d8c        0x8 common/built-in.o
                0x0000000087819d8c                stdio_register
 .text.stdio_init_tables
                0x0000000087819d94       0x1c common/built-in.o
                0x0000000087819d94                stdio_init_tables
 .text.stdio_add_devices
                0x0000000087819db0       0xd4 common/built-in.o
                0x0000000087819db0                stdio_add_devices
 .text.run_command
                0x0000000087819e84       0x10 common/built-in.o
                0x0000000087819e84                run_command
 .text.run_command_list
                0x0000000087819e94       0x7c common/built-in.o
                0x0000000087819e94                run_command_list
 .text.do_run   0x0000000087819f10       0x78 common/built-in.o
                0x0000000087819f10                do_run
 .text.cli_loop
                0x0000000087819f88        0xc common/built-in.o
                0x0000000087819f88                cli_loop
 .text.cli_init
                0x0000000087819f94        0x4 common/built-in.o
                0x0000000087819f94                cli_init
 .text.delete_char.part.0
                0x0000000087819f98       0xd4 common/built-in.o
 .text.cread_add_char
                0x000000008781a06c       0xe8 common/built-in.o
 .text.cli_readline_into_buffer
                0x000000008781a154      0x9cc common/built-in.o
                0x000000008781a154                cli_readline_into_buffer
 .text.cli_readline
                0x000000008781ab20       0x14 common/built-in.o
                0x000000008781ab20                cli_readline
 .text.find_cmd_tbl
                0x000000008781ab34       0xa4 common/built-in.o
                0x000000008781ab34                find_cmd_tbl
 .text.find_cmd
                0x000000008781abd8       0x28 common/built-in.o
                0x000000008781abd8                find_cmd
 .text.cmd_usage
                0x000000008781ac00       0x5c common/built-in.o
                0x000000008781ac00                cmd_usage
 .text._do_help
                0x000000008781ac5c      0x188 common/built-in.o
                0x000000008781ac5c                _do_help
 .text.var_complete
                0x000000008781ade4       0x98 common/built-in.o
                0x000000008781ade4                var_complete
 .text.cmd_auto_complete
                0x000000008781ae7c      0x4b8 common/built-in.o
                0x000000008781ae7c                cmd_auto_complete
 .text.cmd_get_data_size
                0x000000008781b334       0x5c common/built-in.o
                0x000000008781b334                cmd_get_data_size
 .text.cmd_process
                0x000000008781b390       0xec common/built-in.o
                0x000000008781b390                cmd_process
 .text.cmd_process_error
                0x000000008781b47c       0x30 common/built-in.o
                0x000000008781b47c                cmd_process_error
 .text.hex1_bin
                0x000000008781b4ac       0x40 common/built-in.o
 .text.hex2_bin
                0x000000008781b4ec       0x38 common/built-in.o
 .text.srec_decode
                0x000000008781b524      0x250 common/built-in.o
                0x000000008781b524                srec_decode
 .text.CYGACC_COMM_IF_GETC_TIMEOUT.isra.0
                0x000000008781b774       0x5c common/built-in.o
 .text.xyzModem_flush
                0x000000008781b7d0       0x1c common/built-in.o
 .text.xyzModem_get_hdr
                0x000000008781b7ec      0x224 common/built-in.o
 .text.xyzModem_stream_open
                0x000000008781ba10      0x234 common/built-in.o
                0x000000008781ba10                xyzModem_stream_open
 .text.xyzModem_stream_read
                0x000000008781bc44      0x250 common/built-in.o
                0x000000008781bc44                xyzModem_stream_read
 .text.xyzModem_stream_close
                0x000000008781be94       0x54 common/built-in.o
                0x000000008781be94                xyzModem_stream_close
 .text.xyzModem_stream_terminate
                0x000000008781bee8       0x94 common/built-in.o
                0x000000008781bee8                xyzModem_stream_terminate
 .text.xyzModem_error
                0x000000008781bf7c       0x20 common/built-in.o
                0x000000008781bf7c                xyzModem_error
 .text.get_dev_hwpart
                0x000000008781bf9c       0xa8 disk/built-in.o
 .text.dev_print
                0x000000008781c044      0x20c disk/built-in.o
                0x000000008781c044                dev_print
 .text.init_part
                0x000000008781c250       0x20 disk/built-in.o
                0x000000008781c250                init_part
 .text.print_part
                0x000000008781c270       0xf4 disk/built-in.o
                0x000000008781c270                print_part
 .text.get_partition_info
                0x000000008781c364       0x2c disk/built-in.o
                0x000000008781c364                get_partition_info
 .text.get_device
                0x000000008781c390      0x128 disk/built-in.o
                0x000000008781c390                get_device
 .text.get_device_and_partition
                0x000000008781c4b8      0x3f0 disk/built-in.o
                0x000000008781c4b8                get_device_and_partition
 .text.test_block_type
                0x000000008781c8a8       0x84 disk/built-in.o
 .text.print_partition_extended
                0x000000008781c92c      0x274 disk/built-in.o
 .text.get_partition_info_extended.constprop.1
                0x000000008781cba0      0x2fc disk/built-in.o
 .text.test_part_dos
                0x000000008781ce9c       0x60 disk/built-in.o
                0x000000008781ce9c                test_part_dos
 .text.print_part_dos
                0x000000008781cefc       0x34 disk/built-in.o
                0x000000008781cefc                print_part_dos
 .text.get_partition_info_dos
                0x000000008781cf30       0x20 disk/built-in.o
                0x000000008781cf30                get_partition_info_dos
 .text.alloc_priv
                0x000000008781cf50       0x48 drivers/built-in.o
 .text.device_bind
                0x000000008781cf98      0x304 drivers/built-in.o
                0x000000008781cf98                device_bind
 .text.device_bind_by_name
                0x000000008781d29c       0x60 drivers/built-in.o
                0x000000008781d29c                device_bind_by_name
 .text.device_probe
                0x000000008781d2fc      0x234 drivers/built-in.o
                0x000000008781d2fc                device_probe
 .text.dev_get_platdata
                0x000000008781d530       0x34 drivers/built-in.o
                0x000000008781d530                dev_get_platdata
 .text.dev_get_priv
                0x000000008781d564       0x34 drivers/built-in.o
                0x000000008781d564                dev_get_priv
 .text.lists_driver_lookup_name
                0x000000008781d598       0x4c drivers/built-in.o
                0x000000008781d598                lists_driver_lookup_name
 .text.lists_uclass_lookup
                0x000000008781d5e4       0x3c drivers/built-in.o
                0x000000008781d5e4                lists_uclass_lookup
 .text.lists_bind_drivers
                0x000000008781d620       0x8c drivers/built-in.o
                0x000000008781d620                lists_bind_drivers
 .text.dm_root  0x000000008781d6ac       0x2c drivers/built-in.o
                0x000000008781d6ac                dm_root
 .text.dm_init  0x000000008781d6d8       0x58 drivers/built-in.o
                0x000000008781d6d8                dm_init
 .text.dm_scan_platdata
                0x000000008781d730       0x2c drivers/built-in.o
                0x000000008781d730                dm_scan_platdata
 .text.dm_scan_other
                0x000000008781d75c        0x8 drivers/built-in.o
                0x000000008781d75c                dm_scan_other
 .text.dm_init_and_scan
                0x000000008781d764       0x30 drivers/built-in.o
                0x000000008781d764                dm_init_and_scan
 .text.uclass_find
                0x000000008781d794       0x4c drivers/built-in.o
                0x000000008781d794                uclass_find
 .text.uclass_get
                0x000000008781d7e0      0x124 drivers/built-in.o
                0x000000008781d7e0                uclass_get
 .text.uclass_find_device
                0x000000008781d904       0x74 drivers/built-in.o
                0x000000008781d904                uclass_find_device
 .text.uclass_find_device_by_seq
                0x000000008781d978       0x7c drivers/built-in.o
                0x000000008781d978                uclass_find_device_by_seq
 .text.uclass_get_device_tail
                0x000000008781d9f4       0x2c drivers/built-in.o
                0x000000008781d9f4                uclass_get_device_tail
 .text.uclass_get_device
                0x000000008781da20       0x30 drivers/built-in.o
                0x000000008781da20                uclass_get_device
 .text.uclass_bind_device
                0x000000008781da50       0x7c drivers/built-in.o
                0x000000008781da50                uclass_bind_device
 .text.uclass_unbind_device
                0x000000008781dacc       0x4c drivers/built-in.o
                0x000000008781dacc                uclass_unbind_device
 .text.uclass_resolve_seq
                0x000000008781db18       0xb0 drivers/built-in.o
                0x000000008781db18                uclass_resolve_seq
 .text.uclass_pre_probe_device
                0x000000008781dbc8       0x64 drivers/built-in.o
                0x000000008781dbc8                uclass_pre_probe_device
 .text.uclass_post_probe_device
                0x000000008781dc2c       0x20 drivers/built-in.o
                0x000000008781dc2c                uclass_post_probe_device
 .text.uclass_pre_remove_device
                0x000000008781dc4c       0x20 drivers/built-in.o
                0x000000008781dc4c                uclass_pre_remove_device
 .text.dm_warn  0x000000008781dc6c       0x28 drivers/built-in.o
                0x000000008781dc6c                dm_warn
 .text.device_free
                0x000000008781dc94       0x90 drivers/built-in.o
                0x000000008781dc94                device_free
 .text.device_remove
                0x000000008781dd24      0x138 drivers/built-in.o
                0x000000008781dd24                device_remove
 .text.show_devices
                0x000000008781de5c      0x100 drivers/built-in.o
 .text.dm_dump_all
                0x000000008781df5c       0x3c drivers/built-in.o
                0x000000008781df5c                dm_dump_all
 .text.dm_dump_uclass
                0x000000008781df98       0xec drivers/built-in.o
                0x000000008781df98                dm_dump_uclass
 .text.finish_access
                0x000000008781e084       0x2c drivers/built-in.o
 .text.setup_direct_access
                0x000000008781e0b0      0x11c drivers/built-in.o
 .text.prepare_access
                0x000000008781e1cc       0xcc drivers/built-in.o
 .text.fuse_bank_physical
                0x000000008781e298       0xd4 drivers/built-in.o
                0x000000008781e298                fuse_bank_physical
 .text.fuse_word_physical
                0x000000008781e36c       0x40 drivers/built-in.o
                0x000000008781e36c                fuse_word_physical
 .text.fuse_read
                0x000000008781e3ac       0x80 drivers/built-in.o
                0x000000008781e3ac                fuse_read
 .text.fuse_sense
                0x000000008781e42c       0x94 drivers/built-in.o
                0x000000008781e42c                fuse_sense
 .text.fuse_prog
                0x000000008781e4c0       0x88 drivers/built-in.o
                0x000000008781e4c0                fuse_prog
 .text.fuse_override
                0x000000008781e548       0x78 drivers/built-in.o
                0x000000008781e548                fuse_override
 .text.video_invertchar
                0x000000008781e5c0       0x74 drivers/built-in.o
 .text.draw_bitmap
                0x000000008781e634       0xdc drivers/built-in.o
 .text.video_putc.part.1
                0x000000008781e710       0x28 drivers/built-in.o
 .text.console_newline.constprop.3
                0x000000008781e738       0xc8 drivers/built-in.o
 .text.board_cfb_skip
                0x000000008781e800        0x8 drivers/built-in.o
                0x000000008781e800                board_cfb_skip
 .text.console_cursor
                0x000000008781e808       0x98 drivers/built-in.o
                0x000000008781e808                console_cursor
 .text.video_putc
                0x000000008781e8a0      0x508 drivers/built-in.o
 .text.video_puts
                0x000000008781eda8       0x7c drivers/built-in.o
 .text.video_set_lut
                0x000000008781ee24        0x4 drivers/built-in.o
                0x000000008781ee24                video_set_lut
 .text.display_rle8_bitmap
                0x000000008781ee28      0x374 drivers/built-in.o
 .text.video_display_bitmap
                0x000000008781f19c      0x91c drivers/built-in.o
                0x000000008781f19c                video_display_bitmap
 .text.video_clear
                0x000000008781fab8       0x54 drivers/built-in.o
                0x000000008781fab8                video_clear
 .text.drv_video_init
                0x000000008781fb0c      0x21c drivers/built-in.o
                0x000000008781fb0c                drv_video_init
 .text.mxsfb_system_setup
                0x000000008781fd28        0x4 drivers/built-in.o
                0x000000008781fd28                mxsfb_system_setup
 .text.mxs_lcd_panel_setup
                0x000000008781fd2c       0x78 drivers/built-in.o
                0x000000008781fd2c                mxs_lcd_panel_setup
 .text.lcdif_power_down
                0x000000008781fda4       0x5c drivers/built-in.o
                0x000000008781fda4                lcdif_power_down
 .text.video_hw_init
                0x000000008781fe00      0x378 drivers/built-in.o
                0x000000008781fe00                video_hw_init
 .text.video_get_param_len.constprop.1
                0x0000000087820178       0x20 drivers/built-in.o
 .text.video_get_params
                0x0000000087820198      0x4e8 drivers/built-in.o
                0x0000000087820198                video_get_params
 .text.reset_cpu
                0x0000000087820680       0x48 drivers/built-in.o
                0x0000000087820680                reset_cpu
 .text.thermal_get_temp
                0x00000000878206c8       0x20 drivers/built-in.o
                0x00000000878206c8                thermal_get_temp
 .text.read_cpu_temperature
                0x00000000878206e8      0x14c drivers/built-in.o
 .text.imx_thermal_get_temp
                0x0000000087820834       0x74 drivers/built-in.o
                0x0000000087820834                imx_thermal_get_temp
 .text.imx_thermal_probe
                0x00000000878208a8       0xc8 drivers/built-in.o
 .text.gpio_set_value
                0x0000000087820970       0x44 drivers/gpio/built-in.o
                0x0000000087820970                gpio_set_value
 .text.gpio_get_value
                0x00000000878209b4       0x34 drivers/gpio/built-in.o
                0x00000000878209b4                gpio_get_value
 .text.gpio_request
                0x00000000878209e8       0x10 drivers/gpio/built-in.o
                0x00000000878209e8                gpio_request
 .text.gpio_free
                0x00000000878209f8        0x8 drivers/gpio/built-in.o
                0x00000000878209f8                gpio_free
 .text.gpio_direction_input
                0x0000000087820a00       0x3c drivers/gpio/built-in.o
                0x0000000087820a00                gpio_direction_input
 .text.gpio_direction_output
                0x0000000087820a3c       0x50 drivers/gpio/built-in.o
                0x0000000087820a3c                gpio_direction_output
 .text.i2c_get_adapter
                0x0000000087820a8c       0x64 drivers/i2c/built-in.o
                0x0000000087820a8c                i2c_get_adapter
 .text.i2c_init_bus
                0x0000000087820af0       0x90 drivers/i2c/built-in.o
 .text.i2c_get_bus_num
                0x0000000087820b80        0x8 drivers/i2c/built-in.o
                0x0000000087820b80                i2c_get_bus_num
 .text.i2c_set_bus_num
                0x0000000087820b88       0xb8 drivers/i2c/built-in.o
                0x0000000087820b88                i2c_set_bus_num
 .text.i2c_init_all
                0x0000000087820c40       0x14 drivers/i2c/built-in.o
                0x0000000087820c40                i2c_init_all
 .text.i2c_probe
                0x0000000087820c54       0x2c drivers/i2c/built-in.o
                0x0000000087820c54                i2c_probe
 .text.i2c_read
                0x0000000087820c80       0x4c drivers/i2c/built-in.o
                0x0000000087820c80                i2c_read
 .text.i2c_write
                0x0000000087820ccc       0x4c drivers/i2c/built-in.o
                0x0000000087820ccc                i2c_write
 .text.i2c_set_bus_speed
                0x0000000087820d18       0x64 drivers/i2c/built-in.o
                0x0000000087820d18                i2c_set_bus_speed
 .text.i2c_get_bus_speed
                0x0000000087820d7c       0x14 drivers/i2c/built-in.o
                0x0000000087820d7c                i2c_get_bus_speed
 .text.i2c_init
                0x0000000087820d90       0x14 drivers/i2c/built-in.o
                0x0000000087820d90                i2c_init
 .text.wait_for_sr_state
                0x0000000087820da4      0x100 drivers/i2c/built-in.o
 .text.tx_byte  0x0000000087820ea4       0x50 drivers/i2c/built-in.o
 .text.bus_i2c_set_bus_speed
                0x0000000087820ef4       0xb4 drivers/i2c/built-in.o
 .text.mxc_i2c_set_bus_speed
                0x0000000087820fa8       0x18 drivers/i2c/built-in.o
 .text.i2c_imx_stop
                0x0000000087820fc0       0x50 drivers/i2c/built-in.o
 .text.__i2c_force_reset_slave
                0x0000000087821010        0x4 drivers/i2c/built-in.o
                0x0000000087821010                __i2c_force_reset_slave
                0x0000000087821010                i2c_force_reset_slave
 .text.i2c_idle_bus
                0x0000000087821014       0x24 drivers/i2c/built-in.o
                0x0000000087821014                i2c_idle_bus
 .text.i2c_init_transfer
                0x0000000087821038      0x230 drivers/i2c/built-in.o
 .text.mxc_i2c_probe
                0x0000000087821268       0x40 drivers/i2c/built-in.o
 .text.mxc_i2c_read
                0x00000000878212a8      0x184 drivers/i2c/built-in.o
 .text.mxc_i2c_write
                0x000000008782142c       0x6c drivers/i2c/built-in.o
 .text.bus_i2c_init
                0x0000000087821498       0x70 drivers/i2c/built-in.o
                0x0000000087821498                bus_i2c_init
 .text.mxc_i2c_init
                0x0000000087821508       0x1c drivers/i2c/built-in.o
 .text.esdhc_getcd
                0x0000000087821524       0x40 drivers/mmc/built-in.o
 .text.esdhc_set_ios
                0x0000000087821564      0x124 drivers/mmc/built-in.o
 .text.esdhc_init
                0x0000000087821688       0xb8 drivers/mmc/built-in.o
 .text.check_and_invalidate_dcache_range.isra.0
                0x0000000087821740       0x30 drivers/mmc/built-in.o
 .text.esdhc_send_cmd
                0x0000000087821770      0x3f4 drivers/mmc/built-in.o
 .text.fsl_esdhc_initialize
                0x0000000087821b64      0x174 drivers/mmc/built-in.o
                0x0000000087821b64                fsl_esdhc_initialize
 .text.fsl_esdhc_mmc_init
                0x0000000087821cd8       0x38 drivers/mmc/built-in.o
                0x0000000087821cd8                fsl_esdhc_mmc_init
 .text.mmc_set_ios
                0x0000000087821d10       0x18 drivers/mmc/built-in.o
 .text.mmc_set_capacity
                0x0000000087821d28       0xa8 drivers/mmc/built-in.o
 .text.board_mmc_getwp
                0x0000000087821dd0        0x8 drivers/mmc/built-in.o
                0x0000000087821dd0                board_mmc_getwp
 .text.mmc_getwp
                0x0000000087821dd8       0x3c drivers/mmc/built-in.o
                0x0000000087821dd8                mmc_getwp
 .text.mmc_send_cmd
                0x0000000087821e14       0x10 drivers/mmc/built-in.o
                0x0000000087821e14                mmc_send_cmd
 .text.mmc_send_ext_csd
                0x0000000087821e24       0x4c drivers/mmc/built-in.o
 .text.mmc_go_idle
                0x0000000087821e70       0x4c drivers/mmc/built-in.o
 .text.mmc_send_op_cond_iter
                0x0000000087821ebc       0x78 drivers/mmc/built-in.o
 .text.mmc_send_status
                0x0000000087821f34       0xdc drivers/mmc/built-in.o
                0x0000000087821f34                mmc_send_status
 .text.mmc_switch.isra.0
                0x0000000087822010       0x54 drivers/mmc/built-in.o
 .text.mmc_set_blocklen
                0x0000000087822064       0x40 drivers/mmc/built-in.o
                0x0000000087822064                mmc_set_blocklen
 .text.find_mmc_device
                0x00000000878220a4       0x4c drivers/mmc/built-in.o
                0x00000000878220a4                find_mmc_device
 .text.mmc_switch_part
                0x00000000878220f0       0x60 drivers/mmc/built-in.o
                0x00000000878220f0                mmc_switch_part
 .text.mmc_select_hwpart
                0x0000000087822150       0x64 drivers/mmc/built-in.o
                0x0000000087822150                mmc_select_hwpart
 .text.mmc_bread
                0x00000000878221b4      0x160 drivers/mmc/built-in.o
 .text.mmc_hwpart_config
                0x0000000087822314      0x42c drivers/mmc/built-in.o
                0x0000000087822314                mmc_hwpart_config
 .text.mmc_getcd
                0x0000000087822740       0x3c drivers/mmc/built-in.o
                0x0000000087822740                mmc_getcd
 .text.mmc_set_clock
                0x000000008782277c       0x24 drivers/mmc/built-in.o
                0x000000008782277c                mmc_set_clock
 .text.mmc_startup
                0x00000000878227a0      0xda4 drivers/mmc/built-in.o
 .text.mmc_create
                0x0000000087823544       0xfc drivers/mmc/built-in.o
                0x0000000087823544                mmc_create
 .text.board_mmc_power_init
                0x0000000087823640        0x4 drivers/mmc/built-in.o
                0x0000000087823640                board_mmc_power_init
 .text.mmc_start_init
                0x0000000087823644      0x258 drivers/mmc/built-in.o
                0x0000000087823644                mmc_start_init
 .text.mmc_init
                0x000000008782389c       0xf4 drivers/mmc/built-in.o
                0x000000008782389c                mmc_init
 .text.mmc_get_dev
                0x0000000087823990       0x2c drivers/mmc/built-in.o
                0x0000000087823990                mmc_get_dev
 .text.mmc_set_dsr
                0x00000000878239bc        0xc drivers/mmc/built-in.o
                0x00000000878239bc                mmc_set_dsr
 .text.print_mmc_devices
                0x00000000878239c8       0xc0 drivers/mmc/built-in.o
                0x00000000878239c8                print_mmc_devices
 .text.get_mmc_num
                0x0000000087823a88       0x10 drivers/mmc/built-in.o
                0x0000000087823a88                get_mmc_num
 .text.mmc_initialize
                0x0000000087823a98       0x94 drivers/mmc/built-in.o
                0x0000000087823a98                mmc_initialize
 .text.mmc_boot_partition_size_change
                0x0000000087823b2c       0xc4 drivers/mmc/built-in.o
                0x0000000087823b2c                mmc_boot_partition_size_change
 .text.mmc_set_boot_bus_width
                0x0000000087823bf0       0x14 drivers/mmc/built-in.o
                0x0000000087823bf0                mmc_set_boot_bus_width
 .text.mmc_set_part_conf
                0x0000000087823c04       0x14 drivers/mmc/built-in.o
                0x0000000087823c04                mmc_set_part_conf
 .text.mmc_set_rst_n_function
                0x0000000087823c18        0xc drivers/mmc/built-in.o
                0x0000000087823c18                mmc_set_rst_n_function
 .text.mmc_berase
                0x0000000087823c24      0x1c8 drivers/mmc/built-in.o
                0x0000000087823c24                mmc_berase
 .text.mmc_bwrite
                0x0000000087823dec      0x184 drivers/mmc/built-in.o
                0x0000000087823dec                mmc_bwrite
 .text.mtd_arg_off
                0x0000000087823f70       0x68 drivers/mtd/built-in.o
                0x0000000087823f70                mtd_arg_off
 .text.mtd_arg_off_size
                0x0000000087823fd8      0x11c drivers/mtd/built-in.o
                0x0000000087823fd8                mtd_arg_off_size
 .text.spi_flash_probe
                0x00000000878240f4       0x74 drivers/mtd/spi/built-in.o
                0x00000000878240f4                spi_flash_probe
 .text.spi_flash_free
                0x0000000087824168       0x1c drivers/mtd/spi/built-in.o
                0x0000000087824168                spi_flash_free
 .text.stm_is_locked_sr
                0x0000000087824184       0x80 drivers/mtd/spi/built-in.o
 .text.spi_flash_read_common
                0x0000000087824204       0x5c drivers/mtd/spi/built-in.o
                0x0000000087824204                spi_flash_read_common
 .text.read_sr  0x0000000087824260       0x30 drivers/mtd/spi/built-in.o
 .text.stm_is_locked
                0x0000000087824290       0x4c drivers/mtd/spi/built-in.o
                0x0000000087824290                stm_is_locked
 .text.spi_flash_write_common
                0x00000000878242dc      0x15c drivers/mtd/spi/built-in.o
                0x00000000878242dc                spi_flash_write_common
 .text.spi_flash_write_bar
                0x0000000087824438       0x60 drivers/mtd/spi/built-in.o
 .text.spi_flash_cmd_erase_ops
                0x0000000087824498       0xf8 drivers/mtd/spi/built-in.o
                0x0000000087824498                spi_flash_cmd_erase_ops
 .text.spi_flash_cmd_write_ops
                0x0000000087824590      0x104 drivers/mtd/spi/built-in.o
                0x0000000087824590                spi_flash_cmd_write_ops
 .text.write_sr
                0x0000000087824694       0x2c drivers/mtd/spi/built-in.o
 .text.stm_lock
                0x00000000878246c0      0x170 drivers/mtd/spi/built-in.o
                0x00000000878246c0                stm_lock
 .text.stm_unlock
                0x0000000087824830      0x1ac drivers/mtd/spi/built-in.o
                0x0000000087824830                stm_unlock
 .text.spi_flash_copy_mmap
                0x00000000878249dc        0x4 drivers/mtd/spi/built-in.o
                0x00000000878249dc                spi_flash_copy_mmap
 .text.spi_flash_cmd_read_ops
                0x00000000878249e0      0x160 drivers/mtd/spi/built-in.o
                0x00000000878249e0                spi_flash_cmd_read_ops
 .text.spi_flash_scan
                0x0000000087824b40      0x488 drivers/mtd/spi/built-in.o
                0x0000000087824b40                spi_flash_scan
 .text.spi_flash_read_write
                0x0000000087824fc8       0x74 drivers/mtd/spi/built-in.o
 .text.spi_flash_cmd_read
                0x000000008782503c       0x1c drivers/mtd/spi/built-in.o
                0x000000008782503c                spi_flash_cmd_read
 .text.spi_flash_cmd
                0x0000000087825058       0x28 drivers/mtd/spi/built-in.o
                0x0000000087825058                spi_flash_cmd
 .text.spi_flash_cmd_write
                0x0000000087825080       0x20 drivers/mtd/spi/built-in.o
                0x0000000087825080                spi_flash_cmd_write
 .text.fec_set_hwaddr
                0x00000000878250a0       0x78 drivers/net/built-in.o
 .text.fec_reg_setup
                0x0000000087825118       0x60 drivers/net/built-in.o
 .text.fec_phy_write
                0x0000000087825178       0x74 drivers/net/built-in.o
 .text.fec_phy_read
                0x00000000878251ec       0x7c drivers/net/built-in.o
 .text.fec_halt
                0x0000000087825268       0x68 drivers/net/built-in.o
 .text.fec_send
                0x00000000878252d0      0x12c drivers/net/built-in.o
 .text.fec_mii_setspeed
                0x00000000878253fc       0x5c drivers/net/built-in.o
 .text.fec_init
                0x0000000087825458      0x284 drivers/net/built-in.o
 .text.fec_recv
                0x00000000878256dc      0x204 drivers/net/built-in.o
 .text.fec_probe
                0x00000000878258e0      0x37c drivers/net/built-in.o
                0x00000000878258e0                fec_probe
 .text.fec_get_miibus
                0x0000000087825c5c       0xa4 drivers/net/built-in.o
                0x0000000087825c5c                fec_get_miibus
 .text.fecmxc_initialize_multi
                0x0000000087825d00       0xa0 drivers/net/built-in.o
                0x0000000087825d00                fecmxc_initialize_multi
 .text.fecmxc_initialize
                0x0000000087825da0       0x14 drivers/net/built-in.o
                0x0000000087825da0                fecmxc_initialize
 .text.genphy_shutdown
                0x0000000087825db4        0x8 drivers/net/phy/built-in.o
                0x0000000087825db4                genphy_shutdown
 .text.genphy_restart_aneg
                0x0000000087825dbc       0x5c drivers/net/phy/built-in.o
                0x0000000087825dbc                genphy_restart_aneg
 .text.genphy_config_aneg
                0x0000000087825e18      0x200 drivers/net/phy/built-in.o
                0x0000000087825e18                genphy_config_aneg
 .text.genphy_config
                0x0000000087826018       0xc4 drivers/net/phy/built-in.o
                0x0000000087826018                genphy_config
 .text.genphy_update_link
                0x00000000878260dc      0x1c8 drivers/net/phy/built-in.o
                0x00000000878260dc                genphy_update_link
 .text.genphy_parse_link
                0x00000000878262a4      0x19c drivers/net/phy/built-in.o
                0x00000000878262a4                genphy_parse_link
 .text.genphy_startup
                0x0000000087826440       0x1c drivers/net/phy/built-in.o
                0x0000000087826440                genphy_startup
 .text.phy_init
                0x000000008782645c       0x10 drivers/net/phy/built-in.o
                0x000000008782645c                phy_init
 .text.phy_register
                0x000000008782646c       0x28 drivers/net/phy/built-in.o
                0x000000008782646c                phy_register
 .text.get_phy_id
                0x0000000087826494       0x70 drivers/net/phy/built-in.o
                0x0000000087826494                get_phy_id
 .text.get_phy_device_by_mask
                0x0000000087826504      0x29c drivers/net/phy/built-in.o
 .text.phy_reset
                0x00000000878267a0       0xb8 drivers/net/phy/built-in.o
                0x00000000878267a0                phy_reset
 .text.phy_find_by_mask
                0x0000000087826858       0x3c drivers/net/phy/built-in.o
                0x0000000087826858                phy_find_by_mask
 .text.phy_connect_dev
                0x0000000087826894       0x48 drivers/net/phy/built-in.o
                0x0000000087826894                phy_connect_dev
 .text.phy_startup
                0x00000000878268dc       0x1c drivers/net/phy/built-in.o
                0x00000000878268dc                phy_startup
 .text.phy_config
                0x00000000878268f8       0x10 drivers/net/phy/built-in.o
                0x00000000878268f8                phy_config
 .text.smsc_startup
                0x0000000087826908       0x4c drivers/net/phy/built-in.o
 .text.phy_smsc_init
                0x0000000087826954       0x3c drivers/net/phy/built-in.o
                0x0000000087826954                phy_smsc_init
 .text.check_reg
                0x0000000087826990       0x2c drivers/power/built-in.o
                0x0000000087826990                check_reg
 .text.pmic_get
                0x00000000878269bc       0x58 drivers/power/built-in.o
                0x00000000878269bc                pmic_get
 .text.power_get_interface
                0x0000000087826a14       0x2c drivers/power/built-in.o
                0x0000000087826a14                power_get_interface
 .text.do_pmic  0x0000000087826a40      0x2f4 drivers/power/built-in.o
                0x0000000087826a40                do_pmic
 .text.pmic_reg_write
                0x0000000087826d34       0xe4 drivers/power/built-in.o
                0x0000000087826d34                pmic_reg_write
 .text.pmic_reg_read
                0x0000000087826e18       0xf4 drivers/power/built-in.o
                0x0000000087826e18                pmic_reg_read
 .text.serial_stub_start
                0x0000000087826f0c        0xc drivers/serial/built-in.o
 .text.serial_stub_stop
                0x0000000087826f18        0xc drivers/serial/built-in.o
 .text.serial_stub_putc
                0x0000000087826f24       0x10 drivers/serial/built-in.o
 .text.serial_stub_puts
                0x0000000087826f34       0x10 drivers/serial/built-in.o
 .text.serial_stub_getc
                0x0000000087826f44        0xc drivers/serial/built-in.o
                0x0000000087826f44                serial_stub_getc
 .text.serial_stub_tstc
                0x0000000087826f50        0xc drivers/serial/built-in.o
                0x0000000087826f50                serial_stub_tstc
 .text.get_current
                0x0000000087826f5c       0x40 drivers/serial/built-in.o
 .text.serial_null
                0x0000000087826f9c        0x4 drivers/serial/built-in.o
                0x0000000087826f9c                jz_serial_initialize
                0x0000000087826f9c                bfin_serial_initialize
                0x0000000087826f9c                p3mx_serial_initialize
                0x0000000087826f9c                leon2_serial_initialize
                0x0000000087826f9c                leon3_serial_initialize
                0x0000000087826f9c                stm32_serial_initialize
                0x0000000087826f9c                amirix_serial_initialize
                0x0000000087826f9c                marvell_serial_initialize
                0x0000000087826f9c                cpci750_serial_initialize
                0x0000000087826f9c                ns16550_serial_initialize
                0x0000000087826f9c                asc_serial_initialize
                0x0000000087826f9c                sh_serial_initialize
                0x0000000087826f9c                oc_serial_initialize
                0x0000000087826f9c                mxs_auart_initialize
                0x0000000087826f9c                arm_dcc_initialize
                0x0000000087826f9c                bmw_serial_initialize
                0x0000000087826f9c                arc_serial_initialize
                0x0000000087826f9c                mcf_serial_initialize
                0x0000000087826f9c                lh7a40x_serial_initialize
                0x0000000087826f9c                evb64260_serial_initialize
                0x0000000087826f9c                lpc32xx_serial_initialize
                0x0000000087826f9c                max3100_serial_initialize
                0x0000000087826f9c                mpc85xx_serial_initialize
                0x0000000087826f9c                imx_serial_initialize
                0x0000000087826f9c                bfin_jtag_initialize
                0x0000000087826f9c                cogent_serial_initialize
                0x0000000087826f9c                clps7111_serial_initialize
                0x0000000087826f9c                ml2_serial_initialize
                0x0000000087826f9c                sandbox_serial_initialize
                0x0000000087826f9c                s3c24xx_serial_initialize
                0x0000000087826f9c                sconsole_serial_initialize
                0x0000000087826f9c                uartlite_serial_initialize
                0x0000000087826f9c                au1x00_serial_initialize
                0x0000000087826f9c                pxa_serial_initialize
                0x0000000087826f9c                atmel_serial_initialize
                0x0000000087826f9c                pl01x_serial_initialize
                0x0000000087826f9c                mpc512x_serial_initialize
                0x0000000087826f9c                s5p_serial_initialize
                0x0000000087826f9c                zynq_serial_initialize
                0x0000000087826f9c                sa1100_serial_initialize
                0x0000000087826f9c                mpc8260_scc_serial_initialize
                0x0000000087826f9c                iop480_serial_initialize
                0x0000000087826f9c                mpc8xx_serial_initialize
                0x0000000087826f9c                mpc8260_smc_serial_initialize
                0x0000000087826f9c                mpc5xx_serial_initialize
 .text.serial_register
                0x0000000087826fa0       0x18 drivers/serial/built-in.o
                0x0000000087826fa0                serial_register
 .text.serial_stdio_init
                0x0000000087826fb8       0xa4 drivers/serial/built-in.o
                0x0000000087826fb8                serial_stdio_init
 .text.serial_assign
                0x000000008782705c       0x4c drivers/serial/built-in.o
                0x000000008782705c                serial_assign
 .text.serial_initialize
                0x00000000878270a8       0xc8 drivers/serial/built-in.o
                0x00000000878270a8                serial_initialize
 .text.serial_init
                0x0000000087827170       0x20 drivers/serial/built-in.o
                0x0000000087827170                serial_init
 .text.serial_setbrg
                0x0000000087827190       0x14 drivers/serial/built-in.o
                0x0000000087827190                serial_setbrg
 .text.on_baudrate
                0x00000000878271a4       0xec drivers/serial/built-in.o
 .text.serial_getc
                0x0000000087827290       0x14 drivers/serial/built-in.o
                0x0000000087827290                serial_getc
 .text.serial_tstc
                0x00000000878272a4       0x14 drivers/serial/built-in.o
                0x00000000878272a4                serial_tstc
 .text.serial_putc
                0x00000000878272b8       0x1c drivers/serial/built-in.o
                0x00000000878272b8                serial_putc
 .text.serial_puts
                0x00000000878272d4       0x1c drivers/serial/built-in.o
                0x00000000878272d4                serial_puts
 .text.default_serial_puts
                0x00000000878272f0       0x30 drivers/serial/built-in.o
                0x00000000878272f0                default_serial_puts
 .text.mxc_serial_getc
                0x0000000087827320       0x20 drivers/serial/built-in.o
 .text.mxc_serial_tstc
                0x0000000087827340       0x18 drivers/serial/built-in.o
 .text.mxc_serial_putc
                0x0000000087827358       0x28 drivers/serial/built-in.o
 .text.mxc_serial_setbrg
                0x0000000087827380       0x48 drivers/serial/built-in.o
 .text.mxc_serial_init
                0x00000000878273c8       0x64 drivers/serial/built-in.o
 .text.mxc_serial_initialize
                0x000000008782742c        0xc drivers/serial/built-in.o
                0x000000008782742c                mxc_serial_initialize
 .text.default_serial_console
                0x0000000087827438        0xc drivers/serial/built-in.o
                0x0000000087827438                default_serial_console
 .text.spi_do_alloc_slave
                0x0000000087827444       0x4c drivers/spi/built-in.o
                0x0000000087827444                spi_do_alloc_slave
 .text.fsl_qspi_runcmd
                0x0000000087827490      0x20c drivers/spi/built-in.o
 .text.spi_setup_slave
                0x000000008782769c      0x2cc drivers/spi/built-in.o
                0x000000008782769c                spi_setup_slave
 .text.spi_free_slave
                0x0000000087827968       0x1c drivers/spi/built-in.o
                0x0000000087827968                spi_free_slave
 .text.spi_claim_bus
                0x0000000087827984        0x8 drivers/spi/built-in.o
                0x0000000087827984                spi_claim_bus
 .text.spi_release_bus
                0x000000008782798c        0x4 drivers/spi/built-in.o
                0x000000008782798c                spi_release_bus
 .text.spi_xfer
                0x0000000087827990      0x22c drivers/spi/built-in.o
                0x0000000087827990                spi_xfer
 .text.usb_host_eth_scan
                0x0000000087827bbc      0x1a8 drivers/usb/eth/built-in.o
                0x0000000087827bbc                usb_host_eth_scan
 .text.asix_halt
                0x0000000087827d64        0x4 drivers/usb/eth/built-in.o
 .text.asix_send_common
                0x0000000087827d68       0x98 drivers/usb/eth/built-in.o
 .text.asix_send
                0x0000000087827e00        0x8 drivers/usb/eth/built-in.o
 .text.asix_recv
                0x0000000087827e08      0x128 drivers/usb/eth/built-in.o
 .text.asix_write_cmd.isra.0
                0x0000000087827f30       0x4c drivers/usb/eth/built-in.o
 .text.asix_write_hwaddr_common
                0x0000000087827f7c       0x48 drivers/usb/eth/built-in.o
 .text.asix_write_hwaddr
                0x0000000087827fc4        0xc drivers/usb/eth/built-in.o
 .text.asix_mdio_write
                0x0000000087827fd0       0x84 drivers/usb/eth/built-in.o
 .text.asix_sw_reset
                0x0000000087828054       0x40 drivers/usb/eth/built-in.o
 .text.asix_read_cmd.isra.1
                0x0000000087828094       0x50 drivers/usb/eth/built-in.o
 .text.asix_mdio_read
                0x00000000878280e4       0x84 drivers/usb/eth/built-in.o
 .text.asix_read_rx_ctl
                0x0000000087828168       0x44 drivers/usb/eth/built-in.o
 .text.asix_init
                0x00000000878281ac       0xf0 drivers/usb/eth/built-in.o
 .text.asix_eth_before_probe
                0x000000008782829c       0x14 drivers/usb/eth/built-in.o
                0x000000008782829c                asix_eth_before_probe
 .text.asix_eth_probe
                0x00000000878282b0      0x188 drivers/usb/eth/built-in.o
                0x00000000878282b0                asix_eth_probe
 .text.asix_eth_get_info
                0x0000000087828438      0x350 drivers/usb/eth/built-in.o
                0x0000000087828438                asix_eth_get_info
 .text.ehci_get_port_speed
                0x0000000087828788        0x8 drivers/usb/host/built-in.o
 .text.ehci_set_usbmode
                0x0000000087828790       0x18 drivers/usb/host/built-in.o
 .text.ehci_get_portsc_register
                0x00000000878287a8       0x18 drivers/usb/host/built-in.o
 .text.ehci_powerup_fixup
                0x00000000878287c0        0x8 drivers/usb/host/built-in.o
 .text.handshake
                0x00000000878287c8       0x50 drivers/usb/host/built-in.o
 .text.ehci_shutdown
                0x0000000087828818       0xac drivers/usb/host/built-in.o
 .text.ehci_td_buffer
                0x00000000878288c4       0x84 drivers/usb/host/built-in.o
 .text._ehci_poll_int_queue
                0x0000000087828948       0xbc drivers/usb/host/built-in.o
 .text.disable_periodic.isra.2
                0x0000000087828a04       0x48 drivers/usb/host/built-in.o
 .text.enable_periodic.isra.3
                0x0000000087828a4c       0x50 drivers/usb/host/built-in.o
 .text._ehci_destroy_int_queue
                0x0000000087828a9c       0xdc drivers/usb/host/built-in.o
 .text.ehci_update_endpt2_dev_n_port.isra.4
                0x0000000087828b78       0x5c drivers/usb/host/built-in.o
 .text.ehci_submit_async
                0x0000000087828bd4      0x59c drivers/usb/host/built-in.o
 .text._ehci_create_int_queue.isra.6
                0x0000000087829170      0x388 drivers/usb/host/built-in.o
 .text.usb_lowlevel_stop
                0x00000000878294f8       0x28 drivers/usb/host/built-in.o
                0x00000000878294f8                usb_lowlevel_stop
 .text.usb_lowlevel_init
                0x0000000087829520      0x2a8 drivers/usb/host/built-in.o
                0x0000000087829520                usb_lowlevel_init
 .text.submit_bulk_msg
                0x00000000878297c8       0x28 drivers/usb/host/built-in.o
                0x00000000878297c8                submit_bulk_msg
 .text.submit_control_msg
                0x00000000878297f0      0x518 drivers/usb/host/built-in.o
                0x00000000878297f0                submit_control_msg
 .text.submit_int_msg
                0x0000000087829d08       0xa4 drivers/usb/host/built-in.o
                0x0000000087829d08                submit_int_msg
 .text.usb_phy_mode
                0x0000000087829dac       0x18 drivers/usb/host/built-in.o
                0x0000000087829dac                usb_phy_mode
 .text.board_ehci_power
                0x0000000087829dc4        0x8 drivers/usb/host/built-in.o
                0x0000000087829dc4                board_ehci_power
 .text.ehci_hcd_init
                0x0000000087829dcc      0x234 drivers/usb/host/built-in.o
                0x0000000087829dcc                ehci_hcd_init
 .text.ehci_hcd_stop
                0x000000008782a000        0x8 drivers/usb/host/built-in.o
                0x000000008782a000                ehci_hcd_stop
 .text.fs_probe_unsupported
                0x000000008782a008       0x18 fs/built-in.o
 .text.fs_exists_unsupported
                0x000000008782a020        0x8 fs/built-in.o
 .text.fs_size_unsupported
                0x000000008782a028        0x8 fs/built-in.o
 .text.fs_write_unsupported
                0x000000008782a030        0x8 fs/built-in.o
 .text.fs_close_unsupported
                0x000000008782a038        0x4 fs/built-in.o
 .text.fs_uuid_unsupported
                0x000000008782a03c        0x8 fs/built-in.o
 .text.fs_get_info
                0x000000008782a044       0x34 fs/built-in.o
 .text.fs_close
                0x000000008782a078       0x28 fs/built-in.o
 .text.fs_read_unsupported
                0x000000008782a0a0        0x8 fs/built-in.o
 .text.fs_ls_unsupported
                0x000000008782a0a8        0x8 fs/built-in.o
 .text.fs_set_blk_dev
                0x000000008782a0b0       0xb8 fs/built-in.o
                0x000000008782a0b0                fs_set_blk_dev
 .text.fs_ls    0x000000008782a168       0x3c fs/built-in.o
                0x000000008782a168                fs_ls
 .text.fs_exists
                0x000000008782a1a4       0x34 fs/built-in.o
                0x000000008782a1a4                fs_exists
 .text.fs_size  0x000000008782a1d8       0x3c fs/built-in.o
                0x000000008782a1d8                fs_size
 .text.fs_read  0x000000008782a214       0xa0 fs/built-in.o
                0x000000008782a214                fs_read
 .text.fs_write
                0x000000008782a2b4       0x90 fs/built-in.o
                0x000000008782a2b4                fs_write
 .text.do_size  0x000000008782a344       0x60 fs/built-in.o
                0x000000008782a344                do_size
 .text.do_load  0x000000008782a3a4      0x248 fs/built-in.o
                0x000000008782a3a4                do_load
 .text.do_ls    0x000000008782a5ec       0x68 fs/built-in.o
                0x000000008782a5ec                do_ls
 .text.file_exists
                0x000000008782a654       0x2c fs/built-in.o
                0x000000008782a654                file_exists
 .text.do_save  0x000000008782a680      0x178 fs/built-in.o
                0x000000008782a680                do_save
 .text.do_fs_type
                0x000000008782a7f8       0x70 fs/built-in.o
                0x000000008782a7f8                do_fs_type
 .text.get_fs   0x000000008782a868        0xc fs/built-in.o
                0x000000008782a868                get_fs
 .text.ext4fs_free_node
                0x000000008782a874       0x20 fs/built-in.o
                0x000000008782a874                ext4fs_free_node
 .text.ext4fs_read_file
                0x000000008782a894      0x374 fs/built-in.o
                0x000000008782a894                ext4fs_read_file
 .text.ext4fs_ls
                0x000000008782ac08       0x78 fs/built-in.o
                0x000000008782ac08                ext4fs_ls
 .text.ext4fs_exists
                0x000000008782ac80       0x1c fs/built-in.o
                0x000000008782ac80                ext4fs_exists
 .text.ext4fs_size
                0x000000008782ac9c        0x4 fs/built-in.o
                0x000000008782ac9c                ext4fs_size
 .text.ext4fs_read
                0x000000008782aca0       0x54 fs/built-in.o
                0x000000008782aca0                ext4fs_read
 .text.ext4fs_probe
                0x000000008782acf4       0x30 fs/built-in.o
                0x000000008782acf4                ext4fs_probe
 .text.ext4_read_file
                0x000000008782ad24       0x7c fs/built-in.o
                0x000000008782ad24                ext4_read_file
 .text.ext4fs_uuid
                0x000000008782ada0       0x1c fs/built-in.o
                0x000000008782ada0                ext4fs_uuid
 .text.ext4fs_div_roundup
                0x000000008782adbc       0x20 fs/built-in.o
                0x000000008782adbc                ext4fs_div_roundup
 .text.put_ext4
                0x000000008782addc      0x1a4 fs/built-in.o
                0x000000008782addc                put_ext4
 .text.ext4fs_set_block_bmap
                0x000000008782af80       0xac fs/built-in.o
                0x000000008782af80                ext4fs_set_block_bmap
 .text.ext4fs_reset_block_bmap
                0x000000008782b02c       0x98 fs/built-in.o
                0x000000008782b02c                ext4fs_reset_block_bmap
 .text.ext4fs_set_inode_bmap
                0x000000008782b0c4       0x70 fs/built-in.o
                0x000000008782b0c4                ext4fs_set_inode_bmap
 .text.ext4fs_reset_inode_bmap
                0x000000008782b134       0x6c fs/built-in.o
                0x000000008782b134                ext4fs_reset_inode_bmap
 .text.ext4fs_checksum_update
                0x000000008782b1a0       0x68 fs/built-in.o
                0x000000008782b1a0                ext4fs_checksum_update
 .text.ext4fs_get_new_blk_no
                0x000000008782b208      0x39c fs/built-in.o
                0x000000008782b208                ext4fs_get_new_blk_no
 .text.ext4fs_get_new_inode_no
                0x000000008782b5a4      0x378 fs/built-in.o
                0x000000008782b5a4                ext4fs_get_new_inode_no
 .text.ext4fs_allocate_blocks
                0x000000008782b91c      0x624 fs/built-in.o
                0x000000008782b91c                ext4fs_allocate_blocks
 .text.ext4fs_read_inode
                0x000000008782bf40      0x134 fs/built-in.o
                0x000000008782bf40                ext4fs_read_inode
 .text.ext4fs_iget
                0x000000008782c074       0x2c fs/built-in.o
                0x000000008782c074                ext4fs_iget
 .text.read_allocated_block
                0x000000008782c0a0      0x904 fs/built-in.o
                0x000000008782c0a0                read_allocated_block
 .text.ext4fs_update_parent_dentry
                0x000000008782c9a4      0x3a8 fs/built-in.o
                0x000000008782c9a4                ext4fs_update_parent_dentry
 .text.search_dir
                0x000000008782cd4c      0x120 fs/built-in.o
 .text.ext4fs_get_parent_inode_num
                0x000000008782ce6c      0x438 fs/built-in.o
                0x000000008782ce6c                ext4fs_get_parent_inode_num
 .text.ext4fs_filename_check
                0x000000008782d2a4      0x174 fs/built-in.o
                0x000000008782d2a4                ext4fs_filename_check
 .text.ext4fs_reinit_global
                0x000000008782d418       0xbc fs/built-in.o
                0x000000008782d418                ext4fs_reinit_global
 .text.ext4fs_close
                0x000000008782d4d4       0x5c fs/built-in.o
                0x000000008782d4d4                ext4fs_close
 .text.ext4fs_iterate_dir
                0x000000008782d530      0x2dc fs/built-in.o
                0x000000008782d530                ext4fs_iterate_dir
 .text.ext4fs_find_file1
                0x000000008782d80c      0x2bc fs/built-in.o
 .text.ext4fs_find_file
                0x000000008782dac8       0x78 fs/built-in.o
                0x000000008782dac8                ext4fs_find_file
 .text.ext4fs_open
                0x000000008782db40       0xac fs/built-in.o
                0x000000008782db40                ext4fs_open
 .text.ext4fs_mount
                0x000000008782dbec       0xc4 fs/built-in.o
                0x000000008782dbec                ext4fs_mount
 .text.ext4fs_set_blk_dev
                0x000000008782dcb0       0x6c fs/built-in.o
                0x000000008782dcb0                ext4fs_set_blk_dev
 .text.ext4fs_devread
                0x000000008782dd1c      0x274 fs/built-in.o
                0x000000008782dd1c                ext4fs_devread
 .text.ext4_read_superblock
                0x000000008782df90       0x38 fs/built-in.o
                0x000000008782df90                ext4_read_superblock
 .text.ext4fs_update
                0x000000008782dfc8       0xec fs/built-in.o
 .text.ext4fs_get_bgdtable
                0x000000008782e0b4       0xd4 fs/built-in.o
                0x000000008782e0b4                ext4fs_get_bgdtable
 .text.ext4fs_deinit
                0x000000008782e188      0x19c fs/built-in.o
                0x000000008782e188                ext4fs_deinit
 .text.ext4fs_init
                0x000000008782e324      0x2bc fs/built-in.o
                0x000000008782e324                ext4fs_init
 .text.ext4fs_write
                0x000000008782e5e0     0x1260 fs/built-in.o
                0x000000008782e5e0                ext4fs_write
 .text.ext4_write_file
                0x000000008782f840       0x60 fs/built-in.o
                0x000000008782f840                ext4_write_file
 .text.ext4fs_dump_metadata
                0x000000008782f8a0       0x54 fs/built-in.o
                0x000000008782f8a0                ext4fs_dump_metadata
 .text.ext4fs_free_journal
                0x000000008782f8f4       0xe8 fs/built-in.o
                0x000000008782f8f4                ext4fs_free_journal
 .text.ext4fs_log_gdt
                0x000000008782f9dc       0xc8 fs/built-in.o
                0x000000008782f9dc                ext4fs_log_gdt
 .text.ext4fs_log_journal
                0x000000008782faa4       0xe8 fs/built-in.o
                0x000000008782faa4                ext4fs_log_journal
 .text.ext4fs_put_metadata
                0x000000008782fb8c       0xbc fs/built-in.o
                0x000000008782fb8c                ext4fs_put_metadata
 .text.ext4fs_push_revoke_blk
                0x000000008782fc48       0xd8 fs/built-in.o
                0x000000008782fc48                ext4fs_push_revoke_blk
 .text.ext4fs_free_revoke_blks
                0x000000008782fd20       0x70 fs/built-in.o
                0x000000008782fd20                ext4fs_free_revoke_blks
 .text.check_blknr_for_revoke
                0x000000008782fd90       0x6c fs/built-in.o
                0x000000008782fd90                check_blknr_for_revoke
 .text.recover_transaction
                0x000000008782fdfc      0x168 fs/built-in.o
                0x000000008782fdfc                recover_transaction
 .text.print_jrnl_status
                0x000000008782ff64       0x18 fs/built-in.o
                0x000000008782ff64                print_jrnl_status
 .text.ext4fs_check_journal_state
                0x000000008782ff7c      0x30c fs/built-in.o
                0x000000008782ff7c                ext4fs_check_journal_state
 .text.ext4fs_init_journal
                0x0000000087830288      0x254 fs/built-in.o
                0x0000000087830288                ext4fs_init_journal
 .text.ext4fs_update_journal
                0x00000000878304dc      0x328 fs/built-in.o
                0x00000000878304dc                ext4fs_update_journal
 .text.ext2fs_crc16
                0x0000000087830804       0x3c fs/built-in.o
                0x0000000087830804                ext2fs_crc16
 .text.downcase
                0x0000000087830840       0x30 fs/built-in.o
 .text.disk_read
                0x0000000087830870       0x74 fs/built-in.o
 .text.dirdelim
                0x00000000878308e4       0x38 fs/built-in.o
 .text.get_fatent
                0x000000008783091c      0x150 fs/built-in.o
 .text.mkcksum  0x0000000087830a6c       0x50 fs/built-in.o
 .text.disk_write
                0x0000000087830abc       0x94 fs/built-in.o
 .text.flush_fat_buffer
                0x0000000087830b50       0x80 fs/built-in.o
 .text.set_fatent_value
                0x0000000087830bd0      0x100 fs/built-in.o
 .text.get_fatent_value
                0x0000000087830cd0      0x1c4 fs/built-in.o
 .text.find_empty_cluster
                0x0000000087830e94       0x2c fs/built-in.o
 .text.get_cluster
                0x0000000087830ec0      0x170 fs/built-in.o
 .text.get_name
                0x0000000087831030       0xac fs/built-in.o
 .text.set_cluster
                0x00000000878310dc      0x168 fs/built-in.o
 .text.read_bootsectandvi
                0x0000000087831244      0x128 fs/built-in.o
 .text.set_name
                0x000000008783136c      0x154 fs/built-in.o
 .text.check_overflow
                0x00000000878314c0       0xa8 fs/built-in.o
 .text.slot2str
                0x0000000087831568       0xbc fs/built-in.o
 .text.get_vfatname
                0x0000000087831624      0x1b8 fs/built-in.o
 .text.flush_dir_table.constprop.8
                0x00000000878317dc       0xc8 fs/built-in.o
 .text.do_fat_write
                0x00000000878318a4      0xbec fs/built-in.o
 .text.fat_set_blk_dev
                0x0000000087832490       0xcc fs/built-in.o
                0x0000000087832490                fat_set_blk_dev
 .text.do_fat_read_at
                0x000000008783255c      0xca4 fs/built-in.o
                0x000000008783255c                do_fat_read_at
 .text.do_fat_read
                0x0000000087833200       0x3c fs/built-in.o
                0x0000000087833200                do_fat_read
 .text.file_fat_detectfs
                0x000000008783323c      0x148 fs/built-in.o
                0x000000008783323c                file_fat_detectfs
 .text.file_fat_ls
                0x0000000087833384       0x2c fs/built-in.o
                0x0000000087833384                file_fat_ls
 .text.fat_exists
                0x00000000878333b0       0x44 fs/built-in.o
                0x00000000878333b0                fat_exists
 .text.fat_size
                0x00000000878333f4       0x38 fs/built-in.o
                0x00000000878333f4                fat_size
 .text.file_fat_read_at
                0x000000008783342c       0x60 fs/built-in.o
                0x000000008783342c                file_fat_read_at
 .text.fat_read_file
                0x000000008783348c       0x48 fs/built-in.o
                0x000000008783348c                fat_read_file
 .text.fat_close
                0x00000000878334d4        0x4 fs/built-in.o
                0x00000000878334d4                fat_close
 .text.file_fat_write
                0x00000000878334d8       0x5c fs/built-in.o
                0x00000000878334d8                file_fat_write
 .text.zcalloc  0x0000000087833534        0x8 lib/built-in.o
                0x0000000087833534                zcalloc
 .text.zcfree   0x000000008783353c        0x8 lib/built-in.o
                0x000000008783353c                zcfree
 .text.inflate_fast
                0x0000000087833544      0x590 lib/built-in.o
                0x0000000087833544                inflate_fast
 .text.inflate_table
                0x0000000087833ad4      0x530 lib/built-in.o
                0x0000000087833ad4                inflate_table
 .text.inflateReset
                0x0000000087834004       0x78 lib/built-in.o
                0x0000000087834004                inflateReset
 .text.inflateInit2_
                0x000000008783407c      0x104 lib/built-in.o
                0x000000008783407c                inflateInit2_
 .text.inflateEnd
                0x0000000087834180       0x68 lib/built-in.o
                0x0000000087834180                inflateEnd
 .text.adler32  0x00000000878341e8      0x334 lib/built-in.o
                0x00000000878341e8                adler32
 .text.inflate  0x000000008783451c     0x14e4 lib/built-in.o
                0x000000008783451c                inflate
 .text.fdt_check_header
                0x0000000087835a00       0x74 lib/built-in.o
                0x0000000087835a00                fdt_check_header
 .text.fdt_offset_ptr
                0x0000000087835a74       0x4c lib/built-in.o
                0x0000000087835a74                fdt_offset_ptr
 .text.fdt_next_tag
                0x0000000087835ac0       0xfc lib/built-in.o
                0x0000000087835ac0                fdt_next_tag
 .text._fdt_check_node_offset
                0x0000000087835bbc       0x3c lib/built-in.o
                0x0000000087835bbc                _fdt_check_node_offset
 .text._fdt_check_prop_offset
                0x0000000087835bf8       0x3c lib/built-in.o
                0x0000000087835bf8                _fdt_check_prop_offset
 .text.fdt_next_node
                0x0000000087835c34       0xb8 lib/built-in.o
                0x0000000087835c34                fdt_next_node
 .text._fdt_find_string
                0x0000000087835cec       0x5c lib/built-in.o
                0x0000000087835cec                _fdt_find_string
 .text.fdt_move
                0x0000000087835d48       0x48 lib/built-in.o
                0x0000000087835d48                fdt_move
 .text.fdt_path_next_seperator
                0x0000000087835d90       0x44 lib/built-in.o
 .text._nextprop
                0x0000000087835dd4       0x5c lib/built-in.o
 .text.fdt_string
                0x0000000087835e30       0x14 lib/built-in.o
                0x0000000087835e30                fdt_string
 .text.fdt_get_mem_rsv
                0x0000000087835e44       0x60 lib/built-in.o
                0x0000000087835e44                fdt_get_mem_rsv
 .text.fdt_num_mem_rsv
                0x0000000087835ea4       0x3c lib/built-in.o
                0x0000000087835ea4                fdt_num_mem_rsv
 .text.fdt_subnode_offset_namelen
                0x0000000087835ee0       0xd8 lib/built-in.o
                0x0000000087835ee0                fdt_subnode_offset_namelen
 .text.fdt_subnode_offset
                0x0000000087835fb8       0x30 lib/built-in.o
                0x0000000087835fb8                fdt_subnode_offset
 .text.fdt_get_name
                0x0000000087835fe8       0x74 lib/built-in.o
                0x0000000087835fe8                fdt_get_name
 .text.fdt_first_property_offset
                0x000000008783605c       0x20 lib/built-in.o
                0x000000008783605c                fdt_first_property_offset
 .text.fdt_next_property_offset
                0x000000008783607c       0x20 lib/built-in.o
                0x000000008783607c                fdt_next_property_offset
 .text.fdt_get_property_by_offset
                0x000000008783609c       0x50 lib/built-in.o
                0x000000008783609c                fdt_get_property_by_offset
 .text.fdt_get_property_namelen
                0x00000000878360ec       0xb8 lib/built-in.o
                0x00000000878360ec                fdt_get_property_namelen
 .text.fdt_get_property
                0x00000000878361a4       0x3c lib/built-in.o
                0x00000000878361a4                fdt_get_property
 .text.fdt_getprop_namelen
                0x00000000878361e0       0x20 lib/built-in.o
                0x00000000878361e0                fdt_getprop_namelen
 .text.fdt_getprop_by_offset
                0x0000000087836200       0x48 lib/built-in.o
                0x0000000087836200                fdt_getprop_by_offset
 .text.fdt_getprop
                0x0000000087836248       0x3c lib/built-in.o
                0x0000000087836248                fdt_getprop
 .text.fdt_get_alias_namelen
                0x0000000087836284       0x44 lib/built-in.o
                0x0000000087836284                fdt_get_alias_namelen
 .text.fdt_path_offset
                0x00000000878362c8       0xf0 lib/built-in.o
                0x00000000878362c8                fdt_path_offset
 .text.fdt_supernode_atdepth_offset
                0x00000000878363b8       0xa4 lib/built-in.o
                0x00000000878363b8                fdt_supernode_atdepth_offset
 .text.fdt_node_depth
                0x000000008783645c       0x28 lib/built-in.o
                0x000000008783645c                fdt_node_depth
 .text._fdt_blocks_misordered
                0x0000000087836484       0x64 lib/built-in.o
 .text._fdt_splice
                0x00000000878364e8       0x7c lib/built-in.o
 .text._fdt_splice_mem_rsv
                0x0000000087836564       0x58 lib/built-in.o
 .text._fdt_splice_struct
                0x00000000878365bc       0x4c lib/built-in.o
 .text._fdt_packblocks
                0x0000000087836608       0x8c lib/built-in.o
 .text._fdt_find_add_string
                0x0000000087836694       0xa4 lib/built-in.o
 .text._fdt_add_property
                0x0000000087836738       0x98 lib/built-in.o
 .text._fdt_rw_check_header
                0x00000000878367d0       0x60 lib/built-in.o
 .text.fdt_add_mem_rsv
                0x0000000087836830       0x88 lib/built-in.o
                0x0000000087836830                fdt_add_mem_rsv
 .text.fdt_del_mem_rsv
                0x00000000878368b8       0x5c lib/built-in.o
                0x00000000878368b8                fdt_del_mem_rsv
 .text.fdt_setprop
                0x0000000087836914       0xc8 lib/built-in.o
                0x0000000087836914                fdt_setprop
 .text.fdt_delprop
                0x00000000878369dc       0x60 lib/built-in.o
                0x00000000878369dc                fdt_delprop
 .text.fdt_add_subnode_namelen
                0x0000000087836a3c       0xf0 lib/built-in.o
                0x0000000087836a3c                fdt_add_subnode_namelen
 .text.fdt_add_subnode
                0x0000000087836b2c       0x30 lib/built-in.o
                0x0000000087836b2c                fdt_add_subnode
 .text.fdt_del_node
                0x0000000087836b5c       0x58 lib/built-in.o
                0x0000000087836b5c                fdt_del_node
 .text.fdt_open_into
                0x0000000087836bb4      0x190 lib/built-in.o
                0x0000000087836bb4                fdt_open_into
 .text.fdt_strerror
                0x0000000087836d44       0x58 lib/built-in.o
                0x0000000087836d44                fdt_strerror
 .text._fdt_node_end_offset
                0x0000000087836d9c       0x44 lib/built-in.o
                0x0000000087836d9c                _fdt_node_end_offset
 .text.fdt_address_cells
                0x0000000087836de0       0x4c lib/built-in.o
                0x0000000087836de0                fdt_address_cells
 .text.fdt_size_cells
                0x0000000087836e2c       0x48 lib/built-in.o
                0x0000000087836e2c                fdt_size_cells
 .text.cyg_crc16
                0x0000000087836e74       0x44 lib/built-in.o
                0x0000000087836e74                cyg_crc16
 .text.gzalloc  0x0000000087836eb8       0x10 lib/built-in.o
                0x0000000087836eb8                gzalloc
 .text.gzfree   0x0000000087836ec8        0x8 lib/built-in.o
                0x0000000087836ec8                gzfree
 .text.zunzip   0x0000000087836ed0      0x11c lib/built-in.o
                0x0000000087836ed0                zunzip
 .text.gunzip   0x0000000087836fec       0xb8 lib/built-in.o
                0x0000000087836fec                gunzip
 .text.initcall_run_list
                0x00000000878370a4       0x60 lib/built-in.o
                0x00000000878370a4                initcall_run_list
 .text.lmb_add_region
                0x0000000087837104      0x18c lib/built-in.o
 .text.lmb_init
                0x0000000087837290       0x28 lib/built-in.o
                0x0000000087837290                lmb_init
 .text.lmb_add  0x00000000878372b8        0x4 lib/built-in.o
                0x00000000878372b8                lmb_add
 .text.lmb_free
                0x00000000878372bc       0xfc lib/built-in.o
                0x00000000878372bc                lmb_free
 .text.lmb_reserve
                0x00000000878373b8        0x8 lib/built-in.o
                0x00000000878373b8                lmb_reserve
 .text.__lmb_alloc_base
                0x00000000878373c0      0x124 lib/built-in.o
                0x00000000878373c0                __lmb_alloc_base
 .text.lmb_alloc_base
                0x00000000878374e4       0x34 lib/built-in.o
                0x00000000878374e4                lmb_alloc_base
 .text.lmb_alloc
                0x0000000087837518        0x8 lib/built-in.o
                0x0000000087837518                lmb_alloc
 .text.board_lmb_reserve
                0x0000000087837520        0x4 lib/built-in.o
                0x0000000087837520                board_lmb_reserve
 .text.string_to_ip
                0x0000000087837524       0x68 lib/built-in.o
                0x0000000087837524                string_to_ip
 .text.qsort    0x000000008783758c       0xe0 lib/built-in.o
                0x000000008783758c                qsort
 .text.strcmp_compar
                0x000000008783766c        0xc lib/built-in.o
                0x000000008783766c                strcmp_compar
 .text.cmpkey   0x0000000087837678       0x14 lib/built-in.o
 .text._hdelete.isra.0
                0x000000008783768c       0x50 lib/built-in.o
 .text.drop_var_from_set.part.1
                0x00000000878376dc       0x50 lib/built-in.o
 .text.match_string
                0x000000008783772c       0xb4 lib/built-in.o
 .text.match_entry
                0x00000000878377e0       0xc0 lib/built-in.o
 .text.hcreate_r
                0x00000000878378a0       0xb0 lib/built-in.o
                0x00000000878378a0                hcreate_r
 .text.hdestroy_r
                0x0000000087837950       0x78 lib/built-in.o
                0x0000000087837950                hdestroy_r
 .text.hmatch_r
                0x00000000878379c8       0xa0 lib/built-in.o
                0x00000000878379c8                hmatch_r
 .text.hsearch_r
                0x0000000087837a68      0x4a4 lib/built-in.o
                0x0000000087837a68                hsearch_r
 .text.hdelete_r
                0x0000000087837f0c       0xdc lib/built-in.o
                0x0000000087837f0c                hdelete_r
 .text.hexport_r
                0x0000000087837fe8      0x2a4 lib/built-in.o
                0x0000000087837fe8                hexport_r
 .text.himport_r
                0x000000008783828c      0x3e4 lib/built-in.o
                0x000000008783828c                himport_r
 .text.hwalk_r  0x0000000087838670       0x5c lib/built-in.o
                0x0000000087838670                hwalk_r
 .text.display_options
                0x00000000878386cc       0x20 lib/built-in.o
                0x00000000878386cc                display_options
 .text.print_size
                0x00000000878386ec      0x144 lib/built-in.o
                0x00000000878386ec                print_size
 .text.print_buffer
                0x0000000087838830      0x1b4 lib/built-in.o
                0x0000000087838830                print_buffer
 .text.crc32_no_comp
                0x00000000878389e4       0xcc lib/built-in.o
                0x00000000878389e4                crc32_no_comp
 .text.crc32    0x0000000087838ab0       0x14 lib/built-in.o
                0x0000000087838ab0                crc32
 .text.crc32_wd
                0x0000000087838ac4        0x4 lib/built-in.o
                0x0000000087838ac4                crc32_wd
 .text.__div64_32
                0x0000000087838ac8       0xd0 lib/built-in.o
                0x0000000087838ac8                __div64_32
 .text.hang     0x0000000087838b98       0x1c lib/built-in.o
                0x0000000087838b98                hang
 .text.skip_spaces
                0x0000000087838bb4       0x28 lib/built-in.o
                0x0000000087838bb4                skip_spaces
 .text.strim    0x0000000087838bdc       0x60 lib/built-in.o
                0x0000000087838bdc                strim
 .text.emit     0x0000000087838c3c       0x24 lib/built-in.o
 .text.store_char_in_data
                0x0000000087838c60       0x28 lib/built-in.o
 .text.get_escape_char
                0x0000000087838c88       0x80 lib/built-in.o
 .text.relocate
                0x0000000087838d08       0x40 lib/built-in.o
 .text.match    0x0000000087838d48      0x3f4 lib/built-in.o
 .text.loop_greedy
                0x000000008783913c       0x94 lib/built-in.o
 .text.loop_non_greedy
                0x00000000878391d0       0x80 lib/built-in.o
 .text.quantifier
                0x0000000087839250       0x94 lib/built-in.o
 .text.fixup_branch
                0x00000000878392e4       0x40 lib/built-in.o
 .text.compile  0x0000000087839324      0x354 lib/built-in.o
 .text.slre_compile
                0x0000000087839678       0xd0 lib/built-in.o
                0x0000000087839678                slre_compile
 .text.slre_match
                0x0000000087839748       0xa0 lib/built-in.o
                0x0000000087839748                slre_match
 .text.strcpy   0x00000000878397e8       0x18 lib/built-in.o
                0x00000000878397e8                strcpy
 .text.strncpy  0x0000000087839800       0x24 lib/built-in.o
                0x0000000087839800                strncpy
 .text.strcat   0x0000000087839824       0x30 lib/built-in.o
                0x0000000087839824                strcat
 .text.strncat  0x0000000087839854       0x54 lib/built-in.o
                0x0000000087839854                strncat
 .text.strcmp   0x00000000878398a8       0x28 lib/built-in.o
                0x00000000878398a8                strcmp
 .text.strncmp  0x00000000878398d0       0x3c lib/built-in.o
                0x00000000878398d0                strncmp
 .text.strchr   0x000000008783990c       0x2c lib/built-in.o
                0x000000008783990c                strchr
 .text.strlen   0x0000000087839938       0x20 lib/built-in.o
                0x0000000087839938                strlen
 .text.strrchr  0x0000000087839958       0x3c lib/built-in.o
                0x0000000087839958                strrchr
 .text.strnlen  0x0000000087839994       0x2c lib/built-in.o
                0x0000000087839994                strnlen
 .text.strdup   0x00000000878399c0       0x40 lib/built-in.o
                0x00000000878399c0                strdup
 .text.strspn   0x0000000087839a00       0x3c lib/built-in.o
                0x0000000087839a00                strspn
 .text.strpbrk  0x0000000087839a3c       0x3c lib/built-in.o
                0x0000000087839a3c                strpbrk
 .text.strtok   0x0000000087839a78       0x84 lib/built-in.o
                0x0000000087839a78                strtok
 .text.memset   0x0000000087839afc       0x64 lib/built-in.o
                0x0000000087839afc                memset
 .text.memcpy   0x0000000087839b60       0x74 lib/built-in.o
                0x0000000087839b60                memcpy
 .text.strlcpy  0x0000000087839bd4       0x50 lib/built-in.o
                0x0000000087839bd4                strlcpy
 .text.memmove  0x0000000087839c24       0x44 lib/built-in.o
                0x0000000087839c24                memmove
 .text.memcmp   0x0000000087839c68       0x34 lib/built-in.o
                0x0000000087839c68                memcmp
 .text.strstr   0x0000000087839c9c       0x6c lib/built-in.o
                0x0000000087839c9c                strstr
 .text.memchr   0x0000000087839d08       0x30 lib/built-in.o
                0x0000000087839d08                memchr
 .text.udelay   0x0000000087839d38       0x30 lib/built-in.o
                0x0000000087839d38                udelay
 .text.mdelay   0x0000000087839d68       0x24 lib/built-in.o
                0x0000000087839d68                mdelay
 .text.put_dec_trunc
                0x0000000087839d8c       0xd4 lib/built-in.o
 .text.string   0x0000000087839e60       0xbc lib/built-in.o
 *fill*         0x0000000087839f1c        0x4 
 .text.put_dec  0x0000000087839f20      0x140 lib/built-in.o
 .text.number   0x000000008783a060      0x2b8 lib/built-in.o
 .text.vsnprintf_internal
                0x000000008783a318      0x6ac lib/built-in.o
 .text.vscnprintf
                0x000000008783a9c4       0x24 lib/built-in.o
                0x000000008783a9c4                vscnprintf
 .text.snprintf
                0x000000008783a9e8       0x28 lib/built-in.o
                0x000000008783a9e8                snprintf
 .text.vsprintf
                0x000000008783aa10       0x10 lib/built-in.o
                0x000000008783aa10                vsprintf
 .text.sprintf  0x000000008783aa20       0x28 lib/built-in.o
                0x000000008783aa20                sprintf
 .text.printf   0x000000008783aa48       0x44 lib/built-in.o
                0x000000008783aa48                printf
 .text.vprintf  0x000000008783aa8c       0x34 lib/built-in.o
                0x000000008783aa8c                vprintf
 .text.simple_itoa
                0x000000008783aac0       0x54 lib/built-in.o
                0x000000008783aac0                simple_itoa
 .text.str2off  0x000000008783ab14       0x3c lib/built-in.o
                0x000000008783ab14                str2off
 .text.panic_finish
                0x000000008783ab50       0x30 lib/built-in.o
 .text.panic    0x000000008783ab80       0x1c lib/built-in.o
                0x000000008783ab80                panic
 .text.simple_strtoul
                0x000000008783ab9c       0xb8 lib/built-in.o
                0x000000008783ab9c                simple_strtoul
 .text.strict_strtoul
                0x000000008783ac54       0x78 lib/built-in.o
                0x000000008783ac54                strict_strtoul
 .text.simple_strtol
                0x000000008783accc       0x24 lib/built-in.o
                0x000000008783accc                simple_strtol
 .text.ustrtoul
                0x000000008783acf0       0x70 lib/built-in.o
                0x000000008783acf0                ustrtoul
 .text.simple_strtoull
                0x000000008783ad60       0xdc lib/built-in.o
                0x000000008783ad60                simple_strtoull
 .text.ustrtoull
                0x000000008783ae3c       0x88 lib/built-in.o
                0x000000008783ae3c                ustrtoull
 .text.trailing_strtoln
                0x000000008783aec4       0x5c lib/built-in.o
                0x000000008783aec4                trailing_strtoln
 .text.trailing_strtol
                0x000000008783af20        0x8 lib/built-in.o
                0x000000008783af20                trailing_strtol
 .text.compute_ip_checksum
                0x000000008783af28       0x6c net/built-in.o
                0x000000008783af28                compute_ip_checksum
 .text.ip_checksum_ok
                0x000000008783af94       0x1c net/built-in.o
                0x000000008783af94                ip_checksum_ok
 .text.arp_init
                0x000000008783afb0       0x50 net/built-in.o
                0x000000008783afb0                arp_init
 .text.arp_raw_request
                0x000000008783b000       0xc0 net/built-in.o
                0x000000008783b000                arp_raw_request
 .text.arp_request
                0x000000008783b0c0       0x84 net/built-in.o
                0x000000008783b0c0                arp_request
 .text.arp_timeout_check
                0x000000008783b144       0x90 net/built-in.o
                0x000000008783b144                arp_timeout_check
 .text.arp_receive
                0x000000008783b1d4      0x218 net/built-in.o
                0x000000008783b1d4                arp_receive
 .text.dhcp_process_options
                0x000000008783b3ec      0x1fc net/built-in.o
 .text.dhcp_packet_process_options
                0x000000008783b5e8       0x84 net/built-in.o
 .text.dhcp_handler
                0x000000008783b66c      0x4b0 net/built-in.o
 .text.bootp_reset
                0x000000008783bb1c       0x44 net/built-in.o
                0x000000008783bb1c                bootp_reset
 .text.bootp_request
                0x000000008783bb60      0x2d8 net/built-in.o
                0x000000008783bb60                bootp_request
 .text.bootp_timeout_handler
                0x000000008783be38       0x70 net/built-in.o
 .text.dhcp_request
                0x000000008783bea8        0x4 net/built-in.o
                0x000000008783bea8                dhcp_request
 .text.__def_eth_init
                0x000000008783beac        0x8 net/built-in.o
 .text.on_ethaddr
                0x000000008783beb4       0x90 net/built-in.o
 .text.eth_set_current_to_next
                0x000000008783bf44       0x18 net/built-in.o
                0x000000008783bf44                eth_set_current_to_next
 .text.eth_set_dev
                0x000000008783bf5c       0x10 net/built-in.o
                0x000000008783bf5c                eth_set_dev
 .text.eth_get_dev_by_name
                0x000000008783bf6c       0x84 net/built-in.o
                0x000000008783bf6c                eth_get_dev_by_name
 .text.eth_get_dev_by_index
                0x000000008783bff0       0x40 net/built-in.o
                0x000000008783bff0                eth_get_dev_by_index
 .text.eth_get_dev_index
                0x000000008783c030       0x1c net/built-in.o
                0x000000008783c030                eth_get_dev_index
 .text.eth_write_hwaddr
                0x000000008783c04c      0x1e8 net/built-in.o
                0x000000008783c04c                eth_write_hwaddr
 .text.eth_register
                0x000000008783c234       0x7c net/built-in.o
                0x000000008783c234                eth_register
 .text.eth_unregister
                0x000000008783c2b0       0x98 net/built-in.o
                0x000000008783c2b0                eth_unregister
 .text.eth_initialize
                0x000000008783c348      0x190 net/built-in.o
                0x000000008783c348                eth_initialize
 .text.eth_init
                0x000000008783c4d8       0x74 net/built-in.o
                0x000000008783c4d8                eth_init
 .text.eth_halt
                0x000000008783c54c       0x30 net/built-in.o
                0x000000008783c54c                eth_halt
 .text.eth_send
                0x000000008783c57c       0x3c net/built-in.o
                0x000000008783c57c                eth_send
 .text.eth_rx   0x000000008783c5b8       0x24 net/built-in.o
                0x000000008783c5b8                eth_rx
 .text.eth_parse_enetaddr
                0x000000008783c5dc       0x5c net/built-in.o
                0x000000008783c5dc                eth_parse_enetaddr
 .text.eth_getenv_enetaddr
                0x000000008783c638       0x5c net/built-in.o
                0x000000008783c638                eth_getenv_enetaddr
 .text.eth_setenv_enetaddr
                0x000000008783c694       0x34 net/built-in.o
                0x000000008783c694                eth_setenv_enetaddr
 .text.eth_getenv_enetaddr_by_index
                0x000000008783c6c8       0x4c net/built-in.o
                0x000000008783c6c8                eth_getenv_enetaddr_by_index
 .text.eth_setenv_enetaddr_by_index
                0x000000008783c714       0x4c net/built-in.o
                0x000000008783c714                eth_setenv_enetaddr_by_index
 .text.eth_common_init
                0x000000008783c760       0x18 net/built-in.o
                0x000000008783c760                eth_common_init
 .text.eth_mac_skip
                0x000000008783c778       0x40 net/built-in.o
                0x000000008783c778                eth_mac_skip
 .text.eth_get_name
                0x000000008783c7b8       0x20 net/built-in.o
                0x000000008783c7b8                eth_get_name
 .text.eth_current_changed
                0x000000008783c7d8       0x9c net/built-in.o
                0x000000008783c7d8                eth_current_changed
 .text.eth_try_another
                0x000000008783c874       0x88 net/built-in.o
                0x000000008783c874                eth_try_another
 .text.eth_set_current
                0x000000008783c8fc       0x8c net/built-in.o
                0x000000008783c8fc                eth_set_current
 .text.net_clear_handlers
                0x000000008783c988       0x34 net/built-in.o
 .text.start_again_timeout_handler
                0x000000008783c9bc       0x14 net/built-in.o
 .text.dummy_handler
                0x000000008783c9d0        0x4 net/built-in.o
 .text.on_ipaddr
                0x000000008783c9d4       0x30 net/built-in.o
 .text.on_gatewayip
                0x000000008783ca04       0x30 net/built-in.o
 .text.on_netmask
                0x000000008783ca34       0x30 net/built-in.o
 .text.on_serverip
                0x000000008783ca64       0x30 net/built-in.o
 .text.net_init_loop
                0x000000008783ca94       0x28 net/built-in.o
 .text.net_auto_load
                0x000000008783cabc       0x64 net/built-in.o
                0x000000008783cabc                net_auto_load
 .text.net_init
                0x000000008783cb20       0x70 net/built-in.o
                0x000000008783cb20                net_init
 .text.net_start_again
                0x000000008783cb90      0x168 net/built-in.o
                0x000000008783cb90                net_start_again
 .text.net_loop
                0x000000008783ccf8      0x378 net/built-in.o
                0x000000008783ccf8                net_loop
 .text.net_set_udp_handler
                0x000000008783d070       0x20 net/built-in.o
                0x000000008783d070                net_set_udp_handler
 .text.net_get_arp_handler
                0x000000008783d090       0x10 net/built-in.o
                0x000000008783d090                net_get_arp_handler
 .text.net_set_timeout_handler
                0x000000008783d0a0       0x60 net/built-in.o
                0x000000008783d0a0                net_set_timeout_handler
 .text.net_process_received_packet
                0x000000008783d100      0x2a8 net/built-in.o
                0x000000008783d100                net_process_received_packet
 .text.net_eth_hdr_size
                0x000000008783d3a8       0x3c net/built-in.o
                0x000000008783d3a8                net_eth_hdr_size
 .text.net_set_ether
                0x000000008783d3e4       0x98 net/built-in.o
                0x000000008783d3e4                net_set_ether
 .text.net_update_ether
                0x000000008783d47c       0x7c net/built-in.o
                0x000000008783d47c                net_update_ether
 .text.net_set_ip_header
                0x000000008783d4f8       0x88 net/built-in.o
                0x000000008783d4f8                net_set_ip_header
 .text.net_set_udp_header
                0x000000008783d580       0x84 net/built-in.o
                0x000000008783d580                net_set_udp_header
 .text.net_send_udp_packet
                0x000000008783d604      0x108 net/built-in.o
                0x000000008783d604                net_send_udp_packet
 .text.copy_filename
                0x000000008783d70c       0x44 net/built-in.o
                0x000000008783d70c                copy_filename
 .text.on_bootfile
                0x000000008783d750       0x34 net/built-in.o
 .text.ip_to_string
                0x000000008783d784       0x3c net/built-in.o
                0x000000008783d784                ip_to_string
 .text.string_to_vlan
                0x000000008783d7c0       0x50 net/built-in.o
                0x000000008783d7c0                string_to_vlan
 .text.on_nvlan
                0x000000008783d810       0x30 net/built-in.o
 .text.on_vlan  0x000000008783d840       0x30 net/built-in.o
 .text.rpc_lookup_reply
                0x000000008783d870       0xb0 net/built-in.o
 .text.nfs_mount_reply
                0x000000008783d920       0xa4 net/built-in.o
 .text.nfs_umountall_reply
                0x000000008783d9c4       0x94 net/built-in.o
 .text.nfs_lookup_reply
                0x000000008783da58       0x94 net/built-in.o
 .text.nfs_readlink_reply
                0x000000008783daec       0xf8 net/built-in.o
 .text.basename
                0x000000008783dbe4       0x3c net/built-in.o
 .text.rpc_add_credentials
                0x000000008783dc20       0xb4 net/built-in.o
 .text.rpc_req  0x000000008783dcd4       0xfc net/built-in.o
 .text.nfs_mount_req
                0x000000008783ddd0       0x98 net/built-in.o
 .text.nfs_umountall_req
                0x000000008783de68       0x60 net/built-in.o
 .text.nfs_lookup_req
                0x000000008783dec8       0xac net/built-in.o
 .text.nfs_read_req
                0x000000008783df74       0x78 net/built-in.o
 .text.nfs_readlink_req
                0x000000008783dfec       0x58 net/built-in.o
 .text.nfs_read_reply.isra.0
                0x000000008783e044      0x138 net/built-in.o
 .text.nfs_send
                0x000000008783e17c      0x114 net/built-in.o
 .text.nfs_handler
                0x000000008783e290      0x220 net/built-in.o
 .text.nfs_timeout_handler
                0x000000008783e4b0       0x64 net/built-in.o
 .text.nfs_start
                0x000000008783e514      0x24c net/built-in.o
                0x000000008783e514                nfs_start
 .text.ping_timeout_handler
                0x000000008783e760       0x1c net/built-in.o
 .text.ping_start
                0x000000008783e77c      0x11c net/built-in.o
                0x000000008783e77c                ping_start
 .text.ping_receive
                0x000000008783e898       0xdc net/built-in.o
                0x000000008783e898                ping_receive
 .text.tftp_send
                0x000000008783e974      0x1c8 net/built-in.o
 .text.tftp_handler
                0x000000008783eb3c      0x394 net/built-in.o
 .text.tftp_timeout_handler
                0x000000008783eed0       0x88 net/built-in.o
 .text.tftp_start
                0x000000008783ef58      0x374 net/built-in.o
                0x000000008783ef58                tftp_start
 .text.do_dm_dump_devres
                0x000000008783f2cc        0x8 test/dm/built-in.o
 .text.do_dm    0x000000008783f2d4       0x74 test/dm/built-in.o
 .text.do_dm_dump_uclass
                0x000000008783f348       0x10 test/dm/built-in.o
 .text.do_dm_dump_all
                0x000000008783f358       0x10 test/dm/built-in.o
 .text.raise    0x000000008783f368       0x1c arch/arm/lib/eabi_compat.o
                0x000000008783f368                raise
 *fill*         0x000000008783f384        0x4 
 .text          0x000000008783f388      0x278 /usr/lib/gcc-cross/arm-linux-gnueabihf/5/libgcc.a(_udivsi3.o)
                0x000000008783f388                __udivsi3
                0x000000008783f388                __aeabi_uidiv
                0x000000008783f5e4                __aeabi_uidivmod
 .text          0x000000008783f600      0x2b0 /usr/lib/gcc-cross/arm-linux-gnueabihf/5/libgcc.a(_divsi3.o)
                0x000000008783f600                __aeabi_idiv
                0x000000008783f600                __divsi3
                0x000000008783f894                __aeabi_idivmod
 .text          0x000000008783f8b0       0x18 /usr/lib/gcc-cross/arm-linux-gnueabihf/5/libgcc.a(_lshrdi3.o)
                0x000000008783f8b0                __aeabi_llsr
                0x000000008783f8b0                __lshrdi3
 .text          0x000000008783f8c8       0x18 /usr/lib/gcc-cross/arm-linux-gnueabihf/5/libgcc.a(_ashldi3.o)
                0x000000008783f8c8                __ashldi3
                0x000000008783f8c8                __aeabi_llsl
 .text          0x000000008783f8e0        0xc /usr/lib/gcc-cross/arm-linux-gnueabihf/5/libgcc.a(_dvmd_lnx.o)
                0x000000008783f8e0                __aeabi_ldiv0
                0x000000008783f8e0                __aeabi_idiv0

.glue_7         0x000000008783f8ec        0x0
 .glue_7        0x000000008783f8ec        0x0 linker stubs

.glue_7t        0x000000008783f8ec        0x0
 .glue_7t       0x000000008783f8ec        0x0 linker stubs

.vfp11_veneer   0x000000008783f8ec        0x0
 .vfp11_veneer  0x000000008783f8ec        0x0 linker stubs

.v4_bx          0x000000008783f8ec        0x0
 .v4_bx         0x000000008783f8ec        0x0 linker stubs

.iplt           0x000000008783f8ec        0x0
 .iplt          0x000000008783f8ec        0x0 arch/arm/cpu/armv7/start.o
                0x000000008783f8ec                . = ALIGN (0x4)

.rodata         0x000000008783f8f0    0x100f3
 *(SORT(.rodata*))
 .rodata.fec2_pads
                0x000000008783f8f0       0x58 board/freescale/mx6ullevk/built-in.o
 .rodata.iox_pads
                0x000000008783f948       0x20 board/freescale/mx6ullevk/built-in.o
 .rodata.lcd_id_pads
                0x000000008783f968       0x20 board/freescale/mx6ullevk/built-in.o
 .rodata.lcd_pads
                0x000000008783f988       0xf0 board/freescale/mx6ullevk/built-in.o
 .rodata.leds_pads
                0x000000008783fa78       0x10 board/freescale/mx6ullevk/built-in.o
 .rodata.quadspi_pads
                0x000000008783fa88       0x30 board/freescale/mx6ullevk/built-in.o
 .rodata.uart1_pads
                0x000000008783fab8       0x10 board/freescale/mx6ullevk/built-in.o
 .rodata.usb_otg_pads
                0x000000008783fac8        0x8 board/freescale/mx6ullevk/built-in.o
 .rodata.usdhc1_pads
                0x000000008783fad0       0x40 board/freescale/mx6ullevk/built-in.o
 .rodata.usdhc2_emmc_pads
                0x000000008783fb10       0x58 board/freescale/mx6ullevk/built-in.o
 .rodata        0x000000008783fb68       0x80 arch/arm/lib/built-in.o
 .rodata        0x000000008783fbe8        0xc drivers/power/built-in.o
 .rodata.CSWTCH.13
                0x000000008783fbf4       0x88 arch/arm/imx-common/built-in.o
 .rodata.CSWTCH.27
                0x000000008783fc7c       0x14 cmd/built-in.o
 .rodata.CSWTCH.28
                0x000000008783fc90       0x20 common/built-in.o
 .rodata.asix_dongles
                0x000000008783fcb0       0x68 drivers/usb/eth/built-in.o
 .rodata.block_drvr
                0x000000008783fd18       0x24 disk/built-in.o
 .rodata.board_boot_modes
                0x000000008783fd3c       0x20 board/freescale/mx6ullevk/built-in.o
 .rodata.boot_os
                0x000000008783fd5c       0x60 common/built-in.o
 .rodata.crc_table
                0x000000008783fdbc      0x400 lib/built-in.o
 .rodata.default_ehci_ops
                0x00000000878401bc       0x10 drivers/usb/host/built-in.o
                0x00000000878401bc                default_ehci_ops
 .rodata.desc_and_len_tbl
                0x00000000878401cc       0x30 cmd/built-in.o
 .rodata.displays
                0x00000000878401fc      0x17c board/freescale/mx6ullevk/built-in.o
                0x00000000878401fc                displays
 .rodata.env_flags_varaccess_mask
                0x0000000087840378       0x10 common/built-in.o
 .rodata.esdhc_ops
                0x0000000087840388       0x14 drivers/mmc/built-in.o
 .rodata.ext_csd_bits.9511
                0x000000008784039c       0x14 drivers/mmc/built-in.o
 .rodata.ext_to_hostcaps.9512
                0x00000000878403b0       0x1c drivers/mmc/built-in.o
 .rodata.fbase  0x00000000878403cc       0x10 drivers/mmc/built-in.o
 .rodata.fdt_errtable
                0x00000000878403dc       0x34 lib/built-in.o
 .rodata.gpio_ports
                0x0000000087840410       0x14 drivers/gpio/built-in.o
 .rodata.imx6_thermal_plat
                0x0000000087840424        0xc arch/arm/cpu/armv7/built-in.o
 .rodata.imx_thermal_ops
                0x0000000087840430        0x4 drivers/built-in.o
 .rodata.multipliers
                0x0000000087840434       0x40 drivers/mmc/built-in.o
 .rodata.op_adv
                0x0000000087840474      0x100 cmd/built-in.o
                0x0000000087840474                op_adv
 .rodata.op_table
                0x0000000087840574       0x68 cmd/built-in.o
 .rodata.phy_bases
                0x00000000878405dc        0x8 drivers/usb/host/built-in.o
 .rodata.prob_dev
                0x00000000878405e4       0x18 drivers/usb/eth/built-in.o
 .rodata.qn_output
                0x00000000878405fc       0x20 board/freescale/mx6ullevk/built-in.o
 .rodata.reg_0_5_desc_tbl
                0x000000008784061c       0x30 cmd/built-in.o
 .rodata.reg_0_desc_tbl
                0x000000008784064c       0x78 cmd/built-in.o
 .rodata.reg_1_desc_tbl
                0x00000000878406c4       0xc0 cmd/built-in.o
 .rodata.reg_2_desc_tbl
                0x0000000087840784        0xc cmd/built-in.o
 .rodata.reg_3_desc_tbl
                0x0000000087840790       0x24 cmd/built-in.o
 .rodata.reg_4_desc_tbl
                0x00000000878407b4       0x90 cmd/built-in.o
 .rodata.reg_5_desc_tbl
                0x0000000087840844       0x90 cmd/built-in.o
 .rodata.res_mode_init
                0x00000000878408d4      0x208 drivers/built-in.o
                0x00000000878408d4                res_mode_init
 .rodata.root_info
                0x0000000087840adc        0x8 drivers/built-in.o
 .rodata.sd_au_size
                0x0000000087840ae4       0x40 drivers/mmc/built-in.o
 .rodata.seq    0x0000000087840b24       0x18 board/freescale/mx6ullevk/built-in.o
 .rodata.soc_boot_modes
                0x0000000087840b3c       0x60 arch/arm/cpu/armv7/built-in.o
                0x0000000087840b3c                soc_boot_modes
 .rodata.spi_flash_params_table
                0x0000000087840b9c      0x240 drivers/mtd/spi/built-in.o
                0x0000000087840b9c                spi_flash_params_table
 .rodata.uimage_arch
                0x0000000087840ddc      0x12c common/built-in.o
 .rodata.uimage_comp
                0x0000000087840f08       0x54 common/built-in.o
 .rodata.uimage_os
                0x0000000087840f5c       0x78 common/built-in.o
 .rodata.uimage_type
                0x0000000087840fd4      0x144 common/built-in.o
 .rodata.video_font_draw_table15
                0x0000000087841118       0x10 drivers/built-in.o
 .rodata.video_font_draw_table16
                0x0000000087841128       0x10 drivers/built-in.o
 .rodata.video_font_draw_table24
                0x0000000087841138       0xc0 drivers/built-in.o
 .rodata.video_font_draw_table32
                0x00000000878411f8      0x100 drivers/built-in.o
 .rodata.video_font_draw_table8
                0x00000000878412f8       0x40 drivers/built-in.o
 .rodata.widths.9513
                0x0000000087841338       0x14 drivers/mmc/built-in.o
 .rodata.CSWTCH.13
                0x000000008784134c       0x22 drivers/built-in.o
 .rodata.CSWTCH.14
                0x000000008784136e       0x22 drivers/built-in.o
 .rodata.crc16_tab
                0x0000000087841390      0x200 lib/built-in.o
 .rodata.crc16_table
                0x0000000087841590      0x200 fs/built-in.o
 .rodata.dbase.7684
                0x0000000087841790       0x40 lib/built-in.o
 .rodata.dext.7685
                0x00000000878417d0       0x40 lib/built-in.o
 .rodata.distfix
                0x0000000087841810       0x80 lib/built-in.o
 .rodata.i2c_clk_div
                0x0000000087841890       0xc8 drivers/i2c/built-in.o
 .rodata.lbase.7682
                0x0000000087841958       0x3e lib/built-in.o
 .rodata.lenfix
                0x0000000087841996      0x800 lib/built-in.o
 .rodata.lext.7683
                0x0000000087842196       0x3e lib/built-in.o
 .rodata.order.7778
                0x00000000878421d4       0x26 lib/built-in.o
 .rodata        0x00000000878421fa        0x2 cmd/built-in.o
 .rodata        0x00000000878421fc        0x3 common/built-in.o
 .rodata        0x00000000878421ff       0x3f drivers/usb/host/built-in.o
 .rodata        0x000000008784223e        0x7 net/built-in.o
 .rodata.CSWTCH.15
                0x0000000087842245       0x11 drivers/built-in.o
 .rodata.CSWTCH.66
                0x0000000087842256       0x16 common/built-in.o
 .rodata.__FUNCTION__.8078
                0x000000008784226c       0x14 net/built-in.o
 .rodata.__FUNCTION__.9040
                0x0000000087842280       0x17 common/built-in.o
 .rodata.__func__.10152
                0x0000000087842297       0x17 drivers/usb/host/built-in.o
 .rodata.__func__.7551
                0x00000000878422ae       0x16 arch/arm/cpu/armv7/built-in.o
 .rodata.__func__.7615
                0x00000000878422c4        0xa drivers/built-in.o
 .rodata.__func__.7621
                0x00000000878422ce        0xf drivers/power/built-in.o
 .rodata.__func__.7623
                0x00000000878422dd        0xf arch/arm/imx-common/built-in.o
 .rodata.__func__.7634
                0x00000000878422ec        0xe drivers/power/built-in.o
 .rodata.__func__.7644
                0x00000000878422fa        0xb drivers/built-in.o
 .rodata.__func__.7662
                0x0000000087842305        0xa drivers/built-in.o
 .rodata.__func__.7674
                0x000000008784230f        0xe drivers/built-in.o
 .rodata.__func__.7711
                0x000000008784231d        0xf fs/built-in.o
 .rodata.__func__.7743
                0x000000008784232c       0x10 common/built-in.o
 .rodata.__func__.7744
                0x000000008784233c       0x13 fs/built-in.o
 .rodata.__func__.7753
                0x000000008784234f       0x14 fs/built-in.o
 .rodata.__func__.7759
                0x0000000087842363        0xb common/built-in.o
 .rodata.__func__.7766
                0x000000008784236e        0xb common/built-in.o
 .rodata.__func__.8091
                0x0000000087842379       0x1c fs/built-in.o
 .rodata.__func__.8124
                0x0000000087842395        0xe cmd/built-in.o
 .rodata.__func__.8161
                0x00000000878423a3        0xe cmd/built-in.o
 .rodata.__func__.8217
                0x00000000878423b1        0xe common/built-in.o
 .rodata.__func__.8764
                0x00000000878423bf       0x10 drivers/net/built-in.o
 .rodata.__func__.8917
                0x00000000878423cf       0x18 common/built-in.o
 .rodata.__func__.9071
                0x00000000878423e7        0xe drivers/built-in.o
 .rodata.__func__.9403
                0x00000000878423f5        0xd drivers/built-in.o
 .rodata.__func__.9409
                0x0000000087842402       0x11 drivers/built-in.o
 .rodata.__func__.9421
                0x0000000087842413        0xd drivers/built-in.o
 .rodata.__func__.9594
                0x0000000087842420       0x12 drivers/i2c/built-in.o
 .rodata.__func__.9628
                0x0000000087842432        0xd drivers/i2c/built-in.o
 .rodata.__func__.9673
                0x000000008784243f       0x12 drivers/i2c/built-in.o
 .rodata._ctype
                0x0000000087842451      0x100 lib/built-in.o
                0x0000000087842451                _ctype
 .rodata.bank_lookup
                0x0000000087842551        0x2 arch/arm/imx-common/built-in.o
 .rodata.col_lookup
                0x0000000087842553        0x8 arch/arm/imx-common/built-in.o
 .rodata.default_environment
                0x000000008784255b      0x964 common/built-in.o
                0x000000008784255b                default_environment
 .rodata.digits.7338
                0x0000000087842ebf       0x10 lib/built-in.o
 .rodata.env_flags_varaccess_rep
                0x0000000087842ecf        0x5 common/built-in.o
 .rodata.env_flags_vartype_rep
                0x0000000087842ed4        0x7 common/built-in.o
 .rodata.erase_seq
                0x0000000087842edb        0x4 common/built-in.o
 .rodata.hex_asc
                0x0000000087842edf       0x11 lib/built-in.o
 .rodata.names.7491
                0x0000000087842ef0        0x6 lib/built-in.o
 .rodata.net_bcast_ethaddr
                0x0000000087842ef6        0x6 net/built-in.o
                0x0000000087842ef6                net_bcast_ethaddr
 .rodata.spi_read_cmds_array.9469
                0x0000000087842efc        0x6 drivers/mtd/spi/built-in.o
 .rodata.str1.1
                0x0000000087842f02      0x283 arch/arm/cpu/armv7/built-in.o
                                        0x28d (size before relaxing)
 .rodata.str1.1
                0x0000000087843185      0x292 arch/arm/imx-common/built-in.o
                                        0x2b4 (size before relaxing)
 .rodata.str1.1
                0x0000000087843417      0x380 arch/arm/lib/built-in.o
                                        0x3c7 (size before relaxing)
 .rodata.str1.1
                0x0000000087843797       0x48 board/freescale/common/built-in.o
 .rodata.str1.1
                0x00000000878437df      0x227 board/freescale/mx6ullevk/built-in.o
                                        0x22d (size before relaxing)
 .rodata.str1.1
                0x0000000087843a06     0x64c5 cmd/built-in.o
                                       0x6a2b (size before relaxing)
 .rodata.str1.1
                0x0000000087849ecb     0x24e9 common/built-in.o
                                       0x289a (size before relaxing)
 .rodata.str1.1
                0x000000008784c3b4      0x425 disk/built-in.o
                                        0x458 (size before relaxing)
 .rodata.str1.1
                0x000000008784c7d9      0x57a drivers/built-in.o
                                        0x5e0 (size before relaxing)
 .rodata.str1.1
                0x000000008784cd53       0xda drivers/i2c/built-in.o
 .rodata.str1.1
                0x000000008784ce2d      0x4aa drivers/mmc/built-in.o
                                        0x50d (size before relaxing)
 .rodata.str1.1
                0x000000008784d2d7      0x12d drivers/mtd/built-in.o
 .rodata.str1.1
                0x000000008784d404      0x211 drivers/mtd/spi/built-in.o
                                        0x214 (size before relaxing)
 .rodata.str1.1
                0x000000008784d615      0x165 drivers/net/built-in.o
                                        0x16d (size before relaxing)
 .rodata.str1.1
                0x000000008784d77a      0x180 drivers/net/phy/built-in.o
                                        0x196 (size before relaxing)
 .rodata.str1.1
                0x000000008784d8fa      0x257 drivers/power/built-in.o
                                        0x26f (size before relaxing)
 .rodata.str1.1
                0x000000008784db51       0x57 drivers/serial/built-in.o
                                         0x92 (size before relaxing)
 .rodata.str1.1
                0x000000008784dba8       0xd6 drivers/spi/built-in.o
 .rodata.str1.1
                0x000000008784dc7e       0xeb drivers/usb/eth/built-in.o
 .rodata.str1.1
                0x000000008784dd69      0x238 drivers/usb/host/built-in.o
 .rodata.str1.1
                0x000000008784dfa1      0xabd fs/built-in.o
                                        0xb5b (size before relaxing)
 .rodata.str1.1
                0x000000008784ea5e      0x687 lib/built-in.o
                                        0x6f8 (size before relaxing)
 .rodata.str1.1
                0x000000008784f0e5      0x7b0 net/built-in.o
                                        0x92c (size before relaxing)
 .rodata.str1.1
                0x000000008784f895       0xdc test/dm/built-in.o
                                         0xe2 (size before relaxing)
 .rodata.str1.1
                0x000000008784f971       0x1b arch/arm/lib/eabi_compat.o
 .rodata.tab_seq
                0x000000008784f98c        0x9 common/built-in.o
 .rodata.us_direction
                0x000000008784f995       0x20 common/built-in.o
 .rodata.version_string
                0x000000008784f9b5       0x2e cmd/built-in.o
                0x000000008784f9b5                version_string

.hash           0x000000008784f9e4       0x2c
 .hash          0x000000008784f9e4       0x2c arch/arm/cpu/armv7/start.o
                0x000000008784fa10                . = ALIGN (0x4)

.data           0x000000008784fa10     0x30e4
 *(.data*)
 .data.imx_ccm  0x000000008784fa10        0x4 arch/arm/cpu/armv7/built-in.o
                0x000000008784fa10                imx_ccm
 .data.base     0x000000008784fa14        0x4 arch/arm/imx-common/built-in.o
 .data.reset_cause
                0x000000008784fa18        0x4 arch/arm/imx-common/built-in.o
 .data.display_count
                0x000000008784fa1c        0x4 board/freescale/mx6ullevk/built-in.o
                0x000000008784fa1c                display_count
 .data.i2c_pad_info1
                0x000000008784fa20       0x30 board/freescale/mx6ullevk/built-in.o
 .data.usdhc_cfg
                0x000000008784fa50       0x58 board/freescale/mx6ullevk/built-in.o
 .data.bootm_help_text
                0x000000008784faa8      0x38b cmd/built-in.o
 *fill*         0x000000008784fe33        0x1 
 .data.cmd_bootm_sub
                0x000000008784fe34       0xfc cmd/built-in.o
 .data.bootz_help_text
                0x000000008784ff30      0x208 cmd/built-in.o
 .data.source_help_text
                0x0000000087850138       0x4e cmd/built-in.o
 *fill*         0x0000000087850186        0x2 
 .data.cmd_bmp_sub
                0x0000000087850188       0x38 cmd/built-in.o
 .data.root.8236
                0x00000000878501c0        0x2 cmd/built-in.o
 .data.tabs.8319
                0x00000000878501c2       0x21 cmd/built-in.o
 .data.fdt_help_text
                0x00000000878501e3      0x5e3 cmd/built-in.o
 .data.i2c_help_text
                0x00000000878507c6      0x37c cmd/built-in.o
 *fill*         0x0000000087850b42        0x2 
 .data.cmd_i2c_sub
                0x0000000087850b44      0x16c cmd/built-in.o
 .data.i2c_dp_last_length
                0x0000000087850cb0        0x4 cmd/built-in.o
 .data.do_echo  0x0000000087850cb4        0x4 cmd/built-in.o
 .data.dp_last_length
                0x0000000087850cb8        0x4 cmd/built-in.o
 .data.curr_device
                0x0000000087850cbc        0x4 cmd/built-in.o
 .data.cmd_mmc  0x0000000087850cc0      0x188 cmd/built-in.o
 .data.usb_stor_curr_dev
                0x0000000087850e48        0x4 cmd/built-in.o
 .data.imgextract_help_text
                0x0000000087850e4c       0x55 cmd/built-in.o
 .data.env_help_text
                0x0000000087850ea1      0x24f cmd/built-in.o
 .data.env_id   0x00000000878510f0        0x4 cmd/built-in.o
 .data.cmd_env_sub
                0x00000000878510f4      0x118 cmd/built-in.o
 .data.reserved_list
                0x000000008785120c       0x84 common/built-in.o
 .data.init_sequence_f
                0x0000000087851290       0xa0 common/built-in.o
 .data.init_sequence_r
                0x0000000087851330       0x70 common/built-in.o
                0x0000000087851330                init_sequence_r
 .data.first_call
                0x00000000878513a0        0x8 common/built-in.o
 .data.env_name_spec
                0x00000000878513a8        0x4 common/built-in.o
                0x00000000878513a8                env_name_spec
 .data.env_htab
                0x00000000878513ac       0x10 common/built-in.o
                0x00000000878513ac                env_htab
 .data.av_      0x00000000878513bc      0x408 common/built-in.o
 .data.sbrk_base
                0x00000000878517c4        0x4 common/built-in.o
 .data.trim_threshold
                0x00000000878517c8        0x4 common/built-in.o
 .data.load_addr
                0x00000000878517cc        0x4 common/built-in.o
                0x00000000878517cc                load_addr
 .data.stdio_names
                0x00000000878517d0        0xc common/built-in.o
                0x00000000878517d0                stdio_names
 .data.hist_cur
                0x00000000878517dc        0x4 common/built-in.o
 .data.video_fontdata
                0x00000000878517e0     0x1000 drivers/built-in.o
 .data.nl.8791  0x00000000878527e0        0x4 drivers/built-in.o
 .data.mxc_i2c_buses
                0x00000000878527e4       0x70 drivers/i2c/built-in.o
 .data.cur_dev_num
                0x0000000087852854        0x4 drivers/mmc/built-in.o
 .data.genphy_driver
                0x0000000087852858       0x34 drivers/net/phy/built-in.o
 .data.phy_drivers
                0x000000008785288c        0x8 drivers/net/phy/built-in.o
 .data.lan8700_driver
                0x0000000087852894       0x34 drivers/net/phy/built-in.o
 .data.lan8710_driver
                0x00000000878528c8       0x34 drivers/net/phy/built-in.o
 .data.lan911x_driver
                0x00000000878528fc       0x34 drivers/net/phy/built-in.o
 .data.lan8740_driver
                0x0000000087852930       0x34 drivers/net/phy/built-in.o
 .data.pmic_list
                0x0000000087852964        0x8 drivers/power/built-in.o
 .data.mxc_serial_drv
                0x000000008785296c       0x30 drivers/serial/built-in.o
 .data.descriptor
                0x000000008785299c       0x38 drivers/usb/host/built-in.o
 .data.fstypes  0x00000000878529d4       0x84 fs/built-in.o
 .data.ext4fs_indir3_blkno
                0x0000000087852a58        0x4 fs/built-in.o
                0x0000000087852a58                ext4fs_indir3_blkno
 .data.prev_inode_bitmap_index.8045
                0x0000000087852a5c        0x4 fs/built-in.o
 .data.ext4fs_indir2_blkno
                0x0000000087852a60        0x4 fs/built-in.o
                0x0000000087852a60                ext4fs_indir2_blkno
 .data.prev_bg_bitmap_index.8026
                0x0000000087852a64        0x4 fs/built-in.o
 .data.ext4fs_indir1_blkno
                0x0000000087852a68        0x4 fs/built-in.o
                0x0000000087852a68                ext4fs_indir1_blkno
 .data.prev_bg_bmap_idx.7747
                0x0000000087852a6c        0x4 fs/built-in.o
 .data.prev_bg_bmap_idx.7761
                0x0000000087852a70        0x4 fs/built-in.o
 .data.prev_bg_bmap_idx.7813
                0x0000000087852a74        0x4 fs/built-in.o
 .data.prev_bg_bmap_idx.7781
                0x0000000087852a78        0x4 fs/built-in.o
 .data.first_node
                0x0000000087852a7c        0x4 fs/built-in.o
 .data.net_native_vlan
                0x0000000087852a80        0x2 net/built-in.o
                0x0000000087852a80                net_native_vlan
 .data.net_our_vlan
                0x0000000087852a82        0x2 net/built-in.o
                0x0000000087852a82                net_our_vlan
 .data.first_call.7866
                0x0000000087852a84        0x4 net/built-in.o
 .data.nfs_offset
                0x0000000087852a88        0x4 net/built-in.o
 .data.tftp_block_size_option
                0x0000000087852a8c        0x2 net/built-in.o
 *fill*         0x0000000087852a8e        0x2 
 .data.tftp_timeout_count_max
                0x0000000087852a90        0x4 net/built-in.o
                0x0000000087852a90                tftp_timeout_count_max
 .data.timeout_ms
                0x0000000087852a94        0x4 net/built-in.o
 .data.tftp_block_size
                0x0000000087852a98        0x2 net/built-in.o
 *fill*         0x0000000087852a9a        0x2 
 .data.timeout_count_max
                0x0000000087852a9c        0x4 net/built-in.o
 .data.test_commands
                0x0000000087852aa0       0x54 test/dm/built-in.o

.got            0x0000000087852af4        0x0
 .got           0x0000000087852af4        0x0 arch/arm/cpu/armv7/start.o

.got.plt        0x0000000087852af4        0xc
 .got.plt       0x0000000087852af4        0xc arch/arm/cpu/armv7/start.o
                0x0000000087852af4                _GLOBAL_OFFSET_TABLE_

.igot.plt       0x0000000087852b00        0x0
 .igot.plt      0x0000000087852b00        0x0 arch/arm/cpu/armv7/start.o
                0x0000000087852b00                . = ALIGN (0x4)
                0x0000000087852b00                . = .
                0x0000000087852b00                . = ALIGN (0x4)

.u_boot_list    0x0000000087852b00      0xbac
 *(SORT(.u_boot_list*))
 .u_boot_list_2_cmd_1
                0x0000000087852b00        0x0 cmd/built-in.o
 .u_boot_list_2_cmd_1
                0x0000000087852b00        0x0 common/built-in.o
 .u_boot_list_2_cmd_2_base
                0x0000000087852b00       0x1c cmd/built-in.o
                0x0000000087852b00                _u_boot_list_2_cmd_2_base
 .u_boot_list_2_cmd_2_bdinfo
                0x0000000087852b1c       0x1c cmd/built-in.o
                0x0000000087852b1c                _u_boot_list_2_cmd_2_bdinfo
 .u_boot_list_2_cmd_2_bmode
                0x0000000087852b38       0x1c arch/arm/imx-common/built-in.o
                0x0000000087852b38                _u_boot_list_2_cmd_2_bmode
 .u_boot_list_2_cmd_2_bmp
                0x0000000087852b54       0x1c cmd/built-in.o
                0x0000000087852b54                _u_boot_list_2_cmd_2_bmp
 .u_boot_list_2_cmd_2_boot
                0x0000000087852b70       0x1c cmd/built-in.o
                0x0000000087852b70                _u_boot_list_2_cmd_2_boot
 .u_boot_list_2_cmd_2_bootd
                0x0000000087852b8c       0x1c cmd/built-in.o
                0x0000000087852b8c                _u_boot_list_2_cmd_2_bootd
 .u_boot_list_2_cmd_2_bootelf
                0x0000000087852ba8       0x1c cmd/built-in.o
                0x0000000087852ba8                _u_boot_list_2_cmd_2_bootelf
 .u_boot_list_2_cmd_2_bootm
                0x0000000087852bc4       0x1c cmd/built-in.o
                0x0000000087852bc4                _u_boot_list_2_cmd_2_bootm
 .u_boot_list_2_cmd_2_bootp
                0x0000000087852be0       0x1c cmd/built-in.o
                0x0000000087852be0                _u_boot_list_2_cmd_2_bootp
 .u_boot_list_2_cmd_2_bootvx
                0x0000000087852bfc       0x1c cmd/built-in.o
                0x0000000087852bfc                _u_boot_list_2_cmd_2_bootvx
 .u_boot_list_2_cmd_2_bootz
                0x0000000087852c18       0x1c cmd/built-in.o
                0x0000000087852c18                _u_boot_list_2_cmd_2_bootz
 .u_boot_list_2_cmd_2_clocks
                0x0000000087852c34       0x1c arch/arm/cpu/armv7/built-in.o
                0x0000000087852c34                _u_boot_list_2_cmd_2_clocks
 .u_boot_list_2_cmd_2_cmp
                0x0000000087852c50       0x1c cmd/built-in.o
                0x0000000087852c50                _u_boot_list_2_cmd_2_cmp
 .u_boot_list_2_cmd_2_coninfo
                0x0000000087852c6c       0x1c cmd/built-in.o
                0x0000000087852c6c                _u_boot_list_2_cmd_2_coninfo
 .u_boot_list_2_cmd_2_cp
                0x0000000087852c88       0x1c cmd/built-in.o
                0x0000000087852c88                _u_boot_list_2_cmd_2_cp
 .u_boot_list_2_cmd_2_crc32
                0x0000000087852ca4       0x1c cmd/built-in.o
                0x0000000087852ca4                _u_boot_list_2_cmd_2_crc32
 .u_boot_list_2_cmd_2_dcache
                0x0000000087852cc0       0x1c cmd/built-in.o
                0x0000000087852cc0                _u_boot_list_2_cmd_2_dcache
 .u_boot_list_2_cmd_2_dhcp
                0x0000000087852cdc       0x1c cmd/built-in.o
                0x0000000087852cdc                _u_boot_list_2_cmd_2_dhcp
 .u_boot_list_2_cmd_2_dm
                0x0000000087852cf8       0x1c test/dm/built-in.o
                0x0000000087852cf8                _u_boot_list_2_cmd_2_dm
 .u_boot_list_2_cmd_2_echo
                0x0000000087852d14       0x1c cmd/built-in.o
                0x0000000087852d14                _u_boot_list_2_cmd_2_echo
 .u_boot_list_2_cmd_2_editenv
                0x0000000087852d30       0x1c cmd/built-in.o
                0x0000000087852d30                _u_boot_list_2_cmd_2_editenv
 .u_boot_list_2_cmd_2_env
                0x0000000087852d4c       0x1c cmd/built-in.o
                0x0000000087852d4c                _u_boot_list_2_cmd_2_env
 .u_boot_list_2_cmd_2_erase
                0x0000000087852d68       0x1c cmd/built-in.o
                0x0000000087852d68                _u_boot_list_2_cmd_2_erase
 .u_boot_list_2_cmd_2_exit
                0x0000000087852d84       0x1c cmd/built-in.o
                0x0000000087852d84                _u_boot_list_2_cmd_2_exit
 .u_boot_list_2_cmd_2_ext2load
                0x0000000087852da0       0x1c cmd/built-in.o
                0x0000000087852da0                _u_boot_list_2_cmd_2_ext2load
 .u_boot_list_2_cmd_2_ext2ls
                0x0000000087852dbc       0x1c cmd/built-in.o
                0x0000000087852dbc                _u_boot_list_2_cmd_2_ext2ls
 .u_boot_list_2_cmd_2_ext4load
                0x0000000087852dd8       0x1c cmd/built-in.o
                0x0000000087852dd8                _u_boot_list_2_cmd_2_ext4load
 .u_boot_list_2_cmd_2_ext4ls
                0x0000000087852df4       0x1c cmd/built-in.o
                0x0000000087852df4                _u_boot_list_2_cmd_2_ext4ls
 .u_boot_list_2_cmd_2_ext4size
                0x0000000087852e10       0x1c cmd/built-in.o
                0x0000000087852e10                _u_boot_list_2_cmd_2_ext4size
 .u_boot_list_2_cmd_2_ext4write
                0x0000000087852e2c       0x1c cmd/built-in.o
                0x0000000087852e2c                _u_boot_list_2_cmd_2_ext4write
 .u_boot_list_2_cmd_2_false
                0x0000000087852e48       0x1c cmd/built-in.o
                0x0000000087852e48                _u_boot_list_2_cmd_2_false
 .u_boot_list_2_cmd_2_fatinfo
                0x0000000087852e64       0x1c cmd/built-in.o
                0x0000000087852e64                _u_boot_list_2_cmd_2_fatinfo
 .u_boot_list_2_cmd_2_fatload
                0x0000000087852e80       0x1c cmd/built-in.o
                0x0000000087852e80                _u_boot_list_2_cmd_2_fatload
 .u_boot_list_2_cmd_2_fatls
                0x0000000087852e9c       0x1c cmd/built-in.o
                0x0000000087852e9c                _u_boot_list_2_cmd_2_fatls
 .u_boot_list_2_cmd_2_fatsize
                0x0000000087852eb8       0x1c cmd/built-in.o
                0x0000000087852eb8                _u_boot_list_2_cmd_2_fatsize
 .u_boot_list_2_cmd_2_fatwrite
                0x0000000087852ed4       0x1c cmd/built-in.o
                0x0000000087852ed4                _u_boot_list_2_cmd_2_fatwrite
 .u_boot_list_2_cmd_2_fdt
                0x0000000087852ef0       0x1c cmd/built-in.o
                0x0000000087852ef0                _u_boot_list_2_cmd_2_fdt
 .u_boot_list_2_cmd_2_flinfo
                0x0000000087852f0c       0x1c cmd/built-in.o
                0x0000000087852f0c                _u_boot_list_2_cmd_2_flinfo
 .u_boot_list_2_cmd_2_fstype
                0x0000000087852f28       0x1c cmd/built-in.o
                0x0000000087852f28                _u_boot_list_2_cmd_2_fstype
 .u_boot_list_2_cmd_2_fuse
                0x0000000087852f44       0x1c cmd/built-in.o
                0x0000000087852f44                _u_boot_list_2_cmd_2_fuse
 .u_boot_list_2_cmd_2_go
                0x0000000087852f60       0x1c cmd/built-in.o
                0x0000000087852f60                _u_boot_list_2_cmd_2_go
 .u_boot_list_2_cmd_2_gpio
                0x0000000087852f7c       0x1c cmd/built-in.o
                0x0000000087852f7c                _u_boot_list_2_cmd_2_gpio
 .u_boot_list_2_cmd_2_help
                0x0000000087852f98       0x1c cmd/built-in.o
                0x0000000087852f98                _u_boot_list_2_cmd_2_help
 .u_boot_list_2_cmd_2_i2c
                0x0000000087852fb4       0x1c cmd/built-in.o
                0x0000000087852fb4                _u_boot_list_2_cmd_2_i2c
 .u_boot_list_2_cmd_2_icache
                0x0000000087852fd0       0x1c cmd/built-in.o
                0x0000000087852fd0                _u_boot_list_2_cmd_2_icache
 .u_boot_list_2_cmd_2_iminfo
                0x0000000087852fec       0x1c cmd/built-in.o
                0x0000000087852fec                _u_boot_list_2_cmd_2_iminfo
 .u_boot_list_2_cmd_2_imxtract
                0x0000000087853008       0x1c cmd/built-in.o
                0x0000000087853008                _u_boot_list_2_cmd_2_imxtract
 .u_boot_list_2_cmd_2_itest
                0x0000000087853024       0x1c cmd/built-in.o
                0x0000000087853024                _u_boot_list_2_cmd_2_itest
 .u_boot_list_2_cmd_2_load
                0x0000000087853040       0x1c cmd/built-in.o
                0x0000000087853040                _u_boot_list_2_cmd_2_load
 .u_boot_list_2_cmd_2_loadb
                0x000000008785305c       0x1c cmd/built-in.o
                0x000000008785305c                _u_boot_list_2_cmd_2_loadb
 .u_boot_list_2_cmd_2_loads
                0x0000000087853078       0x1c cmd/built-in.o
                0x0000000087853078                _u_boot_list_2_cmd_2_loads
 .u_boot_list_2_cmd_2_loadx
                0x0000000087853094       0x1c cmd/built-in.o
                0x0000000087853094                _u_boot_list_2_cmd_2_loadx
 .u_boot_list_2_cmd_2_loady
                0x00000000878530b0       0x1c cmd/built-in.o
                0x00000000878530b0                _u_boot_list_2_cmd_2_loady
 .u_boot_list_2_cmd_2_loop
                0x00000000878530cc       0x1c cmd/built-in.o
                0x00000000878530cc                _u_boot_list_2_cmd_2_loop
 .u_boot_list_2_cmd_2_ls
                0x00000000878530e8       0x1c cmd/built-in.o
                0x00000000878530e8                _u_boot_list_2_cmd_2_ls
 .u_boot_list_2_cmd_2_md
                0x0000000087853104       0x1c cmd/built-in.o
                0x0000000087853104                _u_boot_list_2_cmd_2_md
 .u_boot_list_2_cmd_2_mdio
                0x0000000087853120       0x1c cmd/built-in.o
                0x0000000087853120                _u_boot_list_2_cmd_2_mdio
 .u_boot_list_2_cmd_2_mii
                0x000000008785313c       0x1c cmd/built-in.o
                0x000000008785313c                _u_boot_list_2_cmd_2_mii
 .u_boot_list_2_cmd_2_mm
                0x0000000087853158       0x1c cmd/built-in.o
                0x0000000087853158                _u_boot_list_2_cmd_2_mm
 .u_boot_list_2_cmd_2_mmc
                0x0000000087853174       0x1c cmd/built-in.o
                0x0000000087853174                _u_boot_list_2_cmd_2_mmc
 .u_boot_list_2_cmd_2_mmcinfo
                0x0000000087853190       0x1c cmd/built-in.o
                0x0000000087853190                _u_boot_list_2_cmd_2_mmcinfo
 .u_boot_list_2_cmd_2_mtest
                0x00000000878531ac       0x1c cmd/built-in.o
                0x00000000878531ac                _u_boot_list_2_cmd_2_mtest
 .u_boot_list_2_cmd_2_mw
                0x00000000878531c8       0x1c cmd/built-in.o
                0x00000000878531c8                _u_boot_list_2_cmd_2_mw
 .u_boot_list_2_cmd_2_nfs
                0x00000000878531e4       0x1c cmd/built-in.o
                0x00000000878531e4                _u_boot_list_2_cmd_2_nfs
 .u_boot_list_2_cmd_2_nm
                0x0000000087853200       0x1c cmd/built-in.o
                0x0000000087853200                _u_boot_list_2_cmd_2_nm
 .u_boot_list_2_cmd_2_ping
                0x000000008785321c       0x1c cmd/built-in.o
                0x000000008785321c                _u_boot_list_2_cmd_2_ping
 .u_boot_list_2_cmd_2_pmic
                0x0000000087853238       0x1c drivers/power/built-in.o
                0x0000000087853238                _u_boot_list_2_cmd_2_pmic
 .u_boot_list_2_cmd_2_printenv
                0x0000000087853254       0x1c cmd/built-in.o
                0x0000000087853254                _u_boot_list_2_cmd_2_printenv
 .u_boot_list_2_cmd_2_protect
                0x0000000087853270       0x1c cmd/built-in.o
                0x0000000087853270                _u_boot_list_2_cmd_2_protect
 .u_boot_list_2_cmd_2_question_mark
                0x000000008785328c       0x1c cmd/built-in.o
                0x000000008785328c                _u_boot_list_2_cmd_2_question_mark
 .u_boot_list_2_cmd_2_reset
                0x00000000878532a8       0x1c cmd/built-in.o
                0x00000000878532a8                _u_boot_list_2_cmd_2_reset
 .u_boot_list_2_cmd_2_run
                0x00000000878532c4       0x1c cmd/built-in.o
                0x00000000878532c4                _u_boot_list_2_cmd_2_run
 .u_boot_list_2_cmd_2_save
                0x00000000878532e0       0x1c cmd/built-in.o
                0x00000000878532e0                _u_boot_list_2_cmd_2_save
 .u_boot_list_2_cmd_2_saveenv
                0x00000000878532fc       0x1c cmd/built-in.o
                0x00000000878532fc                _u_boot_list_2_cmd_2_saveenv
 .u_boot_list_2_cmd_2_setenv
                0x0000000087853318       0x1c cmd/built-in.o
                0x0000000087853318                _u_boot_list_2_cmd_2_setenv
 .u_boot_list_2_cmd_2_setexpr
                0x0000000087853334       0x1c cmd/built-in.o
                0x0000000087853334                _u_boot_list_2_cmd_2_setexpr
 .u_boot_list_2_cmd_2_sf
                0x0000000087853350       0x1c cmd/built-in.o
                0x0000000087853350                _u_boot_list_2_cmd_2_sf
 .u_boot_list_2_cmd_2_showvar
                0x000000008785336c       0x1c common/built-in.o
                0x000000008785336c                _u_boot_list_2_cmd_2_showvar
 .u_boot_list_2_cmd_2_size
                0x0000000087853388       0x1c cmd/built-in.o
                0x0000000087853388                _u_boot_list_2_cmd_2_size
 .u_boot_list_2_cmd_2_sleep
                0x00000000878533a4       0x1c cmd/built-in.o
                0x00000000878533a4                _u_boot_list_2_cmd_2_sleep
 .u_boot_list_2_cmd_2_source
                0x00000000878533c0       0x1c cmd/built-in.o
                0x00000000878533c0                _u_boot_list_2_cmd_2_source
 .u_boot_list_2_cmd_2_test
                0x00000000878533dc       0x1c cmd/built-in.o
                0x00000000878533dc                _u_boot_list_2_cmd_2_test
 .u_boot_list_2_cmd_2_tftpboot
                0x00000000878533f8       0x1c cmd/built-in.o
                0x00000000878533f8                _u_boot_list_2_cmd_2_tftpboot
 .u_boot_list_2_cmd_2_true
                0x0000000087853414       0x1c cmd/built-in.o
                0x0000000087853414                _u_boot_list_2_cmd_2_true
 .u_boot_list_2_cmd_2_usb
                0x0000000087853430       0x1c cmd/built-in.o
                0x0000000087853430                _u_boot_list_2_cmd_2_usb
 .u_boot_list_2_cmd_2_usbboot
                0x000000008785344c       0x1c cmd/built-in.o
                0x000000008785344c                _u_boot_list_2_cmd_2_usbboot
 .u_boot_list_2_cmd_2_version
                0x0000000087853468       0x1c cmd/built-in.o
                0x0000000087853468                _u_boot_list_2_cmd_2_version
 .u_boot_list_2_cmd_3
                0x0000000087853484        0x0 cmd/built-in.o
 .u_boot_list_2_cmd_3
                0x0000000087853484        0x0 common/built-in.o
 .u_boot_list_2_driver_1
                0x0000000087853484        0x0 drivers/built-in.o
 .u_boot_list_2_driver_2_imx_thermal
                0x0000000087853484       0x44 drivers/built-in.o
                0x0000000087853484                _u_boot_list_2_driver_2_imx_thermal
 .u_boot_list_2_driver_2_root_driver
                0x00000000878534c8       0x44 drivers/built-in.o
                0x00000000878534c8                _u_boot_list_2_driver_2_root_driver
 .u_boot_list_2_driver_3
                0x000000008785350c        0x0 drivers/built-in.o
 .u_boot_list_2_driver_info_1
                0x000000008785350c        0x0 drivers/built-in.o
 .u_boot_list_2_driver_info_2_imx6_thermal
                0x000000008785350c        0x8 arch/arm/cpu/armv7/built-in.o
                0x000000008785350c                _u_boot_list_2_driver_info_2_imx6_thermal
 .u_boot_list_2_driver_info_3
                0x0000000087853514        0x0 drivers/built-in.o
 .u_boot_list_2_env_clbk_1
                0x0000000087853514        0x0 common/built-in.o
 .u_boot_list_2_env_clbk_2_baudrate
                0x0000000087853514        0x8 drivers/serial/built-in.o
                0x0000000087853514                _u_boot_list_2_env_clbk_2_baudrate
 .u_boot_list_2_env_clbk_2_bootfile
                0x000000008785351c        0x8 net/built-in.o
                0x000000008785351c                _u_boot_list_2_env_clbk_2_bootfile
 .u_boot_list_2_env_clbk_2_callbacks
                0x0000000087853524        0x8 common/built-in.o
                0x0000000087853524                _u_boot_list_2_env_clbk_2_callbacks
 .u_boot_list_2_env_clbk_2_console
                0x000000008785352c        0x8 common/built-in.o
                0x000000008785352c                _u_boot_list_2_env_clbk_2_console
 .u_boot_list_2_env_clbk_2_ethaddr
                0x0000000087853534        0x8 net/built-in.o
                0x0000000087853534                _u_boot_list_2_env_clbk_2_ethaddr
 .u_boot_list_2_env_clbk_2_flags
                0x000000008785353c        0x8 common/built-in.o
                0x000000008785353c                _u_boot_list_2_env_clbk_2_flags
 .u_boot_list_2_env_clbk_2_gatewayip
                0x0000000087853544        0x8 net/built-in.o
                0x0000000087853544                _u_boot_list_2_env_clbk_2_gatewayip
 .u_boot_list_2_env_clbk_2_ipaddr
                0x000000008785354c        0x8 net/built-in.o
                0x000000008785354c                _u_boot_list_2_env_clbk_2_ipaddr
 .u_boot_list_2_env_clbk_2_loadaddr
                0x0000000087853554        0x8 common/built-in.o
                0x0000000087853554                _u_boot_list_2_env_clbk_2_loadaddr
 .u_boot_list_2_env_clbk_2_netmask
                0x000000008785355c        0x8 net/built-in.o
                0x000000008785355c                _u_boot_list_2_env_clbk_2_netmask
 .u_boot_list_2_env_clbk_2_nvlan
                0x0000000087853564        0x8 net/built-in.o
                0x0000000087853564                _u_boot_list_2_env_clbk_2_nvlan
 .u_boot_list_2_env_clbk_2_serverip
                0x000000008785356c        0x8 net/built-in.o
                0x000000008785356c                _u_boot_list_2_env_clbk_2_serverip
 .u_boot_list_2_env_clbk_2_vlan
                0x0000000087853574        0x8 net/built-in.o
                0x0000000087853574                _u_boot_list_2_env_clbk_2_vlan
 .u_boot_list_2_env_clbk_3
                0x000000008785357c        0x0 common/built-in.o
 .u_boot_list_2_i2c_1
                0x000000008785357c        0x0 cmd/built-in.o
 .u_boot_list_2_i2c_1
                0x000000008785357c        0x0 drivers/i2c/built-in.o
 .u_boot_list_2_i2c_2_mxc0
                0x000000008785357c       0x2c drivers/i2c/built-in.o
                0x000000008785357c                _u_boot_list_2_i2c_2_mxc0
 .u_boot_list_2_i2c_2_mxc1
                0x00000000878535a8       0x2c drivers/i2c/built-in.o
                0x00000000878535a8                _u_boot_list_2_i2c_2_mxc1
 .u_boot_list_2_i2c_3
                0x00000000878535d4        0x0 cmd/built-in.o
 .u_boot_list_2_i2c_3
                0x00000000878535d4        0x0 drivers/i2c/built-in.o
 .u_boot_list_2_uclass_1
                0x00000000878535d4        0x0 drivers/built-in.o
 .u_boot_list_2_uclass_2_disk
                0x00000000878535d4       0x48 drivers/built-in.o
                0x00000000878535d4                _u_boot_list_2_uclass_2_disk
 .u_boot_list_2_uclass_2_root
                0x000000008785361c       0x48 drivers/built-in.o
                0x000000008785361c                _u_boot_list_2_uclass_2_root
 .u_boot_list_2_uclass_2_thermal
                0x0000000087853664       0x48 drivers/built-in.o
                0x0000000087853664                _u_boot_list_2_uclass_2_thermal
 .u_boot_list_2_uclass_3
                0x00000000878536ac        0x0 drivers/built-in.o
                0x00000000878536ac                . = ALIGN (0x4)

.image_copy_end
                0x00000000878536ac        0x0
 *(.__image_copy_end)
 .__image_copy_end
                0x00000000878536ac        0x0 arch/arm/lib/built-in.o

.rel_dyn_start  0x00000000878536ac        0x0
 *(.__rel_dyn_start)
 .__rel_dyn_start
                0x00000000878536ac        0x0 arch/arm/lib/built-in.o

.rel.dyn        0x00000000878536ac     0x8cc8
 *(.rel*)
 .rel.got       0x00000000878536ac        0x0 arch/arm/cpu/armv7/start.o
 .rel.plt       0x00000000878536ac        0x0 arch/arm/cpu/armv7/start.o
 .rel.iplt      0x00000000878536ac        0x0 arch/arm/cpu/armv7/start.o
 .rel.text      0x00000000878536ac       0x20 arch/arm/cpu/armv7/start.o
 .rel.text.invalidate_dcache_range
                0x00000000878536cc       0x18 arch/arm/cpu/armv7/start.o
 .rel.text.get_boot_device
                0x00000000878536e4        0x0 arch/arm/cpu/armv7/start.o
 .rel.text.disable_lcdif_clock
                0x00000000878536e4       0x10 arch/arm/cpu/armv7/start.o
 .rel.text.get_ipg_clk
                0x00000000878536f4        0x8 arch/arm/cpu/armv7/start.o
 .rel.text.enable_pll_video.constprop.0
                0x00000000878536fc       0x18 arch/arm/cpu/armv7/start.o
 .rel.text.get_uart_clk
                0x0000000087853714        0x8 arch/arm/cpu/armv7/start.o
 .rel.text.mxc_get_pll_pfd
                0x000000008785371c        0x8 arch/arm/cpu/armv7/start.o
 .rel.text.get_usdhc_clk
                0x0000000087853724       0x28 arch/arm/cpu/armv7/start.o
 .rel.text.enable_ocotp_clk
                0x000000008785374c        0x8 arch/arm/cpu/armv7/start.o
 .rel.text.enable_usboh3_clk
                0x0000000087853754        0x8 arch/arm/cpu/armv7/start.o
 .rel.text.enable_enet_clk
                0x000000008785375c        0x8 arch/arm/cpu/armv7/start.o
 .rel.text.enable_uart_clk
                0x0000000087853764        0x0 arch/arm/cpu/armv7/start.o
 .rel.text.enable_usdhc_clk
                0x0000000087853764        0x0 arch/arm/cpu/armv7/start.o
 .rel.text.enable_i2c_clk
                0x0000000087853764        0x8 arch/arm/cpu/armv7/start.o
 .rel.text.enable_spi_clk
                0x000000008785376c        0x0 arch/arm/cpu/armv7/start.o
 .rel.text.get_periph_clk
                0x000000008785376c        0x8 arch/arm/cpu/armv7/start.o
 .rel.text.get_axi_clk
                0x0000000087853774        0x8 arch/arm/cpu/armv7/start.o
 .rel.text.enable_lcdif_clock
                0x000000008785377c       0x10 arch/arm/cpu/armv7/start.o
 .rel.text.mxs_set_lcdclk
                0x000000008785378c       0x18 arch/arm/cpu/armv7/start.o
 .rel.text.enable_lvds_bridge
                0x00000000878537a4        0x0 arch/arm/cpu/armv7/start.o
 .rel.text.enable_qspi_clk
                0x00000000878537a4        0x8 arch/arm/cpu/armv7/start.o
 .rel.text.mxc_get_clock
                0x00000000878537ac       0x98 arch/arm/cpu/armv7/start.o
 .rel.text.do_mx6_showclocks
                0x0000000087853844       0x88 arch/arm/cpu/armv7/start.o
 .rel.rodata.soc_boot_modes
                0x00000000878538cc       0x58 arch/arm/cpu/armv7/start.o
 .rel.u_boot_list_2_driver_info_2_imx6_thermal
                0x0000000087853924       0x10 arch/arm/cpu/armv7/start.o
 .rel.u_boot_list_2_cmd_2_clocks
                0x0000000087853934       0x20 arch/arm/cpu/armv7/start.o
 .rel.text.imx_iomux_v3_setup_pad
                0x0000000087853954        0x8 arch/arm/cpu/armv7/start.o
 .rel.text.imx_iomux_set_gpr_register
                0x000000008785395c        0x0 arch/arm/cpu/armv7/start.o
 .rel.text.get_imx_reset_cause
                0x000000008785395c        0x0 arch/arm/cpu/armv7/start.o
 .rel.text.imx_ddr_size
                0x000000008785395c       0x10 arch/arm/cpu/armv7/start.o
 .rel.text.get_imx_type
                0x000000008785396c       0x10 arch/arm/cpu/armv7/start.o
 .rel.text.print_cpuinfo
                0x000000008785397c       0xb0 arch/arm/cpu/armv7/start.o
 .rel.text.set_chipselect_size
                0x0000000087853a2c        0x0 arch/arm/cpu/armv7/start.o
 .rel.text.force_idle_bus
                0x0000000087853a2c       0x18 arch/arm/cpu/armv7/start.o
 .rel.text.setup_i2c
                0x0000000087853a44       0x18 arch/arm/cpu/armv7/start.o
 .rel.text.board_video_skip
                0x0000000087853a5c       0x40 arch/arm/cpu/armv7/start.o
 .rel.text.create_usage
                0x0000000087853a9c       0x10 arch/arm/cpu/armv7/start.o
 .rel.text.do_boot_mode
                0x0000000087853aac       0x10 arch/arm/cpu/armv7/start.o
 .rel.text.add_board_boot_modes
                0x0000000087853abc       0x18 arch/arm/cpu/armv7/start.o
 .rel.rodata.CSWTCH.13
                0x0000000087853ad4      0x110 arch/arm/cpu/armv7/start.o
 .rel.u_boot_list_2_cmd_2_bmode
                0x0000000087853be4       0x18 arch/arm/cpu/armv7/start.o
 .rel.vectors   0x0000000087853bfc       0x38 arch/arm/cpu/armv7/start.o
 .rel.text.relocate_vectors
                0x0000000087853c34       0x20 arch/arm/cpu/armv7/start.o
 .rel.text.boot_jump_linux
                0x0000000087853c54       0x28 arch/arm/cpu/armv7/start.o
 .rel.text.boot_prep_linux
                0x0000000087853c7c       0x18 arch/arm/cpu/armv7/start.o
 .rel.text.bootz_setup
                0x0000000087853c94       0x10 arch/arm/cpu/armv7/start.o
 .rel.text.boot_prep_vxworks
                0x0000000087853ca4       0x10 arch/arm/cpu/armv7/start.o
 .rel.text.interrupt_init
                0x0000000087853cb4        0x8 arch/arm/cpu/armv7/start.o
 .rel.text.bad_mode
                0x0000000087853cbc        0x8 arch/arm/cpu/armv7/start.o
 .rel.text.show_regs
                0x0000000087853cc4       0x60 arch/arm/cpu/armv7/start.o
 .rel.text.do_undefined_instruction
                0x0000000087853d24        0x8 arch/arm/cpu/armv7/start.o
 .rel.text.do_software_interrupt
                0x0000000087853d2c        0x8 arch/arm/cpu/armv7/start.o
 .rel.text.do_prefetch_abort
                0x0000000087853d34        0x8 arch/arm/cpu/armv7/start.o
 .rel.text.do_data_abort
                0x0000000087853d3c        0x8 arch/arm/cpu/armv7/start.o
 .rel.text.do_not_used
                0x0000000087853d44        0x8 arch/arm/cpu/armv7/start.o
 .rel.text.do_fiq
                0x0000000087853d4c        0x8 arch/arm/cpu/armv7/start.o
 .rel.text.do_irq
                0x0000000087853d54        0x8 arch/arm/cpu/armv7/start.o
 .rel.text.do_reset
                0x0000000087853d5c        0x8 arch/arm/cpu/armv7/start.o
 .rel.text.enable_caches
                0x0000000087853d64        0x0 arch/arm/cpu/armv7/start.o
 .rel.rodata    0x0000000087853d64      0x118 arch/arm/cpu/armv7/start.o
 .rel.text.board_late_mmc_env_init
                0x0000000087853e7c       0x30 arch/arm/cpu/armv7/start.o
 .rel.text.do_enable_parallel_lcd
                0x0000000087853eac        0x8 arch/arm/cpu/armv7/start.o
 .rel.text.iox74lv_set
                0x0000000087853eb4        0x0 arch/arm/cpu/armv7/start.o
 .rel.text.board_mmc_init
                0x0000000087853eb4       0x20 arch/arm/cpu/armv7/start.o
 .rel.text.board_eth_init
                0x0000000087853ed4        0x8 arch/arm/cpu/armv7/start.o
 .rel.text.board_early_init_f
                0x0000000087853edc        0x8 arch/arm/cpu/armv7/start.o
 .rel.text.select_display_dev
                0x0000000087853ee4       0xd0 arch/arm/cpu/armv7/start.o
 .rel.text.board_init
                0x0000000087853fb4       0x38 arch/arm/cpu/armv7/start.o
 .rel.text.board_late_init
                0x0000000087853fec       0x28 arch/arm/cpu/armv7/start.o
 .rel.text.checkboard
                0x0000000087854014        0x8 arch/arm/cpu/armv7/start.o
 .rel.rodata.displays
                0x000000008785401c       0x50 arch/arm/cpu/armv7/start.o
 .rel.rodata.board_boot_modes
                0x000000008785406c       0x18 arch/arm/cpu/armv7/start.o
 .rel.text.do_go
                0x0000000087854084       0x10 arch/arm/cpu/armv7/start.o
 .rel.text.do_bootm
                0x0000000087854094       0x18 arch/arm/cpu/armv7/start.o
 .rel.text.do_bootd
                0x00000000878540ac        0x8 arch/arm/cpu/armv7/start.o
 .rel.text.image_info
                0x00000000878540b4       0x40 arch/arm/cpu/armv7/start.o
 .rel.text.do_iminfo
                0x00000000878540f4        0x8 arch/arm/cpu/armv7/start.o
 .rel.text.bootm_maybe_autostart
                0x00000000878540fc       0x20 arch/arm/cpu/armv7/start.o
 .rel.text.do_bootz
                0x000000008785411c       0x18 arch/arm/cpu/armv7/start.o
 .rel.text.do_help
                0x0000000087854134       0x10 arch/arm/cpu/armv7/start.o
 .rel.text.do_version
                0x0000000087854144       0x20 arch/arm/cpu/armv7/start.o
 .rel.text.source
                0x0000000087854164       0x38 arch/arm/cpu/armv7/start.o
 .rel.text.do_source
                0x000000008785419c        0x8 arch/arm/cpu/armv7/start.o
 .rel.text.print_num
                0x00000000878541a4        0x8 arch/arm/cpu/armv7/start.o
 .rel.text.do_bdinfo
                0x00000000878541ac       0xa0 arch/arm/cpu/armv7/start.o
 .rel.text.do_bmp
                0x000000008785424c        0x8 arch/arm/cpu/armv7/start.o
 .rel.text.do_bmp_info
                0x0000000087854254       0x28 arch/arm/cpu/armv7/start.o
 .rel.text.bmp_display
                0x000000008785427c        0x8 arch/arm/cpu/armv7/start.o
 .rel.text.do_bmp_display
                0x0000000087854284        0x8 arch/arm/cpu/armv7/start.o
 .rel.text.parse_argv
                0x000000008785428c       0x18 arch/arm/cpu/armv7/start.o
 .rel.text.invalidate_icache_all
                0x00000000878542a4        0x0 arch/arm/cpu/armv7/start.o
 .rel.text.do_icache
                0x00000000878542a4       0x18 arch/arm/cpu/armv7/start.o
 .rel.text.flush_dcache_all
                0x00000000878542bc        0x0 arch/arm/cpu/armv7/start.o
 .rel.text.do_dcache
                0x00000000878542bc       0x18 arch/arm/cpu/armv7/start.o
 .rel.text.do_coninfo
                0x00000000878542d4       0x28 arch/arm/cpu/armv7/start.o
 .rel.text.do_echo
                0x00000000878542fc        0x8 arch/arm/cpu/armv7/start.o
 .rel.text.valid_elf_image
                0x0000000087854304       0x10 arch/arm/cpu/armv7/start.o
 .rel.text.do_bootelf
                0x0000000087854314       0x28 arch/arm/cpu/armv7/start.o
 .rel.text.do_bootvx
                0x000000008785433c       0xe0 arch/arm/cpu/armv7/start.o
 .rel.text.do_fat_fsinfo
                0x000000008785441c       0x10 arch/arm/cpu/armv7/start.o
 .rel.text.do_fat_fswrite
                0x000000008785442c       0x18 arch/arm/cpu/armv7/start.o
 .rel.text.fdt_valid
                0x0000000087854444       0x28 arch/arm/cpu/armv7/start.o
 .rel.text.is_printable_string
                0x000000008785446c        0x8 arch/arm/cpu/armv7/start.o
 .rel.text.print_data
                0x0000000087854474       0x58 arch/arm/cpu/armv7/start.o
 .rel.text.set_working_fdt_addr
                0x00000000878544cc       0x10 arch/arm/cpu/armv7/start.o
 .rel.text.do_fdt
                0x00000000878544dc      0x248 arch/arm/cpu/armv7/start.o
 .rel.text.do_fuse
                0x0000000087854724       0x70 arch/arm/cpu/armv7/start.o
 .rel.text.do_gpio
                0x0000000087854794       0x20 arch/arm/cpu/armv7/start.o
 .rel.text.do_i2c
                0x00000000878547b4        0x8 arch/arm/cpu/armv7/start.o
 .rel.text.do_i2c_bus_speed
                0x00000000878547bc       0x18 arch/arm/cpu/armv7/start.o
 .rel.text.do_i2c_probe
                0x00000000878547d4       0x10 arch/arm/cpu/armv7/start.o
 .rel.text.do_i2c_bus_num
                0x00000000878547e4       0x30 arch/arm/cpu/armv7/start.o
 .rel.text.do_i2c_show_bus
                0x0000000087854814       0x28 arch/arm/cpu/armv7/start.o
 .rel.text.do_i2c_crc
                0x000000008785483c       0x20 arch/arm/cpu/armv7/start.o
 .rel.text.mod_i2c_mem.isra.3
                0x000000008785485c       0x60 arch/arm/cpu/armv7/start.o
 .rel.text.do_i2c_md
                0x00000000878548bc       0x58 arch/arm/cpu/armv7/start.o
 .rel.text.do_i2c_read
                0x0000000087854914       0x10 arch/arm/cpu/armv7/start.o
 .rel.text.do_i2c_mw
                0x0000000087854924       0x10 arch/arm/cpu/armv7/start.o
 .rel.text.do_i2c_write
                0x0000000087854934       0x18 arch/arm/cpu/armv7/start.o
 .rel.text.do_i2c_loop
                0x000000008785494c       0x10 arch/arm/cpu/armv7/start.o
 .rel.text.binary_test
                0x000000008785495c       0x70 arch/arm/cpu/armv7/start.o
 .rel.text.do_itest
                0x00000000878549cc       0x40 arch/arm/cpu/armv7/start.o
 .rel.text.bin_data_init
                0x0000000087854a0c       0x18 arch/arm/cpu/armv7/start.o
 .rel.text.k_data_save
                0x0000000087854a24       0x30 arch/arm/cpu/armv7/start.o
 .rel.text.k_data_restore
                0x0000000087854a54       0x30 arch/arm/cpu/armv7/start.o
 .rel.text.load_serial_ymodem
                0x0000000087854a84       0x20 arch/arm/cpu/armv7/start.o
 .rel.text.bin_data_char
                0x0000000087854aa4       0x10 arch/arm/cpu/armv7/start.o
 .rel.text.chk1.constprop.1
                0x0000000087854ab4        0x8 arch/arm/cpu/armv7/start.o
 .rel.text.s1_sendpacket.constprop.2
                0x0000000087854abc       0x18 arch/arm/cpu/armv7/start.o
 .rel.text.load_serial
                0x0000000087854ad4       0x68 arch/arm/cpu/armv7/start.o
 .rel.text.do_load_serial
                0x0000000087854b3c       0x30 arch/arm/cpu/armv7/start.o
 .rel.text.do_load_serial_bin
                0x0000000087854b6c       0xe8 arch/arm/cpu/armv7/start.o
 .rel.text.do_mem_mw
                0x0000000087854c54        0x8 arch/arm/cpu/armv7/start.o
 .rel.text.do_mem_md
                0x0000000087854c5c       0x20 arch/arm/cpu/armv7/start.o
 .rel.text.do_mem_cmp
                0x0000000087854c7c       0x38 arch/arm/cpu/armv7/start.o
 .rel.text.do_mem_base
                0x0000000087854cb4       0x10 arch/arm/cpu/armv7/start.o
 .rel.text.do_mem_cp
                0x0000000087854cc4       0x10 arch/arm/cpu/armv7/start.o
 .rel.text.do_mem_crc
                0x0000000087854cd4        0x8 arch/arm/cpu/armv7/start.o
 .rel.text.do_mem_mtest
                0x0000000087854cdc       0x40 arch/arm/cpu/armv7/start.o
 .rel.text.mod_mem.isra.0
                0x0000000087854d1c       0x48 arch/arm/cpu/armv7/start.o
 .rel.text.do_mii
                0x0000000087854d64      0x160 arch/arm/cpu/armv7/start.o
 .rel.text.do_mdio
                0x0000000087854ec4       0x70 arch/arm/cpu/armv7/start.o
 .rel.text.do_mmcops
                0x0000000087854f34       0x18 arch/arm/cpu/armv7/start.o
 .rel.text.init_mmc_device
                0x0000000087854f4c        0x8 arch/arm/cpu/armv7/start.o
 .rel.text.do_mmc_rescan
                0x0000000087854f54        0x8 arch/arm/cpu/armv7/start.o
 .rel.text.do_mmc_rst_func
                0x0000000087854f5c       0x10 arch/arm/cpu/armv7/start.o
 .rel.text.do_mmc_partconf
                0x0000000087854f6c        0x8 arch/arm/cpu/armv7/start.o
 .rel.text.do_mmc_boot_resize
                0x0000000087854f74       0x20 arch/arm/cpu/armv7/start.o
 .rel.text.do_mmc_bootbus
                0x0000000087854f94        0x8 arch/arm/cpu/armv7/start.o
 .rel.text.do_mmc_hwpartition
                0x0000000087854f9c       0xb0 arch/arm/cpu/armv7/start.o
 .rel.text.do_mmc_dev
                0x000000008785504c       0x38 arch/arm/cpu/armv7/start.o
 .rel.text.do_mmc_part
                0x0000000087855084       0x10 arch/arm/cpu/armv7/start.o
 .rel.text.do_mmc_erase
                0x0000000087855094       0x30 arch/arm/cpu/armv7/start.o
 .rel.text.do_mmc_write
                0x00000000878550c4       0x30 arch/arm/cpu/armv7/start.o
 .rel.text.do_mmc_read
                0x00000000878550f4       0x28 arch/arm/cpu/armv7/start.o
 .rel.text.do_mmcinfo
                0x000000008785511c       0xf8 arch/arm/cpu/armv7/start.o
 .rel.text.do_mmc_setdsr
                0x0000000087855214       0x28 arch/arm/cpu/armv7/start.o
 .rel.text.netboot_common
                0x000000008785523c       0x98 arch/arm/cpu/armv7/start.o
 .rel.text.do_ping
                0x00000000878552d4       0x18 arch/arm/cpu/armv7/start.o
 .rel.text.do_spi_flash
                0x00000000878552ec       0xe0 arch/arm/cpu/armv7/start.o
 .rel.text.substitute
                0x00000000878553cc        0x8 arch/arm/cpu/armv7/start.o
 .rel.text.regex_sub
                0x00000000878553d4       0x38 arch/arm/cpu/armv7/start.o
 .rel.text.do_setexpr
                0x000000008785540c       0x18 arch/arm/cpu/armv7/start.o
 .rel.text.do_test
                0x0000000087855424       0x70 arch/arm/cpu/armv7/start.o
 .rel.text.usb_get_class_desc
                0x0000000087855494       0x50 arch/arm/cpu/armv7/start.o
 .rel.text.usb_show_tree_graph
                0x00000000878554e4       0x48 arch/arm/cpu/armv7/start.o
 .rel.text.usb_display_class_sub
                0x000000008785552c       0xc8 arch/arm/cpu/armv7/start.o
 .rel.text.usb_display_string
                0x00000000878555f4        0x8 arch/arm/cpu/armv7/start.o
 .rel.text.usb_display_config
                0x00000000878555fc       0xa8 arch/arm/cpu/armv7/start.o
 .rel.text.do_usbboot
                0x00000000878556a4        0x8 arch/arm/cpu/armv7/start.o
 .rel.text.usb_display_desc.part.1
                0x00000000878556ac       0x38 arch/arm/cpu/armv7/start.o
 .rel.text.do_usb_start
                0x00000000878556e4        0x8 arch/arm/cpu/armv7/start.o
 .rel.text.do_usb
                0x00000000878556ec      0x170 arch/arm/cpu/armv7/start.o
 .rel.text.do_imgextract
                0x000000008785585c       0x90 arch/arm/cpu/armv7/start.o
 .rel.text.do_env_delete
                0x00000000878558ec       0x10 arch/arm/cpu/armv7/start.o
 .rel.text.do_env_exists
                0x00000000878558fc        0x8 arch/arm/cpu/armv7/start.o
 .rel.text.do_env_save
                0x0000000087855904       0x10 arch/arm/cpu/armv7/start.o
 .rel.text.do_env
                0x0000000087855914        0x8 arch/arm/cpu/armv7/start.o
 .rel.text.env_print
                0x000000008785591c       0x18 arch/arm/cpu/armv7/start.o
 .rel.text.do_env_print
                0x0000000087855934       0x10 arch/arm/cpu/armv7/start.o
 .rel.text.do_env_import
                0x0000000087855944       0x58 arch/arm/cpu/armv7/start.o
 .rel.text.do_env_default
                0x000000008785599c        0x8 arch/arm/cpu/armv7/start.o
 .rel.text._do_env_set.isra.0
                0x00000000878559a4       0x30 arch/arm/cpu/armv7/start.o
 .rel.text.get_env_id
                0x00000000878559d4        0x8 arch/arm/cpu/armv7/start.o
 .rel.text.setenv
                0x00000000878559dc        0x8 arch/arm/cpu/armv7/start.o
 .rel.text.setenv_hex
                0x00000000878559e4        0x8 arch/arm/cpu/armv7/start.o
 .rel.text.do_env_export
                0x00000000878559ec       0x40 arch/arm/cpu/armv7/start.o
 .rel.text.getenv_f
                0x0000000087855a2c        0x8 arch/arm/cpu/armv7/start.o
 .rel.text.getenv
                0x0000000087855a34        0x8 arch/arm/cpu/armv7/start.o
 .rel.text.do_env_edit.part.2
                0x0000000087855a3c       0x18 arch/arm/cpu/armv7/start.o
 .rel.text.common_diskboot
                0x0000000087855a54       0x28 arch/arm/cpu/armv7/start.o
 .rel.rodata.op_table
                0x0000000087855a7c       0x68 arch/arm/cpu/armv7/start.o
 .rel.rodata.reg_4_desc_tbl
                0x0000000087855ae4       0x60 arch/arm/cpu/armv7/start.o
 .rel.rodata.desc_and_len_tbl
                0x0000000087855b44       0x30 arch/arm/cpu/armv7/start.o
 .rel.rodata.reg_5_desc_tbl
                0x0000000087855b74       0x60 arch/arm/cpu/armv7/start.o
 .rel.rodata.reg_2_desc_tbl
                0x0000000087855bd4        0x8 arch/arm/cpu/armv7/start.o
 .rel.rodata.reg_0_5_desc_tbl
                0x0000000087855bdc       0x30 arch/arm/cpu/armv7/start.o
 .rel.rodata.reg_3_desc_tbl
                0x0000000087855c0c       0x18 arch/arm/cpu/armv7/start.o
 .rel.rodata.reg_0_desc_tbl
                0x0000000087855c24       0x50 arch/arm/cpu/armv7/start.o
 .rel.rodata.reg_1_desc_tbl
                0x0000000087855c74       0x80 arch/arm/cpu/armv7/start.o
 .rel.rodata.op_adv
                0x0000000087855cf4       0x80 arch/arm/cpu/armv7/start.o
 .rel.rodata.CSWTCH.27
                0x0000000087855d74       0x28 arch/arm/cpu/armv7/start.o
 .rel.u_boot_list_2_cmd_2_go
                0x0000000087855d9c       0x20 arch/arm/cpu/armv7/start.o
 .rel.u_boot_list_2_cmd_2_reset
                0x0000000087855dbc       0x20 arch/arm/cpu/armv7/start.o
 .rel.u_boot_list_2_cmd_2_iminfo
                0x0000000087855ddc       0x20 arch/arm/cpu/armv7/start.o
 .rel.u_boot_list_2_cmd_2_bootz
                0x0000000087855dfc       0x20 arch/arm/cpu/armv7/start.o
 .rel.u_boot_list_2_cmd_2_boot
                0x0000000087855e1c       0x20 arch/arm/cpu/armv7/start.o
 .rel.u_boot_list_2_cmd_2_bootd
                0x0000000087855e3c       0x20 arch/arm/cpu/armv7/start.o
 .rel.u_boot_list_2_cmd_2_bootm
                0x0000000087855e5c       0x20 arch/arm/cpu/armv7/start.o
 .rel.data.cmd_bootm_sub
                0x0000000087855e7c       0xd8 arch/arm/cpu/armv7/start.o
 .rel.u_boot_list_2_cmd_2_question_mark
                0x0000000087855f54       0x20 arch/arm/cpu/armv7/start.o
 .rel.u_boot_list_2_cmd_2_help
                0x0000000087855f74       0x20 arch/arm/cpu/armv7/start.o
 .rel.u_boot_list_2_cmd_2_version
                0x0000000087855f94       0x20 arch/arm/cpu/armv7/start.o
 .rel.u_boot_list_2_cmd_2_source
                0x0000000087855fb4       0x20 arch/arm/cpu/armv7/start.o
 .rel.u_boot_list_2_cmd_2_bdinfo
                0x0000000087855fd4       0x20 arch/arm/cpu/armv7/start.o
 .rel.data.cmd_bmp_sub
                0x0000000087855ff4       0x40 arch/arm/cpu/armv7/start.o
 .rel.u_boot_list_2_cmd_2_bmp
                0x0000000087856034       0x20 arch/arm/cpu/armv7/start.o
 .rel.u_boot_list_2_cmd_2_icache
                0x0000000087856054       0x20 arch/arm/cpu/armv7/start.o
 .rel.u_boot_list_2_cmd_2_dcache
                0x0000000087856074       0x20 arch/arm/cpu/armv7/start.o
 .rel.u_boot_list_2_cmd_2_coninfo
                0x0000000087856094       0x20 arch/arm/cpu/armv7/start.o
 .rel.u_boot_list_2_cmd_2_echo
                0x00000000878560b4       0x20 arch/arm/cpu/armv7/start.o
 .rel.u_boot_list_2_cmd_2_bootelf
                0x00000000878560d4       0x20 arch/arm/cpu/armv7/start.o
 .rel.u_boot_list_2_cmd_2_bootvx
                0x00000000878560f4       0x20 arch/arm/cpu/armv7/start.o
 .rel.u_boot_list_2_cmd_2_exit
                0x0000000087856114       0x20 arch/arm/cpu/armv7/start.o
 .rel.u_boot_list_2_cmd_2_ext4load
                0x0000000087856134       0x20 arch/arm/cpu/armv7/start.o
 .rel.u_boot_list_2_cmd_2_ext4write
                0x0000000087856154       0x20 arch/arm/cpu/armv7/start.o
 .rel.u_boot_list_2_cmd_2_ext4ls
                0x0000000087856174       0x20 arch/arm/cpu/armv7/start.o
 .rel.u_boot_list_2_cmd_2_ext4size
                0x0000000087856194       0x20 arch/arm/cpu/armv7/start.o
 .rel.u_boot_list_2_cmd_2_ext2ls
                0x00000000878561b4       0x20 arch/arm/cpu/armv7/start.o
 .rel.u_boot_list_2_cmd_2_ext2load
                0x00000000878561d4       0x20 arch/arm/cpu/armv7/start.o
 .rel.u_boot_list_2_cmd_2_fatinfo
                0x00000000878561f4       0x20 arch/arm/cpu/armv7/start.o
 .rel.u_boot_list_2_cmd_2_fatwrite
                0x0000000087856214       0x20 arch/arm/cpu/armv7/start.o
 .rel.u_boot_list_2_cmd_2_fatload
                0x0000000087856234       0x20 arch/arm/cpu/armv7/start.o
 .rel.u_boot_list_2_cmd_2_fatls
                0x0000000087856254       0x20 arch/arm/cpu/armv7/start.o
 .rel.u_boot_list_2_cmd_2_fatsize
                0x0000000087856274       0x20 arch/arm/cpu/armv7/start.o
 .rel.u_boot_list_2_cmd_2_fdt
                0x0000000087856294       0x20 arch/arm/cpu/armv7/start.o
 .rel.u_boot_list_2_cmd_2_protect
                0x00000000878562b4       0x20 arch/arm/cpu/armv7/start.o
 .rel.u_boot_list_2_cmd_2_erase
                0x00000000878562d4       0x20 arch/arm/cpu/armv7/start.o
 .rel.u_boot_list_2_cmd_2_flinfo
                0x00000000878562f4       0x20 arch/arm/cpu/armv7/start.o
 .rel.u_boot_list_2_cmd_2_save
                0x0000000087856314       0x20 arch/arm/cpu/armv7/start.o
 .rel.u_boot_list_2_cmd_2_ls
                0x0000000087856334       0x20 arch/arm/cpu/armv7/start.o
 .rel.u_boot_list_2_cmd_2_fstype
                0x0000000087856354       0x20 arch/arm/cpu/armv7/start.o
 .rel.u_boot_list_2_cmd_2_size
                0x0000000087856374       0x20 arch/arm/cpu/armv7/start.o
 .rel.u_boot_list_2_cmd_2_load
                0x0000000087856394       0x20 arch/arm/cpu/armv7/start.o
 .rel.u_boot_list_2_cmd_2_fuse
                0x00000000878563b4       0x20 arch/arm/cpu/armv7/start.o
 .rel.u_boot_list_2_cmd_2_gpio
                0x00000000878563d4       0x20 arch/arm/cpu/armv7/start.o
 .rel.data.cmd_i2c_sub
                0x00000000878563f4      0x1a0 arch/arm/cpu/armv7/start.o
 .rel.u_boot_list_2_cmd_2_i2c
                0x0000000087856594       0x20 arch/arm/cpu/armv7/start.o
 .rel.u_boot_list_2_cmd_2_itest
                0x00000000878565b4       0x20 arch/arm/cpu/armv7/start.o
 .rel.u_boot_list_2_cmd_2_loadb
                0x00000000878565d4       0x20 arch/arm/cpu/armv7/start.o
 .rel.u_boot_list_2_cmd_2_loads
                0x00000000878565f4       0x20 arch/arm/cpu/armv7/start.o
 .rel.u_boot_list_2_cmd_2_loadx
                0x0000000087856614       0x20 arch/arm/cpu/armv7/start.o
 .rel.u_boot_list_2_cmd_2_loady
                0x0000000087856634       0x20 arch/arm/cpu/armv7/start.o
 .rel.u_boot_list_2_cmd_2_base
                0x0000000087856654       0x20 arch/arm/cpu/armv7/start.o
 .rel.u_boot_list_2_cmd_2_cmp
                0x0000000087856674       0x20 arch/arm/cpu/armv7/start.o
 .rel.u_boot_list_2_cmd_2_nm
                0x0000000087856694       0x20 arch/arm/cpu/armv7/start.o
 .rel.u_boot_list_2_cmd_2_loop
                0x00000000878566b4       0x20 arch/arm/cpu/armv7/start.o
 .rel.u_boot_list_2_cmd_2_mtest
                0x00000000878566d4       0x20 arch/arm/cpu/armv7/start.o
 .rel.u_boot_list_2_cmd_2_cp
                0x00000000878566f4       0x20 arch/arm/cpu/armv7/start.o
 .rel.u_boot_list_2_cmd_2_mm
                0x0000000087856714       0x20 arch/arm/cpu/armv7/start.o
 .rel.u_boot_list_2_cmd_2_crc32
                0x0000000087856734       0x20 arch/arm/cpu/armv7/start.o
 .rel.u_boot_list_2_cmd_2_md
                0x0000000087856754       0x20 arch/arm/cpu/armv7/start.o
 .rel.u_boot_list_2_cmd_2_mw
                0x0000000087856774       0x20 arch/arm/cpu/armv7/start.o
 .rel.u_boot_list_2_cmd_2_mii
                0x0000000087856794       0x20 arch/arm/cpu/armv7/start.o
 .rel.u_boot_list_2_cmd_2_mdio
                0x00000000878567b4       0x20 arch/arm/cpu/armv7/start.o
 .rel.u_boot_list_2_cmd_2_sleep
                0x00000000878567d4       0x20 arch/arm/cpu/armv7/start.o
 .rel.u_boot_list_2_cmd_2_mmcinfo
                0x00000000878567f4       0x20 arch/arm/cpu/armv7/start.o
 .rel.data.cmd_mmc
                0x0000000087856814      0x1c0 arch/arm/cpu/armv7/start.o
 .rel.u_boot_list_2_cmd_2_mmc
                0x00000000878569d4       0x20 arch/arm/cpu/armv7/start.o
 .rel.u_boot_list_2_cmd_2_ping
                0x00000000878569f4       0x20 arch/arm/cpu/armv7/start.o
 .rel.u_boot_list_2_cmd_2_dhcp
                0x0000000087856a14       0x20 arch/arm/cpu/armv7/start.o
 .rel.u_boot_list_2_cmd_2_bootp
                0x0000000087856a34       0x20 arch/arm/cpu/armv7/start.o
 .rel.u_boot_list_2_cmd_2_tftpboot
                0x0000000087856a54       0x20 arch/arm/cpu/armv7/start.o
 .rel.u_boot_list_2_cmd_2_nfs
                0x0000000087856a74       0x20 arch/arm/cpu/armv7/start.o
 .rel.u_boot_list_2_cmd_2_sf
                0x0000000087856a94       0x20 arch/arm/cpu/armv7/start.o
 .rel.u_boot_list_2_cmd_2_setexpr
                0x0000000087856ab4       0x20 arch/arm/cpu/armv7/start.o
 .rel.u_boot_list_2_cmd_2_test
                0x0000000087856ad4       0x20 arch/arm/cpu/armv7/start.o
 .rel.u_boot_list_2_cmd_2_true
                0x0000000087856af4       0x18 arch/arm/cpu/armv7/start.o
 .rel.u_boot_list_2_cmd_2_false
                0x0000000087856b0c       0x18 arch/arm/cpu/armv7/start.o
 .rel.u_boot_list_2_cmd_2_usb
                0x0000000087856b24       0x20 arch/arm/cpu/armv7/start.o
 .rel.u_boot_list_2_cmd_2_usbboot
                0x0000000087856b44       0x20 arch/arm/cpu/armv7/start.o
 .rel.u_boot_list_2_cmd_2_imxtract
                0x0000000087856b64       0x20 arch/arm/cpu/armv7/start.o
 .rel.u_boot_list_2_cmd_2_setenv
                0x0000000087856b84       0x28 arch/arm/cpu/armv7/start.o
 .rel.u_boot_list_2_cmd_2_env
                0x0000000087856bac       0x20 arch/arm/cpu/armv7/start.o
 .rel.u_boot_list_2_cmd_2_saveenv
                0x0000000087856bcc       0x20 arch/arm/cpu/armv7/start.o
 .rel.data.cmd_env_sub
                0x0000000087856bec      0x140 arch/arm/cpu/armv7/start.o
 .rel.u_boot_list_2_cmd_2_printenv
                0x0000000087856d2c       0x28 arch/arm/cpu/armv7/start.o
 .rel.u_boot_list_2_cmd_2_editenv
                0x0000000087856d54       0x28 arch/arm/cpu/armv7/start.o
 .rel.u_boot_list_2_cmd_2_run
                0x0000000087856d7c       0x28 arch/arm/cpu/armv7/start.o
 .rel.text.jumptable_init
                0x0000000087856da4       0xc8 arch/arm/cpu/armv7/start.o
 .rel.text.hash_lookup_algo
                0x0000000087856e6c        0x0 arch/arm/cpu/armv7/start.o
 .rel.text.hash_progressive_lookup_algo
                0x0000000087856e6c        0x0 arch/arm/cpu/armv7/start.o
 .rel.text.hash_command
                0x0000000087856e6c        0x8 arch/arm/cpu/armv7/start.o
 .rel.text.mapset
                0x0000000087856e74        0x8 arch/arm/cpu/armv7/start.o
 .rel.text.syntax_err
                0x0000000087856e7c        0x8 arch/arm/cpu/armv7/start.o
 .rel.text.xmalloc
                0x0000000087856e84        0x8 arch/arm/cpu/armv7/start.o
 .rel.text.xrealloc
                0x0000000087856e8c        0x8 arch/arm/cpu/armv7/start.o
 .rel.text.done_word
                0x0000000087856e94        0x8 arch/arm/cpu/armv7/start.o
 .rel.text.do_showvar
                0x0000000087856e9c       0x20 arch/arm/cpu/armv7/start.o
 .rel.text.is_assignment
                0x0000000087856ebc        0x8 arch/arm/cpu/armv7/start.o
 .rel.text.file_get
                0x0000000087856ec4       0x30 arch/arm/cpu/armv7/start.o
 .rel.text.b_addqchr
                0x0000000087856ef4        0x8 arch/arm/cpu/armv7/start.o
 .rel.text.get_local_var
                0x0000000087856efc       0x20 arch/arm/cpu/armv7/start.o
 .rel.text.set_local_var
                0x0000000087856f1c       0x20 arch/arm/cpu/armv7/start.o
 .rel.text.insert_var_value_sub
                0x0000000087856f3c        0x8 arch/arm/cpu/armv7/start.o
 .rel.text.unset_local_var
                0x0000000087856f44        0x0 arch/arm/cpu/armv7/start.o
 .rel.text.parse_string_outer
                0x0000000087856f44       0x18 arch/arm/cpu/armv7/start.o
 .rel.text.run_list_real
                0x0000000087856f5c       0x40 arch/arm/cpu/armv7/start.o
 .rel.text.parse_stream_outer
                0x0000000087856f9c       0x68 arch/arm/cpu/armv7/start.o
 .rel.text.parse_file_outer
                0x0000000087857004       0x10 arch/arm/cpu/armv7/start.o
 .rel.text.u_boot_hush_start
                0x0000000087857014       0x18 arch/arm/cpu/armv7/start.o
 .rel.text.bootdelay_process
                0x000000008785702c       0x40 arch/arm/cpu/armv7/start.o
 .rel.text.autoboot_command
                0x000000008785706c       0x18 arch/arm/cpu/armv7/start.o
 .rel.text.setup_mon_len
                0x0000000087857084       0x10 arch/arm/cpu/armv7/start.o
 .rel.text.announce_dram_init
                0x0000000087857094        0x8 arch/arm/cpu/armv7/start.o
 .rel.text.init_func_i2c
                0x000000008785709c       0x10 arch/arm/cpu/armv7/start.o
 .rel.text.init_baud_rate
                0x00000000878570ac        0x8 arch/arm/cpu/armv7/start.o
 .rel.text.show_dram_config
                0x00000000878570b4        0x8 arch/arm/cpu/armv7/start.o
 .rel.text.board_init_f
                0x00000000878570bc        0x8 arch/arm/cpu/armv7/start.o
 .rel.text.initr_reloc_global_data
                0x00000000878570c4       0x18 arch/arm/cpu/armv7/start.o
 .rel.text.initr_net
                0x00000000878570dc        0x8 arch/arm/cpu/armv7/start.o
 .rel.text.initr_ethaddr
                0x00000000878570e4        0x8 arch/arm/cpu/armv7/start.o
 .rel.text.initr_env
                0x00000000878570ec       0x10 arch/arm/cpu/armv7/start.o
 .rel.text.initr_mmc
                0x00000000878570fc        0x8 arch/arm/cpu/armv7/start.o
 .rel.text.board_init_r
                0x0000000087857104        0x8 arch/arm/cpu/armv7/start.o
 .rel.text.bootm_find_images
                0x000000008785710c       0x18 arch/arm/cpu/armv7/start.o
 .rel.text.bootm_decomp_image
                0x0000000087857124       0x48 arch/arm/cpu/armv7/start.o
 .rel.text.do_bootm_states
                0x000000008785716c       0xc0 arch/arm/cpu/armv7/start.o
 .rel.text.do_bootm_rtems
                0x000000008785722c        0x8 arch/arm/cpu/armv7/start.o
 .rel.text.do_bootm_plan9
                0x0000000087857234       0x18 arch/arm/cpu/armv7/start.o
 .rel.text.do_bootm_standalone
                0x000000008785724c       0x18 arch/arm/cpu/armv7/start.o
 .rel.text.do_bootm_qnxelf
                0x0000000087857264        0x8 arch/arm/cpu/armv7/start.o
 .rel.text.do_bootm_netbsd
                0x000000008785726c       0x18 arch/arm/cpu/armv7/start.o
 .rel.text.do_bootvx_fdt
                0x0000000087857284       0x38 arch/arm/cpu/armv7/start.o
 .rel.text.bootm_os_get_boot_func
                0x00000000878572bc        0x8 arch/arm/cpu/armv7/start.o
 .rel.text.regex_callback
                0x00000000878572c4       0x10 arch/arm/cpu/armv7/start.o
 .rel.text.env_attr_lookup
                0x00000000878572d4        0x8 arch/arm/cpu/armv7/start.o
 .rel.text.find_env_callback
                0x00000000878572dc       0x10 arch/arm/cpu/armv7/start.o
 .rel.text.on_callbacks
                0x00000000878572ec       0x20 arch/arm/cpu/armv7/start.o
 .rel.text.set_callback
                0x000000008785730c        0x8 arch/arm/cpu/armv7/start.o
 .rel.text.env_callback_init
                0x0000000087857314       0x20 arch/arm/cpu/armv7/start.o
 .rel.text.skip_num
                0x0000000087857334        0x8 arch/arm/cpu/armv7/start.o
 .rel.text.on_flags
                0x000000008785733c       0x20 arch/arm/cpu/armv7/start.o
 .rel.text.env_flags_parse_vartype
                0x000000008785735c       0x10 arch/arm/cpu/armv7/start.o
 .rel.text.env_flags_parse_varaccess
                0x000000008785736c       0x10 arch/arm/cpu/armv7/start.o
 .rel.text.set_flags
                0x000000008785737c       0x10 arch/arm/cpu/armv7/start.o
 .rel.text.env_flags_parse_varaccess_from_binflags
                0x000000008785738c        0x0 arch/arm/cpu/armv7/start.o
 .rel.text.env_flags_init
                0x000000008785738c       0x30 arch/arm/cpu/armv7/start.o
 .rel.text.env_flags_validate
                0x00000000878573bc       0x68 arch/arm/cpu/armv7/start.o
 .rel.text.fini_mmc_for_env.isra.0
                0x0000000087857424        0x8 arch/arm/cpu/armv7/start.o
 .rel.text.env_init
                0x000000008785742c        0x8 arch/arm/cpu/armv7/start.o
 .rel.text.init_mmc_for_env
                0x0000000087857434       0x28 arch/arm/cpu/armv7/start.o
 .rel.text.saveenv
                0x000000008785745c       0x28 arch/arm/cpu/armv7/start.o
 .rel.text.env_relocate_spec
                0x0000000087857484        0x8 arch/arm/cpu/armv7/start.o
 .rel.text.of_bus_default_count_cells
                0x000000008785748c        0x0 arch/arm/cpu/armv7/start.o
 .rel.text.fdt_find_or_add_subnode
                0x000000008785748c       0x10 arch/arm/cpu/armv7/start.o
 .rel.text.fdt_root
                0x000000008785749c       0x20 arch/arm/cpu/armv7/start.o
 .rel.text.fdt_initrd
                0x00000000878574bc       0x30 arch/arm/cpu/armv7/start.o
 .rel.text.fdt_chosen
                0x00000000878574ec       0x20 arch/arm/cpu/armv7/start.o
 .rel.text.do_fixup_by_path
                0x000000008785750c        0x8 arch/arm/cpu/armv7/start.o
 .rel.text.fdt_fixup_memory_banks
                0x0000000087857514       0x38 arch/arm/cpu/armv7/start.o
 .rel.text.fdt_fixup_ethernet
                0x000000008785754c       0x30 arch/arm/cpu/armv7/start.o
 .rel.text.fdt_del_node_and_alias
                0x000000008785757c        0x0 arch/arm/cpu/armv7/start.o
 .rel.text.fdt_translate_address
                0x000000008785757c        0x0 arch/arm/cpu/armv7/start.o
 .rel.text.fdt_node_offset_by_compat_reg
                0x000000008785757c        0x0 arch/arm/cpu/armv7/start.o
 .rel.text.fdt_set_phandle
                0x000000008785757c        0x0 arch/arm/cpu/armv7/start.o
 .rel.text.fdt_create_phandle
                0x000000008785757c        0x0 arch/arm/cpu/armv7/start.o
 .rel.text.fdt_set_node_status
                0x000000008785757c        0x0 arch/arm/cpu/armv7/start.o
 .rel.text.fdt_add_edid
                0x000000008785757c        0x0 arch/arm/cpu/armv7/start.o
 .rel.text.fdt_verify_alias_address
                0x000000008785757c        0x0 arch/arm/cpu/armv7/start.o
 .rel.text.fdt_get_base_address
                0x000000008785757c        0x0 arch/arm/cpu/armv7/start.o
 .rel.text.fdt_read_range
                0x000000008785757c        0x0 arch/arm/cpu/armv7/start.o
 .rel.text.fdt_setup_simplefb_node
                0x000000008785757c        0x0 arch/arm/cpu/armv7/start.o
 .rel.text.fdt_fixup_display
                0x000000008785757c        0x0 arch/arm/cpu/armv7/start.o
 .rel.text.miiphy_get_dev_by_name
                0x000000008785757c       0x10 arch/arm/cpu/armv7/start.o
 .rel.text.miiphy_init
                0x000000008785758c       0x10 arch/arm/cpu/armv7/start.o
 .rel.text.miiphy_register
                0x000000008785759c        0x0 arch/arm/cpu/armv7/start.o
 .rel.text.mdio_register
                0x000000008785759c       0x18 arch/arm/cpu/armv7/start.o
 .rel.text.mdio_unregister
                0x00000000878575b4        0x8 arch/arm/cpu/armv7/start.o
 .rel.text.mdio_list_devices
                0x00000000878575bc       0x28 arch/arm/cpu/armv7/start.o
 .rel.text.miiphy_set_current_dev
                0x00000000878575e4       0x10 arch/arm/cpu/armv7/start.o
 .rel.text.miiphy_get_active_dev
                0x00000000878575f4        0x8 arch/arm/cpu/armv7/start.o
 .rel.text.mdio_get_current_dev
                0x00000000878575fc        0x8 arch/arm/cpu/armv7/start.o
 .rel.text.mdio_phydev_for_ethname
                0x0000000087857604       0x10 arch/arm/cpu/armv7/start.o
 .rel.text.miiphy_get_current_dev
                0x0000000087857614        0x8 arch/arm/cpu/armv7/start.o
 .rel.text.miiphy_listdev
                0x000000008785761c       0x30 arch/arm/cpu/armv7/start.o
 .rel.text.miiphy_speed
                0x000000008785764c       0x18 arch/arm/cpu/armv7/start.o
 .rel.text.miiphy_duplex
                0x0000000087857664       0x18 arch/arm/cpu/armv7/start.o
 .rel.text.usb_stop
                0x000000008785767c       0x18 arch/arm/cpu/armv7/start.o
 .rel.text.usb_detect_change
                0x0000000087857694        0x0 arch/arm/cpu/armv7/start.o
 .rel.text.usb_disable_asynch
                0x0000000087857694        0x8 arch/arm/cpu/armv7/start.o
 .rel.text.usb_control_msg
                0x000000008785769c        0x8 arch/arm/cpu/armv7/start.o
 .rel.text.get_descriptor_len
                0x00000000878576a4       0x10 arch/arm/cpu/armv7/start.o
 .rel.text.usb_string_sub
                0x00000000878576b4        0x8 arch/arm/cpu/armv7/start.o
 .rel.text.usb_get_configuration_len
                0x00000000878576bc       0x10 arch/arm/cpu/armv7/start.o
 .rel.text.usb_set_interface
                0x00000000878576cc        0x8 arch/arm/cpu/armv7/start.o
 .rel.text.usb_get_dev_index
                0x00000000878576d4        0x8 arch/arm/cpu/armv7/start.o
 .rel.text.usb_alloc_new_device
                0x00000000878576dc       0x18 arch/arm/cpu/armv7/start.o
 .rel.text.usb_free_device
                0x00000000878576f4       0x10 arch/arm/cpu/armv7/start.o
 .rel.text.usb_select_config
                0x0000000087857704       0x70 arch/arm/cpu/armv7/start.o
 .rel.text.usb_setup_device
                0x0000000087857774       0x20 arch/arm/cpu/armv7/start.o
 .rel.text.usb_init
                0x0000000087857794       0x58 arch/arm/cpu/armv7/start.o
 .rel.text.usb_find_usb2_hub_address_port
                0x00000000878577ec        0x8 arch/arm/cpu/armv7/start.o
 .rel.text.usb_hub_power_on
                0x00000000878577f4        0x8 arch/arm/cpu/armv7/start.o
 .rel.text.usb_hub_reset
                0x00000000878577fc        0x8 arch/arm/cpu/armv7/start.o
 .rel.text.usb_hub_port_connect_change
                0x0000000087857804       0x10 arch/arm/cpu/armv7/start.o
 .rel.text.usb_hub_configure
                0x0000000087857814       0x18 arch/arm/cpu/armv7/start.o
 .rel.text.usb_stor_BBB_transport
                0x000000008785782c       0x10 arch/arm/cpu/armv7/start.o
 .rel.text.usb_stor_CB_comdat
                0x000000008785783c        0x8 arch/arm/cpu/armv7/start.o
 .rel.text.usb_stor_CBI_get_status.isra.2
                0x0000000087857844        0x8 arch/arm/cpu/armv7/start.o
 .rel.text.usb_stor_CB_transport
                0x000000008785784c       0x10 arch/arm/cpu/armv7/start.o
 .rel.text.usb_request_sense.constprop.8
                0x000000008785785c        0x8 arch/arm/cpu/armv7/start.o
 .rel.text.usb_stor_read
                0x0000000087857864       0x10 arch/arm/cpu/armv7/start.o
 .rel.text.usb_stor_write
                0x0000000087857874       0x10 arch/arm/cpu/armv7/start.o
 .rel.text.usb_stor_get_dev
                0x0000000087857884       0x10 arch/arm/cpu/armv7/start.o
 .rel.text.usb_stor_info
                0x0000000087857894       0x20 arch/arm/cpu/armv7/start.o
 .rel.text.usb_stor_reset
                0x00000000878578b4        0x0 arch/arm/cpu/armv7/start.o
 .rel.text.usb_storage_probe
                0x00000000878578b4       0x38 arch/arm/cpu/armv7/start.o
 .rel.text.usb_stor_get_info
                0x00000000878578ec       0x20 arch/arm/cpu/armv7/start.o
 .rel.text.usb_stor_scan
                0x000000008785790c       0x40 arch/arm/cpu/armv7/start.o
 .rel.text.splash_get_pos
                0x000000008785794c        0x8 arch/arm/cpu/armv7/start.o
 .rel.text.env_get_addr
                0x0000000087857954        0x8 arch/arm/cpu/armv7/start.o
 .rel.text.env_get_char
                0x000000008785795c        0x8 arch/arm/cpu/armv7/start.o
 .rel.text.set_default_env
                0x0000000087857964       0x40 arch/arm/cpu/armv7/start.o
 .rel.text.set_default_vars
                0x00000000878579a4       0x10 arch/arm/cpu/armv7/start.o
 .rel.text.env_import
                0x00000000878579b4       0x38 arch/arm/cpu/armv7/start.o
 .rel.text.env_export
                0x00000000878579ec       0x28 arch/arm/cpu/armv7/start.o
 .rel.text.env_relocate
                0x0000000087857a14        0x8 arch/arm/cpu/armv7/start.o
 .rel.text.env_complete
                0x0000000087857a1c       0x18 arch/arm/cpu/armv7/start.o
 .rel.text.console_setfile
                0x0000000087857a34       0x30 arch/arm/cpu/armv7/start.o
 .rel.text.putc
                0x0000000087857a64        0x8 arch/arm/cpu/armv7/start.o
 .rel.text.puts
                0x0000000087857a6c        0x8 arch/arm/cpu/armv7/start.o
 .rel.text.fgetc
                0x0000000087857a74        0x8 arch/arm/cpu/armv7/start.o
 .rel.text.ftstc
                0x0000000087857a7c        0x8 arch/arm/cpu/armv7/start.o
 .rel.text.fputc
                0x0000000087857a84        0x0 arch/arm/cpu/armv7/start.o
 .rel.text.fputs
                0x0000000087857a84        0x0 arch/arm/cpu/armv7/start.o
 .rel.text.ctrlc
                0x0000000087857a84       0x10 arch/arm/cpu/armv7/start.o
 .rel.text.confirm_yesno
                0x0000000087857a94       0x20 arch/arm/cpu/armv7/start.o
 .rel.text.disable_ctrlc
                0x0000000087857ab4        0x0 arch/arm/cpu/armv7/start.o
 .rel.text.had_ctrlc
                0x0000000087857ab4        0x8 arch/arm/cpu/armv7/start.o
 .rel.text.clear_ctrlc
                0x0000000087857abc        0x8 arch/arm/cpu/armv7/start.o
 .rel.text.on_console
                0x0000000087857ac4       0x20 arch/arm/cpu/armv7/start.o
 .rel.text.stdio_print_current_devices
                0x0000000087857ae4       0x40 arch/arm/cpu/armv7/start.o
 .rel.text.console_init_r
                0x0000000087857b24       0x48 arch/arm/cpu/armv7/start.o
 .rel.text.sbrk
                0x0000000087857b6c       0x18 arch/arm/cpu/armv7/start.o
 .rel.text.mem_malloc_init
                0x0000000087857b84       0x18 arch/arm/cpu/armv7/start.o
 .rel.text.malloc_trim
                0x0000000087857b9c       0x18 arch/arm/cpu/armv7/start.o
 .rel.text.free
                0x0000000087857bb4       0x20 arch/arm/cpu/armv7/start.o
 .rel.text.malloc
                0x0000000087857bd4       0x48 arch/arm/cpu/armv7/start.o
 .rel.text.calloc
                0x0000000087857c1c        0x8 arch/arm/cpu/armv7/start.o
 .rel.text.realloc
                0x0000000087857c24       0x10 arch/arm/cpu/armv7/start.o
 .rel.text.mallopt
                0x0000000087857c34        0x0 arch/arm/cpu/armv7/start.o
 .rel.text.on_loadaddr
                0x0000000087857c34        0x8 arch/arm/cpu/armv7/start.o
 .rel.text.getenv_bootm_low
                0x0000000087857c3c        0x8 arch/arm/cpu/armv7/start.o
 .rel.text.getenv_bootm_size
                0x0000000087857c44       0x10 arch/arm/cpu/armv7/start.o
 .rel.text.getenv_bootm_mapsize
                0x0000000087857c54        0x8 arch/arm/cpu/armv7/start.o
 .rel.text.genimg_print_size
                0x0000000087857c5c       0x10 arch/arm/cpu/armv7/start.o
 .rel.text.genimg_get_os_name
                0x0000000087857c6c       0x10 arch/arm/cpu/armv7/start.o
 .rel.text.genimg_get_arch_name
                0x0000000087857c7c       0x10 arch/arm/cpu/armv7/start.o
 .rel.text.genimg_get_type_name
                0x0000000087857c8c       0x10 arch/arm/cpu/armv7/start.o
 .rel.text.genimg_get_type_short_name
                0x0000000087857c9c        0x0 arch/arm/cpu/armv7/start.o
 .rel.text.genimg_get_comp_name
                0x0000000087857c9c       0x10 arch/arm/cpu/armv7/start.o
 .rel.text.image_print_contents
                0x0000000087857cac       0x50 arch/arm/cpu/armv7/start.o
 .rel.text.genimg_get_os_id
                0x0000000087857cfc        0x0 arch/arm/cpu/armv7/start.o
 .rel.text.genimg_get_arch_id
                0x0000000087857cfc        0x0 arch/arm/cpu/armv7/start.o
 .rel.text.genimg_get_type_id
                0x0000000087857cfc        0x0 arch/arm/cpu/armv7/start.o
 .rel.text.genimg_get_comp_id
                0x0000000087857cfc        0x0 arch/arm/cpu/armv7/start.o
 .rel.text.genimg_get_kernel_addr_fit
                0x0000000087857cfc        0x8 arch/arm/cpu/armv7/start.o
 .rel.text.boot_get_ramdisk
                0x0000000087857d04       0x50 arch/arm/cpu/armv7/start.o
 .rel.text.boot_ramdisk_high
                0x0000000087857d54       0x20 arch/arm/cpu/armv7/start.o
 .rel.text.fdt_error
                0x0000000087857d74       0x10 arch/arm/cpu/armv7/start.o
 .rel.text.boot_fdt_add_mem_rsv_regions
                0x0000000087857d84        0x8 arch/arm/cpu/armv7/start.o
 .rel.text.boot_relocate_fdt
                0x0000000087857d8c       0x40 arch/arm/cpu/armv7/start.o
 .rel.text.boot_get_fdt
                0x0000000087857dcc       0x80 arch/arm/cpu/armv7/start.o
 .rel.text.image_setup_libfdt
                0x0000000087857e4c       0x20 arch/arm/cpu/armv7/start.o
 .rel.text.stdio_get_list
                0x0000000087857e6c        0x8 arch/arm/cpu/armv7/start.o
 .rel.text.stdio_get_by_name
                0x0000000087857e74        0x8 arch/arm/cpu/armv7/start.o
 .rel.text.stdio_register_dev
                0x0000000087857e7c        0x8 arch/arm/cpu/armv7/start.o
 .rel.text.stdio_init_tables
                0x0000000087857e84        0x8 arch/arm/cpu/armv7/start.o
 .rel.text.stdio_add_devices
                0x0000000087857e8c       0x48 arch/arm/cpu/armv7/start.o
 .rel.text.cli_simple_parse_line
                0x0000000087857ed4        0x0 arch/arm/cpu/armv7/start.o
 .rel.text.cli_simple_run_command
                0x0000000087857ed4        0x0 arch/arm/cpu/armv7/start.o
 .rel.text.cli_simple_loop
                0x0000000087857ed4        0x0 arch/arm/cpu/armv7/start.o
 .rel.text.do_run
                0x0000000087857ed4        0x8 arch/arm/cpu/armv7/start.o
 .rel.text.delete_char.part.0
                0x0000000087857edc       0x10 arch/arm/cpu/armv7/start.o
 .rel.text.cread_add_char
                0x0000000087857eec        0x8 arch/arm/cpu/armv7/start.o
 .rel.text.cli_readline_into_buffer
                0x0000000087857ef4       0xb8 arch/arm/cpu/armv7/start.o
 .rel.text.cli_readline
                0x0000000087857fac        0x8 arch/arm/cpu/armv7/start.o
 .rel.text.find_cmd
                0x0000000087857fb4       0x10 arch/arm/cpu/armv7/start.o
 .rel.text.cmd_usage
                0x0000000087857fc4       0x18 arch/arm/cpu/armv7/start.o
 .rel.text._do_help
                0x0000000087857fdc       0x10 arch/arm/cpu/armv7/start.o
 .rel.text.var_complete
                0x0000000087857fec       0x10 arch/arm/cpu/armv7/start.o
 .rel.text.cmd_auto_complete
                0x0000000087857ffc       0x48 arch/arm/cpu/armv7/start.o
 .rel.text.cmd_get_data_size
                0x0000000087858044        0x8 arch/arm/cpu/armv7/start.o
 .rel.text.cmd_process
                0x000000008785804c       0x18 arch/arm/cpu/armv7/start.o
 .rel.text.cmd_process_error
                0x0000000087858064        0x8 arch/arm/cpu/armv7/start.o
 .rel.text.srec_decode
                0x000000008785806c       0x50 arch/arm/cpu/armv7/start.o
 .rel.text.xyzModem_get_hdr
                0x00000000878580bc       0x30 arch/arm/cpu/armv7/start.o
 .rel.text.xyzModem_stream_open
                0x00000000878580ec       0x10 arch/arm/cpu/armv7/start.o
 .rel.text.xyzModem_stream_read
                0x00000000878580fc        0x8 arch/arm/cpu/armv7/start.o
 .rel.text.xyzModem_stream_close
                0x0000000087858104       0x20 arch/arm/cpu/armv7/start.o
 .rel.text.xyzModem_stream_terminate
                0x0000000087858124        0x8 arch/arm/cpu/armv7/start.o
 .rel.text.xyzModem_error
                0x000000008785812c       0x10 arch/arm/cpu/armv7/start.o
 .rel.rodata.boot_os
                0x000000008785813c       0x38 arch/arm/cpu/armv7/start.o
 .rel.rodata.uimage_comp
                0x0000000087858174       0x70 arch/arm/cpu/armv7/start.o
 .rel.rodata.uimage_os
                0x00000000878581e4       0x98 arch/arm/cpu/armv7/start.o
 .rel.rodata.uimage_arch
                0x000000008785827c      0x188 arch/arm/cpu/armv7/start.o
 .rel.rodata.uimage_type
                0x0000000087858404      0x1a8 arch/arm/cpu/armv7/start.o
 .rel.rodata.CSWTCH.28
                0x00000000878585ac       0x40 arch/arm/cpu/armv7/start.o
 .rel.data.hash_algo
                0x00000000878585ec        0x0 arch/arm/cpu/armv7/start.o
 .rel.data.reserved_list
                0x00000000878585ec       0x58 arch/arm/cpu/armv7/start.o
 .rel.u_boot_list_2_cmd_2_showvar
                0x0000000087858644       0x20 arch/arm/cpu/armv7/start.o
 .rel.data.init_sequence_f
                0x0000000087858664      0x138 arch/arm/cpu/armv7/start.o
 .rel.data.init_sequence_r
                0x000000008785879c       0xe0 arch/arm/cpu/armv7/start.o
 .rel.u_boot_list_2_env_clbk_2_callbacks
                0x000000008785887c       0x10 arch/arm/cpu/armv7/start.o
 .rel.u_boot_list_2_env_clbk_2_flags
                0x000000008785888c       0x10 arch/arm/cpu/armv7/start.o
 .rel.data.env_name_spec
                0x000000008785889c        0x8 arch/arm/cpu/armv7/start.o
 .rel.data.of_busses
                0x00000000878588a4        0x0 arch/arm/cpu/armv7/start.o
 .rel.data.env_htab
                0x00000000878588a4        0x8 arch/arm/cpu/armv7/start.o
 .rel.u_boot_list_2_env_clbk_2_console
                0x00000000878588ac       0x10 arch/arm/cpu/armv7/start.o
 .rel.data.av_  0x00000000878588bc      0x800 arch/arm/cpu/armv7/start.o
 .rel.u_boot_list_2_env_clbk_2_loadaddr
                0x00000000878590bc       0x10 arch/arm/cpu/armv7/start.o
 .rel.data.stdio_names
                0x00000000878590cc       0x18 arch/arm/cpu/armv7/start.o
 .rel.text.get_dev_hwpart
                0x00000000878590e4        0x8 arch/arm/cpu/armv7/start.o
 .rel.text.dev_print
                0x00000000878590ec      0x110 arch/arm/cpu/armv7/start.o
 .rel.text.print_part
                0x00000000878591fc       0xb0 arch/arm/cpu/armv7/start.o
 .rel.text.get_device
                0x00000000878592ac       0x18 arch/arm/cpu/armv7/start.o
 .rel.text.get_device_and_partition
                0x00000000878592c4       0x60 arch/arm/cpu/armv7/start.o
 .rel.text.test_block_type
                0x0000000087859324       0x10 arch/arm/cpu/armv7/start.o
 .rel.text.print_partition_extended
                0x0000000087859334       0x30 arch/arm/cpu/armv7/start.o
 .rel.text.get_partition_info_extended.constprop.1
                0x0000000087859364       0x80 arch/arm/cpu/armv7/start.o
 .rel.text.print_part_dos
                0x00000000878593e4        0x8 arch/arm/cpu/armv7/start.o
 .rel.rodata.block_drvr
                0x00000000878593ec       0x28 arch/arm/cpu/armv7/start.o
 .rel.text.device_bind
                0x0000000087859414       0x10 arch/arm/cpu/armv7/start.o
 .rel.text.device_probe
                0x0000000087859424       0x10 arch/arm/cpu/armv7/start.o
 .rel.text.dev_get_platdata
                0x0000000087859434       0x10 arch/arm/cpu/armv7/start.o
 .rel.text.dev_get_parent_platdata
                0x0000000087859444        0x0 arch/arm/cpu/armv7/start.o
 .rel.text.dev_get_uclass_platdata
                0x0000000087859444        0x0 arch/arm/cpu/armv7/start.o
 .rel.text.dev_get_priv
                0x0000000087859444       0x10 arch/arm/cpu/armv7/start.o
 .rel.text.dev_get_uclass_priv
                0x0000000087859454        0x0 arch/arm/cpu/armv7/start.o
 .rel.text.dev_get_parent_priv
                0x0000000087859454        0x0 arch/arm/cpu/armv7/start.o
 .rel.text.lists_driver_lookup_name
                0x0000000087859454       0x10 arch/arm/cpu/armv7/start.o
 .rel.text.lists_uclass_lookup
                0x0000000087859464       0x10 arch/arm/cpu/armv7/start.o
 .rel.text.lists_bind_drivers
                0x0000000087859474       0x18 arch/arm/cpu/armv7/start.o
 .rel.text.dm_root
                0x000000008785948c        0x8 arch/arm/cpu/armv7/start.o
 .rel.text.dm_init
                0x0000000087859494       0x10 arch/arm/cpu/armv7/start.o
 .rel.text.dm_scan_platdata
                0x00000000878594a4        0x8 arch/arm/cpu/armv7/start.o
 .rel.text.uclass_resolve_seq
                0x00000000878594ac        0x8 arch/arm/cpu/armv7/start.o
 .rel.text.device_remove
                0x00000000878594b4       0x20 arch/arm/cpu/armv7/start.o
 .rel.text.show_devices
                0x00000000878594d4       0x30 arch/arm/cpu/armv7/start.o
 .rel.text.dm_dump_all
                0x0000000087859504       0x10 arch/arm/cpu/armv7/start.o
 .rel.text.dm_dump_uclass
                0x0000000087859514       0x20 arch/arm/cpu/armv7/start.o
 .rel.text.finish_access
                0x0000000087859534        0x8 arch/arm/cpu/armv7/start.o
 .rel.text.prepare_access
                0x000000008785953c        0x8 arch/arm/cpu/armv7/start.o
 .rel.text.fuse_read
                0x0000000087859544        0x8 arch/arm/cpu/armv7/start.o
 .rel.text.fuse_sense
                0x000000008785954c        0x8 arch/arm/cpu/armv7/start.o
 .rel.text.fuse_prog
                0x0000000087859554        0x8 arch/arm/cpu/armv7/start.o
 .rel.text.fuse_override
                0x000000008785955c        0x8 arch/arm/cpu/armv7/start.o
 .rel.text.video_invertchar
                0x0000000087859564       0x10 arch/arm/cpu/armv7/start.o
 .rel.text.draw_bitmap
                0x0000000087859574       0x28 arch/arm/cpu/armv7/start.o
 .rel.text.video_putc.part.1
                0x000000008785959c        0x8 arch/arm/cpu/armv7/start.o
 .rel.text.console_newline.constprop.3
                0x00000000878595a4       0x28 arch/arm/cpu/armv7/start.o
 .rel.text.console_cursor
                0x00000000878595cc       0x30 arch/arm/cpu/armv7/start.o
 .rel.text.video_putc
                0x00000000878595fc       0xe0 arch/arm/cpu/armv7/start.o
 .rel.text.video_puts
                0x00000000878596dc       0x10 arch/arm/cpu/armv7/start.o
 .rel.text.display_rle8_bitmap
                0x00000000878596ec       0x40 arch/arm/cpu/armv7/start.o
 .rel.text.video_display_bitmap
                0x000000008785972c       0x98 arch/arm/cpu/armv7/start.o
 .rel.text.video_clear
                0x00000000878597c4       0x18 arch/arm/cpu/armv7/start.o
 .rel.text.drv_video_init
                0x00000000878597dc       0x90 arch/arm/cpu/armv7/start.o
 .rel.text.video_position_cursor
                0x000000008785986c        0x0 arch/arm/cpu/armv7/start.o
 .rel.text.video_get_pixel_width
                0x000000008785986c        0x0 arch/arm/cpu/armv7/start.o
 .rel.text.video_get_pixel_height
                0x000000008785986c        0x0 arch/arm/cpu/armv7/start.o
 .rel.text.video_get_screen_rows
                0x000000008785986c        0x0 arch/arm/cpu/armv7/start.o
 .rel.text.video_get_screen_columns
                0x000000008785986c        0x0 arch/arm/cpu/armv7/start.o
 .rel.text.mxs_lcd_panel_setup
                0x000000008785986c       0x20 arch/arm/cpu/armv7/start.o
 .rel.text.mxs_lcd_get_panel
                0x000000008785988c        0x0 arch/arm/cpu/armv7/start.o
 .rel.text.lcdif_power_down
                0x000000008785988c        0x8 arch/arm/cpu/armv7/start.o
 .rel.text.video_hw_init
                0x0000000087859894       0x78 arch/arm/cpu/armv7/start.o
 .rel.text.video_get_params
                0x000000008785990c       0x88 arch/arm/cpu/armv7/start.o
 .rel.text.video_get_video_mode
                0x0000000087859994        0x0 arch/arm/cpu/armv7/start.o
 .rel.text.video_get_ctfb_res_modes
                0x0000000087859994        0x0 arch/arm/cpu/armv7/start.o
 .rel.text._input_send_keycodes
                0x0000000087859994        0x0 arch/arm/cpu/armv7/start.o
 .rel.text.input_add_tables
                0x0000000087859994        0x0 arch/arm/cpu/armv7/start.o
 .rel.text.input_stdio_register
                0x0000000087859994        0x0 arch/arm/cpu/armv7/start.o
 .rel.text.imx_thermal_get_temp
                0x0000000087859994       0x10 arch/arm/cpu/armv7/start.o
 .rel.rodata.root_info
                0x00000000878599a4        0x8 arch/arm/cpu/armv7/start.o
 .rel.rodata.kbd_to_ansi364
                0x00000000878599ac        0x0 arch/arm/cpu/armv7/start.o
 .rel.rodata.imx_thermal_ops
                0x00000000878599ac        0x8 arch/arm/cpu/armv7/start.o
 .rel.u_boot_list_2_driver_2_root_driver
                0x00000000878599b4        0x8 arch/arm/cpu/armv7/start.o
 .rel.u_boot_list_2_uclass_2_root
                0x00000000878599bc        0x8 arch/arm/cpu/armv7/start.o
 .rel.u_boot_list_2_uclass_2_disk
                0x00000000878599c4        0x8 arch/arm/cpu/armv7/start.o
 .rel.data.kbd_entry
                0x00000000878599cc        0x0 arch/arm/cpu/armv7/start.o
 .rel.u_boot_list_2_uclass_2_thermal
                0x00000000878599cc        0x8 arch/arm/cpu/armv7/start.o
 .rel.u_boot_list_2_driver_2_imx_thermal
                0x00000000878599d4       0x18 arch/arm/cpu/armv7/start.o
 .rel.text.gpio_set_value
                0x00000000878599ec        0x8 arch/arm/cpu/armv7/start.o
 .rel.text.gpio_get_value
                0x00000000878599f4        0x8 arch/arm/cpu/armv7/start.o
 .rel.text.gpio_direction_input
                0x00000000878599fc        0x8 arch/arm/cpu/armv7/start.o
 .rel.text.gpio_direction_output
                0x0000000087859a04        0x8 arch/arm/cpu/armv7/start.o
 .rel.text.i2c_get_adapter
                0x0000000087859a0c       0x18 arch/arm/cpu/armv7/start.o
 .rel.text.i2c_init_bus
                0x0000000087859a24       0x10 arch/arm/cpu/armv7/start.o
 .rel.text.i2c_set_bus_num
                0x0000000087859a34       0x18 arch/arm/cpu/armv7/start.o
 .rel.text.wait_for_sr_state
                0x0000000087859a4c       0x18 arch/arm/cpu/armv7/start.o
 .rel.text.bus_i2c_set_bus_speed
                0x0000000087859a64        0x8 arch/arm/cpu/armv7/start.o
 .rel.text.mxc_i2c_set_bus_speed
                0x0000000087859a6c        0x8 arch/arm/cpu/armv7/start.o
 .rel.text.i2c_imx_stop
                0x0000000087859a74       0x10 arch/arm/cpu/armv7/start.o
 .rel.text.i2c_init_transfer
                0x0000000087859a84       0x18 arch/arm/cpu/armv7/start.o
 .rel.text.mxc_i2c_probe
                0x0000000087859a9c        0x8 arch/arm/cpu/armv7/start.o
 .rel.text.mxc_i2c_read
                0x0000000087859aa4        0x8 arch/arm/cpu/armv7/start.o
 .rel.text.mxc_i2c_write
                0x0000000087859aac        0x8 arch/arm/cpu/armv7/start.o
 .rel.text.i2c_get_base
                0x0000000087859ab4        0x0 arch/arm/cpu/armv7/start.o
 .rel.text.bus_i2c_init
                0x0000000087859ab4        0x8 arch/arm/cpu/armv7/start.o
 .rel.u_boot_list_2_i2c_2_mxc0
                0x0000000087859abc       0x30 arch/arm/cpu/armv7/start.o
 .rel.u_boot_list_2_i2c_2_mxc1
                0x0000000087859aec       0x30 arch/arm/cpu/armv7/start.o
 .rel.text.esdhc_send_cmd
                0x0000000087859b1c       0x20 arch/arm/cpu/armv7/start.o
 .rel.text.fsl_esdhc_initialize
                0x0000000087859b3c       0x20 arch/arm/cpu/armv7/start.o
 .rel.text.fdt_fixup_esdhc
                0x0000000087859b5c        0x0 arch/arm/cpu/armv7/start.o
 .rel.text.mmc_set_capacity
                0x0000000087859b5c       0x40 arch/arm/cpu/armv7/start.o
 .rel.text.mmc_send_status
                0x0000000087859b9c       0x10 arch/arm/cpu/armv7/start.o
 .rel.text.find_mmc_device
                0x0000000087859bac       0x10 arch/arm/cpu/armv7/start.o
 .rel.text.mmc_select_hwpart
                0x0000000087859bbc        0x8 arch/arm/cpu/armv7/start.o
 .rel.text.mmc_bread
                0x0000000087859bc4       0x10 arch/arm/cpu/armv7/start.o
 .rel.text.mmc_hwpart_config
                0x0000000087859bd4       0x48 arch/arm/cpu/armv7/start.o
 .rel.text.mmc_startup
                0x0000000087859c1c       0xb0 arch/arm/cpu/armv7/start.o
 .rel.text.mmc_register
                0x0000000087859ccc        0x0 arch/arm/cpu/armv7/start.o
 .rel.text.mmc_create
                0x0000000087859ccc       0x28 arch/arm/cpu/armv7/start.o
 .rel.text.mmc_start_init
                0x0000000087859cf4       0x10 arch/arm/cpu/armv7/start.o
 .rel.text.print_mmc_devices
                0x0000000087859d04       0x40 arch/arm/cpu/armv7/start.o
 .rel.text.get_mmc_num
                0x0000000087859d44        0x8 arch/arm/cpu/armv7/start.o
 .rel.text.mmc_initialize
                0x0000000087859d4c       0x18 arch/arm/cpu/armv7/start.o
 .rel.text.mmc_berase
                0x0000000087859d64       0x10 arch/arm/cpu/armv7/start.o
 .rel.text.mmc_bwrite
                0x0000000087859d74       0x18 arch/arm/cpu/armv7/start.o
 .rel.rodata.esdhc_ops
                0x0000000087859d8c       0x20 arch/arm/cpu/armv7/start.o
 .rel.text.__mtd_next_device
                0x0000000087859dac        0x0 arch/arm/cpu/armv7/start.o
 .rel.text.del_mtd_device
                0x0000000087859dac        0x0 arch/arm/cpu/armv7/start.o
 .rel.text.get_mtd_device
                0x0000000087859dac        0x0 arch/arm/cpu/armv7/start.o
 .rel.text.__put_mtd_device
                0x0000000087859dac        0x0 arch/arm/cpu/armv7/start.o
 .rel.text.add_mtd_device
                0x0000000087859dac        0x0 arch/arm/cpu/armv7/start.o
 .rel.text.mtd_arg_off
                0x0000000087859dac       0x10 arch/arm/cpu/armv7/start.o
 .rel.text.mtd_arg_off_size
                0x0000000087859dbc       0x28 arch/arm/cpu/armv7/start.o
 .rel.text.spi_flash_write_common
                0x0000000087859de4        0x8 arch/arm/cpu/armv7/start.o
 .rel.text.spi_flash_cmd_erase_ops
                0x0000000087859dec        0x8 arch/arm/cpu/armv7/start.o
 .rel.text.spi_flash_cmd_write_ops
                0x0000000087859df4        0x8 arch/arm/cpu/armv7/start.o
 .rel.text.spi_flash_scan
                0x0000000087859dfc       0x98 arch/arm/cpu/armv7/start.o
 .rel.rodata.spi_flash_params_table
                0x0000000087859e94       0xb8 arch/arm/cpu/armv7/start.o
 .rel.text.fec_phy_write
                0x0000000087859f4c        0x8 arch/arm/cpu/armv7/start.o
 .rel.text.fec_phy_read
                0x0000000087859f54        0x8 arch/arm/cpu/armv7/start.o
 .rel.text.fec_send
                0x0000000087859f5c        0x8 arch/arm/cpu/armv7/start.o
 .rel.text.fec_init
                0x0000000087859f64        0x8 arch/arm/cpu/armv7/start.o
 .rel.text.fec_recv
                0x0000000087859f6c       0x10 arch/arm/cpu/armv7/start.o
 .rel.text.fec_probe
                0x0000000087859f7c       0x68 arch/arm/cpu/armv7/start.o
 .rel.text.fec_get_miibus
                0x0000000087859fe4       0x30 arch/arm/cpu/armv7/start.o
 .rel.text.genphy_update_link
                0x000000008785a014       0x30 arch/arm/cpu/armv7/start.o
 .rel.text.phy_register
                0x000000008785a044        0x8 arch/arm/cpu/armv7/start.o
 .rel.text.get_phy_device_by_mask
                0x000000008785a04c       0x18 arch/arm/cpu/armv7/start.o
 .rel.text.phy_reset
                0x000000008785a064        0x8 arch/arm/cpu/armv7/start.o
 .rel.text.phy_connect_dev
                0x000000008785a06c        0x8 arch/arm/cpu/armv7/start.o
 .rel.text.phy_connect
                0x000000008785a074        0x0 arch/arm/cpu/armv7/start.o
 .rel.text.phy_get_interface_by_name
                0x000000008785a074        0x0 arch/arm/cpu/armv7/start.o
 .rel.text.phy_smsc_init
                0x000000008785a074       0x20 arch/arm/cpu/armv7/start.o
 .rel.rodata.phy_interface_strings
                0x000000008785a094        0x0 arch/arm/cpu/armv7/start.o
 .rel.data.genphy_driver
                0x000000008785a094       0x20 arch/arm/cpu/armv7/start.o
 .rel.data.phy_drivers
                0x000000008785a0b4       0x10 arch/arm/cpu/armv7/start.o
 .rel.data.lan8700_driver
                0x000000008785a0c4       0x20 arch/arm/cpu/armv7/start.o
 .rel.data.lan8710_driver
                0x000000008785a0e4       0x20 arch/arm/cpu/armv7/start.o
 .rel.data.lan911x_driver
                0x000000008785a104       0x20 arch/arm/cpu/armv7/start.o
 .rel.data.lan8740_driver
                0x000000008785a124       0x20 arch/arm/cpu/armv7/start.o
 .rel.text.check_reg
                0x000000008785a144        0x8 arch/arm/cpu/armv7/start.o
 .rel.text.pmic_alloc
                0x000000008785a14c        0x0 arch/arm/cpu/armv7/start.o
 .rel.text.pmic_get
                0x000000008785a14c        0x8 arch/arm/cpu/armv7/start.o
 .rel.text.power_get_interface
                0x000000008785a154        0x8 arch/arm/cpu/armv7/start.o
 .rel.text.do_pmic
                0x000000008785a15c       0x98 arch/arm/cpu/armv7/start.o
 .rel.text.pmic_reg_write
                0x000000008785a1f4       0x10 arch/arm/cpu/armv7/start.o
 .rel.text.pmic_reg_read
                0x000000008785a204       0x10 arch/arm/cpu/armv7/start.o
 .rel.text.pmic_probe
                0x000000008785a214        0x0 arch/arm/cpu/armv7/start.o
 .rel.u_boot_list_2_cmd_2_pmic
                0x000000008785a214       0x20 arch/arm/cpu/armv7/start.o
 .rel.data.pmic_list
                0x000000008785a234       0x10 arch/arm/cpu/armv7/start.o
 .rel.text.power_pfuze3000_init
                0x000000008785a244        0x0 arch/arm/cpu/armv7/start.o
 .rel.text.get_current
                0x000000008785a244       0x10 arch/arm/cpu/armv7/start.o
 .rel.text.serial_register
                0x000000008785a254        0x8 arch/arm/cpu/armv7/start.o
 .rel.text.serial_stdio_init
                0x000000008785a25c       0x38 arch/arm/cpu/armv7/start.o
 .rel.text.serial_assign
                0x000000008785a294       0x10 arch/arm/cpu/armv7/start.o
 .rel.text.serial_reinit_all
                0x000000008785a2a4        0x0 arch/arm/cpu/armv7/start.o
 .rel.text.on_baudrate
                0x000000008785a2a4       0x18 arch/arm/cpu/armv7/start.o
 .rel.text.mxc_serial_initialize
                0x000000008785a2bc        0x8 arch/arm/cpu/armv7/start.o
 .rel.text.default_serial_console
                0x000000008785a2c4        0x8 arch/arm/cpu/armv7/start.o
 .rel.u_boot_list_2_env_clbk_2_baudrate
                0x000000008785a2cc       0x10 arch/arm/cpu/armv7/start.o
 .rel.data.mxc_serial_drv
                0x000000008785a2dc       0x30 arch/arm/cpu/armv7/start.o
 .rel.text.spi_set_wordlen
                0x000000008785a30c        0x0 arch/arm/cpu/armv7/start.o
 .rel.text.fsl_qspi_runcmd
                0x000000008785a30c        0x8 arch/arm/cpu/armv7/start.o
 .rel.text.spi_setup_slave
                0x000000008785a314       0x28 arch/arm/cpu/armv7/start.o
 .rel.text.spi_xfer
                0x000000008785a33c       0x10 arch/arm/cpu/armv7/start.o
 .rel.text.is_eth_dev_on_usb_host
                0x000000008785a34c        0x0 arch/arm/cpu/armv7/start.o
 .rel.text.usb_host_eth_scan
                0x000000008785a34c       0x40 arch/arm/cpu/armv7/start.o
 .rel.text.asix_init
                0x000000008785a38c       0x18 arch/arm/cpu/armv7/start.o
 .rel.text.asix_eth_before_probe
                0x000000008785a3a4        0x8 arch/arm/cpu/armv7/start.o
 .rel.text.asix_eth_probe
                0x000000008785a3ac        0x8 arch/arm/cpu/armv7/start.o
 .rel.text.asix_eth_get_info
                0x000000008785a3b4       0x40 arch/arm/cpu/armv7/start.o
 .rel.rodata.prob_dev
                0x000000008785a3f4       0x18 arch/arm/cpu/armv7/start.o
 .rel.text.ehci_shutdown
                0x000000008785a40c        0x8 arch/arm/cpu/armv7/start.o
 .rel.text.ehci_td_buffer
                0x000000008785a414        0x8 arch/arm/cpu/armv7/start.o
 .rel.text.disable_periodic.isra.2
                0x000000008785a41c        0x8 arch/arm/cpu/armv7/start.o
 .rel.text.enable_periodic.isra.3
                0x000000008785a424        0x8 arch/arm/cpu/armv7/start.o
 .rel.text._ehci_destroy_int_queue
                0x000000008785a42c        0x8 arch/arm/cpu/armv7/start.o
 .rel.text.ehci_submit_async
                0x000000008785a434       0x30 arch/arm/cpu/armv7/start.o
 .rel.text._ehci_create_int_queue.isra.6
                0x000000008785a464       0x10 arch/arm/cpu/armv7/start.o
 .rel.text.ehci_set_controller_priv
                0x000000008785a474        0x0 arch/arm/cpu/armv7/start.o
 .rel.text.ehci_get_controller_priv
                0x000000008785a474        0x0 arch/arm/cpu/armv7/start.o
 .rel.text.usb_lowlevel_stop
                0x000000008785a474        0x8 arch/arm/cpu/armv7/start.o
 .rel.text.usb_lowlevel_init
                0x000000008785a47c       0x28 arch/arm/cpu/armv7/start.o
 .rel.text.submit_control_msg
                0x000000008785a4a4       0x28 arch/arm/cpu/armv7/start.o
 .rel.text.submit_int_msg
                0x000000008785a4cc        0x8 arch/arm/cpu/armv7/start.o
 .rel.text.usb_phy_mode
                0x000000008785a4d4        0x8 arch/arm/cpu/armv7/start.o
 .rel.text.ehci_hcd_init
                0x000000008785a4dc        0x8 arch/arm/cpu/armv7/start.o
 .rel.rodata.default_ehci_ops
                0x000000008785a4e4       0x20 arch/arm/cpu/armv7/start.o
 .rel.text.fs_probe_unsupported
                0x000000008785a504        0x8 arch/arm/cpu/armv7/start.o
 .rel.text.fs_get_info
                0x000000008785a50c        0x8 arch/arm/cpu/armv7/start.o
 .rel.text.fs_close
                0x000000008785a514        0x8 arch/arm/cpu/armv7/start.o
 .rel.text.fs_set_blk_dev
                0x000000008785a51c       0x28 arch/arm/cpu/armv7/start.o
 .rel.text.fs_uuid
                0x000000008785a544        0x0 arch/arm/cpu/armv7/start.o
 .rel.text.fs_ls
                0x000000008785a544        0x8 arch/arm/cpu/armv7/start.o
 .rel.text.fs_exists
                0x000000008785a54c        0x8 arch/arm/cpu/armv7/start.o
 .rel.text.fs_size
                0x000000008785a554        0x8 arch/arm/cpu/armv7/start.o
 .rel.text.fs_read
                0x000000008785a55c       0x10 arch/arm/cpu/armv7/start.o
 .rel.text.fs_write
                0x000000008785a56c       0x10 arch/arm/cpu/armv7/start.o
 .rel.text.do_size
                0x000000008785a57c        0x8 arch/arm/cpu/armv7/start.o
 .rel.text.do_load
                0x000000008785a584       0x50 arch/arm/cpu/armv7/start.o
 .rel.text.do_ls
                0x000000008785a5d4        0x8 arch/arm/cpu/armv7/start.o
 .rel.text.do_save
                0x000000008785a5dc       0x28 arch/arm/cpu/armv7/start.o
 .rel.text.do_fs_uuid
                0x000000008785a604        0x0 arch/arm/cpu/armv7/start.o
 .rel.text.do_fs_type
                0x000000008785a604       0x10 arch/arm/cpu/armv7/start.o
 .rel.text.get_fs
                0x000000008785a614        0x8 arch/arm/cpu/armv7/start.o
 .rel.text.ext4fs_free_node
                0x000000008785a61c        0x8 arch/arm/cpu/armv7/start.o
 .rel.text.ext4fs_read_file
                0x000000008785a624        0x8 arch/arm/cpu/armv7/start.o
 .rel.text.ext4fs_ls
                0x000000008785a62c       0x10 arch/arm/cpu/armv7/start.o
 .rel.text.ext4fs_read
                0x000000008785a63c       0x10 arch/arm/cpu/armv7/start.o
 .rel.text.ext4_read_file
                0x000000008785a64c       0x10 arch/arm/cpu/armv7/start.o
 .rel.text.ext4fs_uuid
                0x000000008785a65c        0x8 arch/arm/cpu/armv7/start.o
 .rel.text.put_ext4
                0x000000008785a664       0x20 arch/arm/cpu/armv7/start.o
 .rel.text.ext4fs_set_block_bmap
                0x000000008785a684        0x8 arch/arm/cpu/armv7/start.o
 .rel.text.ext4fs_reset_block_bmap
                0x000000008785a68c        0x8 arch/arm/cpu/armv7/start.o
 .rel.text.ext4fs_set_inode_bmap
                0x000000008785a694        0x8 arch/arm/cpu/armv7/start.o
 .rel.text.ext4fs_reset_inode_bmap
                0x000000008785a69c        0x8 arch/arm/cpu/armv7/start.o
 .rel.text.ext4fs_get_new_blk_no
                0x000000008785a6a4       0x10 arch/arm/cpu/armv7/start.o
 .rel.text.ext4fs_get_new_inode_no
                0x000000008785a6b4       0x10 arch/arm/cpu/armv7/start.o
 .rel.text.ext4fs_allocate_blocks
                0x000000008785a6c4       0x30 arch/arm/cpu/armv7/start.o
 .rel.text.ext4fs_iget
                0x000000008785a6f4        0x8 arch/arm/cpu/armv7/start.o
 .rel.text.read_allocated_block
                0x000000008785a6fc       0xb8 arch/arm/cpu/armv7/start.o
 .rel.text.ext4fs_update_parent_dentry
                0x000000008785a7b4       0x30 arch/arm/cpu/armv7/start.o
 .rel.text.ext4fs_get_parent_inode_num
                0x000000008785a7e4       0x28 arch/arm/cpu/armv7/start.o
 .rel.text.ext4fs_filename_check
                0x000000008785a80c       0x10 arch/arm/cpu/armv7/start.o
 .rel.text.ext4fs_reinit_global
                0x000000008785a81c       0x48 arch/arm/cpu/armv7/start.o
 .rel.text.ext4fs_close
                0x000000008785a864       0x10 arch/arm/cpu/armv7/start.o
 .rel.text.ext4fs_iterate_dir
                0x000000008785a874       0x30 arch/arm/cpu/armv7/start.o
 .rel.text.ext4fs_find_file1
                0x000000008785a8a4       0x10 arch/arm/cpu/armv7/start.o
 .rel.text.ext4fs_find_file
                0x000000008785a8b4        0x8 arch/arm/cpu/armv7/start.o
 .rel.text.ext4fs_open
                0x000000008785a8bc       0x10 arch/arm/cpu/armv7/start.o
 .rel.text.ext4fs_mount
                0x000000008785a8cc       0x10 arch/arm/cpu/armv7/start.o
 .rel.text.ext4fs_set_blk_dev
                0x000000008785a8dc       0x18 arch/arm/cpu/armv7/start.o
 .rel.text.ext4fs_devread
                0x000000008785a8f4       0x40 arch/arm/cpu/armv7/start.o
 .rel.text.ext4fs_update
                0x000000008785a934       0x10 arch/arm/cpu/armv7/start.o
 .rel.text.ext4fs_get_bgdtable
                0x000000008785a944        0x8 arch/arm/cpu/armv7/start.o
 .rel.text.ext4fs_deinit
                0x000000008785a94c        0x8 arch/arm/cpu/armv7/start.o
 .rel.text.ext4fs_init
                0x000000008785a954       0x10 arch/arm/cpu/armv7/start.o
 .rel.text.ext4fs_write
                0x000000008785a964       0x60 arch/arm/cpu/armv7/start.o
 .rel.text.ext4_write_file
                0x000000008785a9c4       0x10 arch/arm/cpu/armv7/start.o
 .rel.text.ext4fs_dump_metadata
                0x000000008785a9d4        0x8 arch/arm/cpu/armv7/start.o
 .rel.text.ext4fs_free_journal
                0x000000008785a9dc       0x28 arch/arm/cpu/armv7/start.o
 .rel.text.ext4fs_log_gdt
                0x000000008785aa04       0x10 arch/arm/cpu/armv7/start.o
 .rel.text.ext4fs_log_journal
                0x000000008785aa14       0x20 arch/arm/cpu/armv7/start.o
 .rel.text.ext4fs_put_metadata
                0x000000008785aa34       0x20 arch/arm/cpu/armv7/start.o
 .rel.text.print_revoke_blks
                0x000000008785aa54        0x0 arch/arm/cpu/armv7/start.o
 .rel.text.ext4fs_push_revoke_blk
                0x000000008785aa54       0x28 arch/arm/cpu/armv7/start.o
 .rel.text.ext4fs_free_revoke_blks
                0x000000008785aa7c       0x18 arch/arm/cpu/armv7/start.o
 .rel.text.check_blknr_for_revoke
                0x000000008785aa94        0x8 arch/arm/cpu/armv7/start.o
 .rel.text.recover_transaction
                0x000000008785aa9c       0x10 arch/arm/cpu/armv7/start.o
 .rel.text.print_jrnl_status
                0x000000008785aaac       0x10 arch/arm/cpu/armv7/start.o
 .rel.text.ext4fs_check_journal_state
                0x000000008785aabc       0x18 arch/arm/cpu/armv7/start.o
 .rel.text.ext4fs_init_journal
                0x000000008785aad4       0x38 arch/arm/cpu/armv7/start.o
 .rel.text.ext4fs_update_journal
                0x000000008785ab0c       0x20 arch/arm/cpu/armv7/start.o
 .rel.text.ext2fs_crc16
                0x000000008785ab2c        0x8 arch/arm/cpu/armv7/start.o
 .rel.text.downcase
                0x000000008785ab34        0x8 arch/arm/cpu/armv7/start.o
 .rel.text.disk_read
                0x000000008785ab3c       0x10 arch/arm/cpu/armv7/start.o
 .rel.text.disk_write
                0x000000008785ab4c       0x20 arch/arm/cpu/armv7/start.o
 .rel.text.flush_fat_buffer
                0x000000008785ab6c        0x8 arch/arm/cpu/armv7/start.o
 .rel.text.get_fatent_value
                0x000000008785ab74        0x8 arch/arm/cpu/armv7/start.o
 .rel.text.get_cluster
                0x000000008785ab7c        0x8 arch/arm/cpu/armv7/start.o
 .rel.text.set_cluster
                0x000000008785ab84        0x8 arch/arm/cpu/armv7/start.o
 .rel.text.read_bootsectandvi
                0x000000008785ab8c       0x20 arch/arm/cpu/armv7/start.o
 .rel.text.set_name
                0x000000008785abac        0x8 arch/arm/cpu/armv7/start.o
 .rel.text.check_overflow
                0x000000008785abb4       0x10 arch/arm/cpu/armv7/start.o
 .rel.text.get_vfatname
                0x000000008785abc4       0x10 arch/arm/cpu/armv7/start.o
 .rel.text.flush_dir_table.constprop.8
                0x000000008785abd4       0x20 arch/arm/cpu/armv7/start.o
 .rel.text.do_fat_write
                0x000000008785abf4       0x80 arch/arm/cpu/armv7/start.o
 .rel.text.fat_set_blk_dev
                0x000000008785ac74       0x28 arch/arm/cpu/armv7/start.o
 .rel.text.fat_register_device
                0x000000008785ac9c        0x0 arch/arm/cpu/armv7/start.o
 .rel.text.do_fat_read_at
                0x000000008785ac9c       0x60 arch/arm/cpu/armv7/start.o
 .rel.text.file_fat_detectfs
                0x000000008785acfc       0xb0 arch/arm/cpu/armv7/start.o
 .rel.text.file_fat_read_at
                0x000000008785adac        0x8 arch/arm/cpu/armv7/start.o
 .rel.text.fat_read_file
                0x000000008785adb4        0x8 arch/arm/cpu/armv7/start.o
 .rel.text.file_fat_write
                0x000000008785adbc       0x10 arch/arm/cpu/armv7/start.o
 .rel.text.file_getfsname
                0x000000008785adcc        0x0 arch/arm/cpu/armv7/start.o
 .rel.text.file_cd
                0x000000008785adcc        0x0 arch/arm/cpu/armv7/start.o
 .rel.text.file_detectfs
                0x000000008785adcc        0x0 arch/arm/cpu/armv7/start.o
 .rel.text.file_ls
                0x000000008785adcc        0x0 arch/arm/cpu/armv7/start.o
 .rel.text.file_read
                0x000000008785adcc        0x0 arch/arm/cpu/armv7/start.o
 .rel.rodata.filesystems
                0x000000008785adcc        0x0 arch/arm/cpu/armv7/start.o
 .rel.data.fstypes
                0x000000008785adcc       0xd8 arch/arm/cpu/armv7/start.o
 .rel.text.inflate_fast
                0x000000008785aea4       0x18 arch/arm/cpu/armv7/start.o
 .rel.text.inflate_table
                0x000000008785aebc       0x20 arch/arm/cpu/armv7/start.o
 .rel.text.inflateInit2_
                0x000000008785aedc       0x10 arch/arm/cpu/armv7/start.o
 .rel.text.inflate
                0x000000008785aeec      0x188 arch/arm/cpu/armv7/start.o
 .rel.text.fdt_next_tag
                0x000000008785b074       0x48 arch/arm/cpu/armv7/start.o
 .rel.text.fdt_get_phandle
                0x000000008785b0bc        0x0 arch/arm/cpu/armv7/start.o
 .rel.text.fdt_get_alias_namelen
                0x000000008785b0bc        0x8 arch/arm/cpu/armv7/start.o
 .rel.text.fdt_node_check_compatible
                0x000000008785b0c4        0x0 arch/arm/cpu/armv7/start.o
 .rel.text.fdt_strerror
                0x000000008785b0c4       0x20 arch/arm/cpu/armv7/start.o
 .rel.text.fdt_find_regions
                0x000000008785b0e4        0x0 arch/arm/cpu/armv7/start.o
 .rel.text.fdt_create_empty_tree
                0x000000008785b0e4        0x0 arch/arm/cpu/armv7/start.o
 .rel.text.fdt_address_cells
                0x000000008785b0e4        0x8 arch/arm/cpu/armv7/start.o
 .rel.text.fdt_size_cells
                0x000000008785b0ec        0x8 arch/arm/cpu/armv7/start.o
 .rel.text.fdt_add_alias_regions
                0x000000008785b0f4        0x0 arch/arm/cpu/armv7/start.o
 .rel.text.fdt_next_region
                0x000000008785b0f4        0x0 arch/arm/cpu/armv7/start.o
 .rel.text.crc7
                0x000000008785b0f4        0x0 arch/arm/cpu/armv7/start.o
 .rel.text.cyg_crc16
                0x000000008785b0f4        0x8 arch/arm/cpu/armv7/start.o
 .rel.text.zunzip
                0x000000008785b0fc       0x28 arch/arm/cpu/armv7/start.o
 .rel.text.gunzip
                0x000000008785b124       0x10 arch/arm/cpu/armv7/start.o
 .rel.text.initcall_run_list
                0x000000008785b134        0x8 arch/arm/cpu/armv7/start.o
 .rel.text.lmb_alloc_base
                0x000000008785b13c        0x8 arch/arm/cpu/armv7/start.o
 .rel.text.strmhz
                0x000000008785b144        0x0 arch/arm/cpu/armv7/start.o
 .rel.text.list_sort
                0x000000008785b144        0x0 arch/arm/cpu/armv7/start.o
 .rel.text.match_string
                0x000000008785b144        0x8 arch/arm/cpu/armv7/start.o
 .rel.text.match_entry
                0x000000008785b14c        0x8 arch/arm/cpu/armv7/start.o
 .rel.text.hcreate_r
                0x000000008785b154        0x8 arch/arm/cpu/armv7/start.o
 .rel.text.hdestroy_r
                0x000000008785b15c        0x8 arch/arm/cpu/armv7/start.o
 .rel.text.hmatch_r
                0x000000008785b164        0x8 arch/arm/cpu/armv7/start.o
 .rel.text.hsearch_r
                0x000000008785b16c        0x8 arch/arm/cpu/armv7/start.o
 .rel.text.hdelete_r
                0x000000008785b174        0x8 arch/arm/cpu/armv7/start.o
 .rel.text.hexport_r
                0x000000008785b17c       0x18 arch/arm/cpu/armv7/start.o
 .rel.text.himport_r
                0x000000008785b194       0x20 arch/arm/cpu/armv7/start.o
 .rel.text.display_options
                0x000000008785b1b4       0x10 arch/arm/cpu/armv7/start.o
 .rel.text.print_freq
                0x000000008785b1c4        0x0 arch/arm/cpu/armv7/start.o
 .rel.text.print_size
                0x000000008785b1c4       0x28 arch/arm/cpu/armv7/start.o
 .rel.text.print_buffer
                0x000000008785b1ec       0x28 arch/arm/cpu/armv7/start.o
 .rel.text.crc32_no_comp
                0x000000008785b214        0x8 arch/arm/cpu/armv7/start.o
 .rel.text.hang
                0x000000008785b21c        0x8 arch/arm/cpu/armv7/start.o
 .rel.text.skip_spaces
                0x000000008785b224        0x8 arch/arm/cpu/armv7/start.o
 .rel.text.strim
                0x000000008785b22c        0x8 arch/arm/cpu/armv7/start.o
 .rel.text.emit
                0x000000008785b234        0x8 arch/arm/cpu/armv7/start.o
 .rel.text.store_char_in_data
                0x000000008785b23c        0x8 arch/arm/cpu/armv7/start.o
 .rel.text.match
                0x000000008785b244       0x98 arch/arm/cpu/armv7/start.o
 .rel.text.quantifier
                0x000000008785b2dc        0x8 arch/arm/cpu/armv7/start.o
 .rel.text.fixup_branch
                0x000000008785b2e4        0x8 arch/arm/cpu/armv7/start.o
 .rel.text.compile
                0x000000008785b2ec       0x28 arch/arm/cpu/armv7/start.o
 .rel.text.slre_compile
                0x000000008785b314        0x8 arch/arm/cpu/armv7/start.o
 .rel.text.strncasecmp
                0x000000008785b31c        0x0 arch/arm/cpu/armv7/start.o
 .rel.text.strtok
                0x000000008785b31c        0x8 arch/arm/cpu/armv7/start.o
 .rel.text.string
                0x000000008785b324        0x8 arch/arm/cpu/armv7/start.o
 .rel.text.number
                0x000000008785b32c        0x8 arch/arm/cpu/armv7/start.o
 .rel.text.vsnprintf_internal
                0x000000008785b334       0x10 arch/arm/cpu/armv7/start.o
 .rel.text.__assert_fail
                0x000000008785b344        0x0 arch/arm/cpu/armv7/start.o
 .rel.text.simple_itoa
                0x000000008785b344        0x8 arch/arm/cpu/armv7/start.o
 .rel.text.print_grouped_ull
                0x000000008785b34c        0x0 arch/arm/cpu/armv7/start.o
 .rel.text.simple_strtoul
                0x000000008785b34c        0x8 arch/arm/cpu/armv7/start.o
 .rel.text.simple_strtoull
                0x000000008785b354        0x8 arch/arm/cpu/armv7/start.o
 .rel.text.trailing_strtoln
                0x000000008785b35c        0x8 arch/arm/cpu/armv7/start.o
 .rel.rodata.z_errmsg
                0x000000008785b364        0x0 arch/arm/cpu/armv7/start.o
 .rel.rodata.fdt_errtable
                0x000000008785b364       0x58 arch/arm/cpu/armv7/start.o
 .rel.data.current
                0x000000008785b3bc        0x0 arch/arm/cpu/armv7/start.o
 .rel.text.arp_init
                0x000000008785b3bc       0x30 arch/arm/cpu/armv7/start.o
 .rel.text.arp_raw_request
                0x000000008785b3ec       0x18 arch/arm/cpu/armv7/start.o
 .rel.text.arp_request
                0x000000008785b404       0x38 arch/arm/cpu/armv7/start.o
 .rel.text.arp_timeout_check
                0x000000008785b43c       0x28 arch/arm/cpu/armv7/start.o
 .rel.text.arp_receive
                0x000000008785b464       0x40 arch/arm/cpu/armv7/start.o
 .rel.text.dhcp_process_options
                0x000000008785b4a4       0x68 arch/arm/cpu/armv7/start.o
 .rel.text.dhcp_packet_process_options
                0x000000008785b50c        0x8 arch/arm/cpu/armv7/start.o
 .rel.text.dhcp_handler
                0x000000008785b514       0x90 arch/arm/cpu/armv7/start.o
 .rel.text.bootp_reset
                0x000000008785b5a4       0x20 arch/arm/cpu/armv7/start.o
 .rel.text.bootp_request
                0x000000008785b5c4       0x78 arch/arm/cpu/armv7/start.o
 .rel.text.bootp_timeout_handler
                0x000000008785b63c       0x28 arch/arm/cpu/armv7/start.o
 .rel.text.on_ethaddr
                0x000000008785b664        0x8 arch/arm/cpu/armv7/start.o
 .rel.text.eth_set_current_to_next
                0x000000008785b66c        0x8 arch/arm/cpu/armv7/start.o
 .rel.text.eth_set_dev
                0x000000008785b674        0x8 arch/arm/cpu/armv7/start.o
 .rel.text.eth_get_dev_by_name
                0x000000008785b67c       0x28 arch/arm/cpu/armv7/start.o
 .rel.text.eth_get_dev_by_index
                0x000000008785b6a4        0x8 arch/arm/cpu/armv7/start.o
 .rel.text.eth_get_dev_index
                0x000000008785b6ac        0x8 arch/arm/cpu/armv7/start.o
 .rel.text.eth_write_hwaddr
                0x000000008785b6b4       0x30 arch/arm/cpu/armv7/start.o
 .rel.text.eth_register
                0x000000008785b6e4       0x18 arch/arm/cpu/armv7/start.o
 .rel.text.eth_unregister
                0x000000008785b6fc       0x10 arch/arm/cpu/armv7/start.o
 .rel.text.eth_initialize
                0x000000008785b70c       0x78 arch/arm/cpu/armv7/start.o
 .rel.text.eth_init
                0x000000008785b784       0x10 arch/arm/cpu/armv7/start.o
 .rel.text.eth_halt
                0x000000008785b794        0x8 arch/arm/cpu/armv7/start.o
 .rel.text.eth_send
                0x000000008785b79c        0x8 arch/arm/cpu/armv7/start.o
 .rel.text.eth_rx
                0x000000008785b7a4        0x8 arch/arm/cpu/armv7/start.o
 .rel.text.eth_setenv_enetaddr
                0x000000008785b7ac        0x8 arch/arm/cpu/armv7/start.o
 .rel.text.eth_getenv_enetaddr_by_index
                0x000000008785b7b4       0x10 arch/arm/cpu/armv7/start.o
 .rel.text.eth_setenv_enetaddr_by_index
                0x000000008785b7c4       0x10 arch/arm/cpu/armv7/start.o
 .rel.text.eth_mac_skip
                0x000000008785b7d4       0x10 arch/arm/cpu/armv7/start.o
 .rel.text.eth_get_name
                0x000000008785b7e4       0x10 arch/arm/cpu/armv7/start.o
 .rel.text.eth_current_changed
                0x000000008785b7f4       0x20 arch/arm/cpu/armv7/start.o
 .rel.text.eth_try_another
                0x000000008785b814       0x28 arch/arm/cpu/armv7/start.o
 .rel.text.eth_set_current
                0x000000008785b83c       0x20 arch/arm/cpu/armv7/start.o
 .rel.text.net_clear_handlers
                0x000000008785b85c       0x20 arch/arm/cpu/armv7/start.o
 .rel.text.start_again_timeout_handler
                0x000000008785b87c        0x8 arch/arm/cpu/armv7/start.o
 .rel.text.on_ipaddr
                0x000000008785b884        0x8 arch/arm/cpu/armv7/start.o
 .rel.text.on_gatewayip
                0x000000008785b88c        0x8 arch/arm/cpu/armv7/start.o
 .rel.text.on_netmask
                0x000000008785b894        0x8 arch/arm/cpu/armv7/start.o
 .rel.text.on_serverip
                0x000000008785b89c        0x8 arch/arm/cpu/armv7/start.o
 .rel.text.net_init_loop
                0x000000008785b8a4       0x10 arch/arm/cpu/armv7/start.o
 .rel.text.net_auto_load
                0x000000008785b8b4       0x18 arch/arm/cpu/armv7/start.o
 .rel.text.net_init
                0x000000008785b8cc       0x20 arch/arm/cpu/armv7/start.o
 .rel.text.net_start_again
                0x000000008785b8ec       0x78 arch/arm/cpu/armv7/start.o
 .rel.text.net_loop
                0x000000008785b964      0x180 arch/arm/cpu/armv7/start.o
 .rel.text.net_get_udp_handler
                0x000000008785bae4        0x0 arch/arm/cpu/armv7/start.o
 .rel.text.net_set_udp_handler
                0x000000008785bae4       0x10 arch/arm/cpu/armv7/start.o
 .rel.text.net_get_arp_handler
                0x000000008785baf4        0x8 arch/arm/cpu/armv7/start.o
 .rel.text.net_set_arp_handler
                0x000000008785bafc        0x0 arch/arm/cpu/armv7/start.o
 .rel.text.net_set_timeout_handler
                0x000000008785bafc       0x18 arch/arm/cpu/armv7/start.o
 .rel.text.net_process_received_packet
                0x000000008785bb14       0x38 arch/arm/cpu/armv7/start.o
 .rel.text.net_eth_hdr_size
                0x000000008785bb4c        0x8 arch/arm/cpu/armv7/start.o
 .rel.text.net_set_ether
                0x000000008785bb54       0x10 arch/arm/cpu/armv7/start.o
 .rel.text.net_update_ether
                0x000000008785bb64        0x8 arch/arm/cpu/armv7/start.o
 .rel.text.net_set_ip_header
                0x000000008785bb6c        0x8 arch/arm/cpu/armv7/start.o
 .rel.text.net_set_udp_header
                0x000000008785bb74        0x8 arch/arm/cpu/armv7/start.o
 .rel.text.net_send_udp_packet
                0x000000008785bb7c       0x40 arch/arm/cpu/armv7/start.o
 .rel.text.on_bootfile
                0x000000008785bbbc        0x8 arch/arm/cpu/armv7/start.o
 .rel.text.ip_to_string
                0x000000008785bbc4        0x8 arch/arm/cpu/armv7/start.o
 .rel.text.vlan_to_string
                0x000000008785bbcc        0x0 arch/arm/cpu/armv7/start.o
 .rel.text.on_nvlan
                0x000000008785bbcc        0x8 arch/arm/cpu/armv7/start.o
 .rel.text.on_vlan
                0x000000008785bbd4        0x8 arch/arm/cpu/armv7/start.o
 .rel.text.rpc_lookup_reply
                0x000000008785bbdc       0x18 arch/arm/cpu/armv7/start.o
 .rel.text.nfs_mount_reply
                0x000000008785bbf4       0x18 arch/arm/cpu/armv7/start.o
 .rel.text.nfs_umountall_reply
                0x000000008785bc0c       0x18 arch/arm/cpu/armv7/start.o
 .rel.text.nfs_lookup_reply
                0x000000008785bc24       0x10 arch/arm/cpu/armv7/start.o
 .rel.text.nfs_readlink_reply
                0x000000008785bc34       0x18 arch/arm/cpu/armv7/start.o
 .rel.text.rpc_add_credentials
                0x000000008785bc4c        0x8 arch/arm/cpu/armv7/start.o
 .rel.text.rpc_req
                0x000000008785bc54       0x38 arch/arm/cpu/armv7/start.o
 .rel.text.nfs_umountall_req
                0x000000008785bc8c       0x10 arch/arm/cpu/armv7/start.o
 .rel.text.nfs_lookup_req
                0x000000008785bc9c        0x8 arch/arm/cpu/armv7/start.o
 .rel.text.nfs_read_req
                0x000000008785bca4        0x8 arch/arm/cpu/armv7/start.o
 .rel.text.nfs_readlink_req
                0x000000008785bcac        0x8 arch/arm/cpu/armv7/start.o
 .rel.text.nfs_read_reply.isra.0
                0x000000008785bcb4       0x28 arch/arm/cpu/armv7/start.o
 .rel.text.nfs_send
                0x000000008785bcdc       0x60 arch/arm/cpu/armv7/start.o
 .rel.text.nfs_handler
                0x000000008785bd3c       0xa8 arch/arm/cpu/armv7/start.o
 .rel.text.nfs_timeout_handler
                0x000000008785bde4       0x20 arch/arm/cpu/armv7/start.o
 .rel.text.nfs_start
                0x000000008785be04       0xe0 arch/arm/cpu/armv7/start.o
 .rel.text.ping_timeout_handler
                0x000000008785bee4        0x8 arch/arm/cpu/armv7/start.o
 .rel.text.ping_start
                0x000000008785beec       0x58 arch/arm/cpu/armv7/start.o
 .rel.text.ping_receive
                0x000000008785bf44       0x18 arch/arm/cpu/armv7/start.o
 .rel.text.tftp_send
                0x000000008785bf5c       0xb8 arch/arm/cpu/armv7/start.o
 .rel.text.tftp_handler
                0x000000008785c014       0xd0 arch/arm/cpu/armv7/start.o
 .rel.text.tftp_timeout_handler
                0x000000008785c0e4       0x40 arch/arm/cpu/armv7/start.o
 .rel.text.tftp_start
                0x000000008785c124      0x140 arch/arm/cpu/armv7/start.o
 .rel.u_boot_list_2_env_clbk_2_ethaddr
                0x000000008785c264       0x10 arch/arm/cpu/armv7/start.o
 .rel.u_boot_list_2_env_clbk_2_ipaddr
                0x000000008785c274       0x10 arch/arm/cpu/armv7/start.o
 .rel.u_boot_list_2_env_clbk_2_vlan
                0x000000008785c284       0x10 arch/arm/cpu/armv7/start.o
 .rel.u_boot_list_2_env_clbk_2_serverip
                0x000000008785c294       0x10 arch/arm/cpu/armv7/start.o
 .rel.u_boot_list_2_env_clbk_2_bootfile
                0x000000008785c2a4       0x10 arch/arm/cpu/armv7/start.o
 .rel.u_boot_list_2_env_clbk_2_netmask
                0x000000008785c2b4       0x10 arch/arm/cpu/armv7/start.o
 .rel.u_boot_list_2_env_clbk_2_gatewayip
                0x000000008785c2c4       0x10 arch/arm/cpu/armv7/start.o
 .rel.u_boot_list_2_env_clbk_2_nvlan
                0x000000008785c2d4       0x10 arch/arm/cpu/armv7/start.o
 .rel.text.do_dm
                0x000000008785c2e4        0x8 arch/arm/cpu/armv7/start.o
 .rel.u_boot_list_2_cmd_2_dm
                0x000000008785c2ec       0x20 arch/arm/cpu/armv7/start.o
 .rel.data.test_commands
                0x000000008785c30c       0x60 arch/arm/cpu/armv7/start.o
 .rel.text.raise
                0x000000008785c36c        0x8 arch/arm/cpu/armv7/start.o

.rel_dyn_end    0x000000008785c374        0x0
 *(.__rel_dyn_end)
 .__rel_dyn_end
                0x000000008785c374        0x0 arch/arm/lib/built-in.o

.end            0x000000008785c374        0x0
 *(.__end)
 .__end         0x000000008785c374        0x0 arch/arm/lib/built-in.o
                0x000000008785c374                _image_binary_end = .
                0x000000008785d000                . = ALIGN (0x1000)

.mmutable
 *(.mmutable)

.bss_start      0x00000000878536ac        0x0
 *(.__bss_start)
 .__bss_start   0x00000000878536ac        0x0 arch/arm/lib/built-in.o
                0x00000000878536ac                __bss_start
                0x00000000878536ac                __bss_base = .

.bss            0x00000000878536ac    0x4b0e8
 *(.bss*)
 .bss.modes     0x00000000878536ac        0x8 arch/arm/imx-common/built-in.o
 .bss.params    0x00000000878536b4        0x4 arch/arm/lib/built-in.o
 .bss.images    0x00000000878536b8      0x130 cmd/built-in.o
                0x00000000878536b8                images
 .bss.working_fdt
                0x00000000878537e8        0x4 cmd/built-in.o
                0x00000000878537e8                working_fdt
 .bss.data.8210
                0x00000000878537ec      0x400 cmd/built-in.o
 .bss.i2c_mm_last_addr
                0x0000000087853bec        0x4 cmd/built-in.o
 .bss.i2c_mm_last_chip
                0x0000000087853bf0        0x4 cmd/built-in.o
 .bss.i2c_dp_last_chip
                0x0000000087853bf4        0x4 cmd/built-in.o
 .bss.i2c_mm_last_alen
                0x0000000087853bf8        0x4 cmd/built-in.o
 .bss.i2c_dp_last_addr
                0x0000000087853bfc        0x4 cmd/built-in.o
 .bss.i2c_dp_last_alen
                0x0000000087853c00        0x4 cmd/built-in.o
 .bss.send_parms
                0x0000000087853c04       0x14 cmd/built-in.o
 .bss.os_data_addr_saved
                0x0000000087853c18        0x4 cmd/built-in.o
 .bss.his_pad_char
                0x0000000087853c1c        0x1 cmd/built-in.o
 .bss.a_b       0x0000000087853c1d       0x18 cmd/built-in.o
 *fill*         0x0000000087853c35        0x3 
 .bss.os_data_char
                0x0000000087853c38        0x4 cmd/built-in.o
 .bss.os_data_state
                0x0000000087853c3c        0x4 cmd/built-in.o
 .bss.k_data_escape
                0x0000000087853c40        0x4 cmd/built-in.o
 .bss.os_data_state_saved
                0x0000000087853c44        0x4 cmd/built-in.o
 .bss.os_data_addr
                0x0000000087853c48        0x4 cmd/built-in.o
 .bss.send_ptr  0x0000000087853c4c        0x4 cmd/built-in.o
 .bss.his_pad_count
                0x0000000087853c50        0x4 cmd/built-in.o
 .bss.bin_start_address
                0x0000000087853c54        0x4 cmd/built-in.o
 .bss.his_quote
                0x0000000087853c58        0x1 cmd/built-in.o
 *fill*         0x0000000087853c59        0x3 
 .bss.os_data_init
                0x0000000087853c5c        0x4 cmd/built-in.o
 .bss.his_eol   0x0000000087853c60        0x1 cmd/built-in.o
 *fill*         0x0000000087853c61        0x3 
 .bss.k_data_escape_saved
                0x0000000087853c64        0x4 cmd/built-in.o
 .bss.dp_last_addr
                0x0000000087853c68        0x4 cmd/built-in.o
 .bss.base_address
                0x0000000087853c6c        0x4 cmd/built-in.o
 .bss.mm_last_size
                0x0000000087853c70        0x4 cmd/built-in.o
 .bss.mm_last_addr
                0x0000000087853c74        0x4 cmd/built-in.o
 .bss.dp_last_size
                0x0000000087853c78        0x4 cmd/built-in.o
 .bss.last_data
                0x0000000087853c7c        0x8 cmd/built-in.o
 .bss.last_reg_hi
                0x0000000087853c84        0x8 cmd/built-in.o
 .bss.last_mask
                0x0000000087853c8c        0x4 cmd/built-in.o
 .bss.last_addr_lo
                0x0000000087853c90        0x8 cmd/built-in.o
 .bss.last_op   0x0000000087853c98        0x4 cmd/built-in.o
 .bss.last_addr_hi
                0x0000000087853c9c        0x8 cmd/built-in.o
 .bss.last_reg_lo
                0x0000000087853ca4        0x8 cmd/built-in.o
 .bss.last_devad_hi
                0x0000000087853cac        0x4 cmd/built-in.o
 .bss.last_devad_lo
                0x0000000087853cb0        0x4 cmd/built-in.o
 .bss.flash     0x0000000087853cb4        0x4 cmd/built-in.o
 .bss.flag_repeat
                0x0000000087853cb8        0x4 common/built-in.o
 .bss.the_command.7623
                0x0000000087853cbc      0x201 common/built-in.o
 .bss.buf.7823  0x0000000087853ebd       0x28 common/built-in.o
 *fill*         0x0000000087853ee5        0x3 
 .bss.ifs       0x0000000087853ee8        0x4 common/built-in.o
 .bss.last_return_code
                0x0000000087853eec        0x4 common/built-in.o
 .bss.map       0x0000000087853ef0      0x100 common/built-in.o
 .bss.do_repeat
                0x0000000087853ff0        0x4 common/built-in.o
 .bss.top_vars  0x0000000087853ff4        0x4 common/built-in.o
 .bss.stored_bootdelay
                0x0000000087853ff8        0x4 common/built-in.o
 .bss.monitor_flash_len
                0x0000000087853ffc        0x4 common/built-in.o
                0x0000000087853ffc                monitor_flash_len
 .bss.callback_list
                0x0000000087854000        0x4 common/built-in.o
 .bss.flags_list
                0x0000000087854004        0x4 common/built-in.o
 .bss.env_mmc_orig_hwpart
                0x0000000087854008        0x1 common/built-in.o
 *fill*         0x0000000087854009        0x3 
 .bss.current_mii
                0x000000008785400c        0x4 common/built-in.o
 .bss.mii_devs  0x0000000087854010        0x8 common/built-in.o
 .bss.dev_index
                0x0000000087854018        0x4 common/built-in.o
 *fill*         0x000000008785401c       0x24 
 .bss.usb_dev   0x0000000087854040    0x13000 common/built-in.o
 .bss.asynch_allowed
                0x0000000087867040        0x4 common/built-in.o
 .bss.usb_started
                0x0000000087867044        0x1 common/built-in.o
                0x0000000087867044                usb_started
 *fill*         0x0000000087867045        0x3 
 .bss.usb_hub_index
                0x0000000087867048        0x4 common/built-in.o
 .bss.hub_dev   0x000000008786704c      0x100 common/built-in.o
 .bss.usb_stor  0x000000008786714c      0x16c common/built-in.o
 .bss.usb_dev_desc
                0x00000000878672b8      0x32c common/built-in.o
 .bss.usb_max_devs
                0x00000000878675e4        0x4 common/built-in.o
 .bss.CBWTag    0x00000000878675e8        0x4 common/built-in.o
 *fill*         0x00000000878675ec       0x14 
 .bss.usb_ccb   0x0000000087867600       0xc0 common/built-in.o
 .bss.ctrlc_was_pressed
                0x00000000878676c0        0x4 common/built-in.o
 .bss.ctrlc_disabled
                0x00000000878676c4        0x4 common/built-in.o
 .bss.max_total_mem
                0x00000000878676c8        0x4 common/built-in.o
 .bss.mem_malloc_brk
                0x00000000878676cc        0x4 common/built-in.o
                0x00000000878676cc                mem_malloc_brk
 .bss.max_sbrked_mem
                0x00000000878676d0        0x4 common/built-in.o
 .bss.current_mallinfo
                0x00000000878676d4       0x28 common/built-in.o
 .bss.mem_malloc_end
                0x00000000878676fc        0x4 common/built-in.o
                0x00000000878676fc                mem_malloc_end
 .bss.top_pad   0x0000000087867700        0x4 common/built-in.o
 .bss.mem_malloc_start
                0x0000000087867704        0x4 common/built-in.o
                0x0000000087867704                mem_malloc_start
 .bss.stdio_devices
                0x0000000087867708        0xc common/built-in.o
                0x0000000087867708                stdio_devices
 .bss.devs      0x0000000087867714       0x4c common/built-in.o
 .bss.hist_list
                0x0000000087867760       0x50 common/built-in.o
 .bss.hist_lines
                0x00000000878677b0     0x2814 common/built-in.o
 .bss.hist_max  0x0000000087869fc4        0x4 common/built-in.o
 .bss.initted.7471
                0x0000000087869fc8        0x4 common/built-in.o
 .bss.hist_add_idx
                0x0000000087869fcc        0x4 common/built-in.o
 .bss.hist_num  0x0000000087869fd0        0x4 common/built-in.o
 .bss.console_buffer
                0x0000000087869fd4      0x201 common/built-in.o
                0x0000000087869fd4                console_buffer
 .bss.tmp_buf.7380
                0x000000008786a1d5      0x200 common/built-in.o
 .bss.tmp_buf   0x000000008786a3d5      0x200 common/built-in.o
 *fill*         0x000000008786a5d5        0x3 
 .bss.xyz       0x000000008786a5d8      0x434 common/built-in.o
 .bss.video_console_address
                0x000000008786aa0c        0x4 drivers/built-in.o
 .bss.bgx       0x000000008786aa10        0x4 drivers/built-in.o
 .bss.eorx      0x000000008786aa14        0x4 drivers/built-in.o
 .bss.cursor_state
                0x000000008786aa18        0x4 drivers/built-in.o
 .bss.old_row   0x000000008786aa1c        0x4 drivers/built-in.o
 .bss.console_row
                0x000000008786aa20        0x4 drivers/built-in.o
 .bss.fgx       0x000000008786aa24        0x4 drivers/built-in.o
 .bss.pGD       0x000000008786aa28        0x4 drivers/built-in.o
 .bss.cfb_do_flush_cache
                0x000000008786aa2c        0x4 drivers/built-in.o
 .bss.video_fb_address
                0x000000008786aa30        0x4 drivers/built-in.o
 .bss.old_col   0x000000008786aa34        0x4 drivers/built-in.o
 .bss.console_col
                0x000000008786aa38        0x4 drivers/built-in.o
 .bss.fbmode    0x000000008786aa3c       0x38 drivers/built-in.o
 .bss.panel     0x000000008786aa74       0x90 drivers/built-in.o
 .bss.setup     0x000000008786ab04        0x4 drivers/built-in.o
 .bss.depth     0x000000008786ab08        0x4 drivers/built-in.o
 .bss.initialized.9602
                0x000000008786ab0c        0x4 drivers/mmc/built-in.o
 .bss.mmc_devices
                0x000000008786ab10        0x8 drivers/mmc/built-in.o
 .bss.lan8720_flag.9463
                0x000000008786ab18        0x4 drivers/net/phy/built-in.o
 .bss.serial_devices
                0x000000008786ab1c        0x4 drivers/serial/built-in.o
 .bss.serial_current
                0x000000008786ab20        0x4 drivers/serial/built-in.o
 .bss.addr.7981
                0x000000008786ab24        0x4 drivers/spi/built-in.o
 .bss.opcode.7980
                0x000000008786ab28        0x1 drivers/spi/built-in.o
 *fill*         0x000000008786ab29        0x3 
 .bss.usb_eth   0x000000008786ab2c      0x1a4 drivers/usb/eth/built-in.o
 .bss.usb_max_eth_dev
                0x000000008786acd0        0x4 drivers/usb/eth/built-in.o
 .bss.curr_eth_dev
                0x000000008786acd4        0x4 drivers/usb/eth/built-in.o
 *fill*         0x000000008786acd8       0x28 
 .bss.ehcic     0x000000008786ad00      0x280 drivers/usb/host/built-in.o
 .bss.fs_partition
                0x000000008786af80       0x50 fs/built-in.o
 .bss.fs_type   0x000000008786afd0        0x4 fs/built-in.o
 .bss.fs_dev_desc
                0x000000008786afd4        0x4 fs/built-in.o
 .bss.ext_fs    0x000000008786afd8       0x48 fs/built-in.o
                0x000000008786afd8                ext_fs
 .bss.ext4fs_indir3_block
                0x000000008786b020        0x4 fs/built-in.o
                0x000000008786b020                ext4fs_indir3_block
 .bss.ext4fs_root
                0x000000008786b024        0x4 fs/built-in.o
                0x000000008786b024                ext4fs_root
 .bss.ext4fs_indir3_size
                0x000000008786b028        0x4 fs/built-in.o
                0x000000008786b028                ext4fs_indir3_size
 .bss.ext4fs_indir1_block
                0x000000008786b02c        0x4 fs/built-in.o
                0x000000008786b02c                ext4fs_indir1_block
 .bss.ext4fs_indir2_size
                0x000000008786b030        0x4 fs/built-in.o
                0x000000008786b030                ext4fs_indir2_size
 .bss.ext4fs_indir2_block
                0x000000008786b034        0x4 fs/built-in.o
                0x000000008786b034                ext4fs_indir2_block
 .bss.ext4fs_indir1_size
                0x000000008786b038        0x4 fs/built-in.o
                0x000000008786b038                ext4fs_indir1_size
 .bss.symlinknest
                0x000000008786b03c        0x4 fs/built-in.o
 .bss.ext4fs_file
                0x000000008786b040        0x4 fs/built-in.o
                0x000000008786b040                ext4fs_file
 .bss.g_parent_inode
                0x000000008786b044        0x4 fs/built-in.o
                0x000000008786b044                g_parent_inode
 .bss.part_info
                0x000000008786b048        0x4 fs/built-in.o
 .bss.ext4fs_block_dev_desc
                0x000000008786b04c        0x4 fs/built-in.o
 .bss.part_offset
                0x000000008786b050        0x4 fs/built-in.o
                0x000000008786b050                part_offset
 .bss.journal_ptr
                0x000000008786b054      0x190 fs/built-in.o
                0x000000008786b054                journal_ptr
 .bss.revk_blk_list
                0x000000008786b1e4        0x4 fs/built-in.o
 .bss.gindex    0x000000008786b1e8        0x4 fs/built-in.o
                0x000000008786b1e8                gindex
 .bss.gd_index  0x000000008786b1ec        0x4 fs/built-in.o
                0x000000008786b1ec                gd_index
 .bss.dirty_block_ptr
                0x000000008786b1f0      0x190 fs/built-in.o
                0x000000008786b1f0                dirty_block_ptr
 .bss.prev_node
                0x000000008786b380        0x4 fs/built-in.o
 .bss.jrnl_blk_idx
                0x000000008786b384        0x4 fs/built-in.o
                0x000000008786b384                jrnl_blk_idx
 *fill*         0x000000008786b388       0x38 
 .bss.get_contents_vfatname_block
                0x000000008786b3c0    0x10000 fs/built-in.o
                0x000000008786b3c0                get_contents_vfatname_block
 .bss.do_fat_read_at_block
                0x000000008787b3c0    0x10000 fs/built-in.o
                0x000000008787b3c0                do_fat_read_at_block
 .bss.get_dentfromdir_block
                0x000000008788b3c0    0x10000 fs/built-in.o
                0x000000008788b3c0                get_dentfromdir_block
 .bss.empty_dentptr
                0x000000008789b3c0        0x4 fs/built-in.o
 .bss.cur_part_info
                0x000000008789b3c4       0x50 fs/built-in.o
 .bss.total_sector
                0x000000008789b414        0x4 fs/built-in.o
 .bss.dir_curclust
                0x000000008789b418        0x4 fs/built-in.o
 .bss.num_of_fats
                0x000000008789b41c        0x1 fs/built-in.o
 *fill*         0x000000008789b41d        0x3 
 .bss.cur_dev   0x000000008789b420        0x4 fs/built-in.o
 .bss.errno     0x000000008789b424        0x4 lib/built-in.o
                0x000000008789b424                errno
 .bss.___strtok
                0x000000008789b428        0x4 lib/built-in.o
                0x000000008789b428                ___strtok
 .bss.local.7561
                0x000000008789b42c       0x16 lib/built-in.o
 .bss.arp_tx_packet_buf
                0x000000008789b442      0x640 net/built-in.o
 *fill*         0x000000008789ba82        0x2 
 .bss.arp_wait_packet_ethaddr
                0x000000008789ba84        0x4 net/built-in.o
                0x000000008789ba84                arp_wait_packet_ethaddr
 .bss.arp_tx_packet
                0x000000008789ba88        0x4 net/built-in.o
 .bss.arp_wait_tx_packet_size
                0x000000008789ba8c        0x4 net/built-in.o
                0x000000008789ba8c                arp_wait_tx_packet_size
 .bss.arp_wait_try
                0x000000008789ba90        0x4 net/built-in.o
                0x000000008789ba90                arp_wait_try
 .bss.net_arp_wait_reply_ip
                0x000000008789ba94        0x4 net/built-in.o
 .bss.net_arp_wait_packet_ip
                0x000000008789ba98        0x4 net/built-in.o
                0x000000008789ba98                net_arp_wait_packet_ip
 .bss.arp_wait_timer_start
                0x000000008789ba9c        0x4 net/built-in.o
                0x000000008789ba9c                arp_wait_timer_start
 .bss.dhcp_state
                0x000000008789baa0        0x4 net/built-in.o
 .bss.net_hostname
                0x000000008789baa4       0x20 net/built-in.o
                0x000000008789baa4                net_hostname
 .bss.bootp_timeout
                0x000000008789bac4        0x4 net/built-in.o
                0x000000008789bac4                bootp_timeout
 .bss.dhcp_server_ip
                0x000000008789bac8        0x4 net/built-in.o
 .bss.dhcp_option_overload
                0x000000008789bacc        0x1 net/built-in.o
 *fill*         0x000000008789bacd        0x3 
 .bss.time_taken_max
                0x000000008789bad0        0x4 net/built-in.o
 .bss.net_root_path
                0x000000008789bad4       0x40 net/built-in.o
                0x000000008789bad4                net_root_path
 .bss.bootp_ids
                0x000000008789bb14       0x10 net/built-in.o
                0x000000008789bb14                bootp_ids
 .bss.bootp_num_ids
                0x000000008789bb24        0x4 net/built-in.o
                0x000000008789bb24                bootp_num_ids
 .bss.bootp_try
                0x000000008789bb28        0x4 net/built-in.o
                0x000000008789bb28                bootp_try
 .bss.bootp_start
                0x000000008789bb2c        0x4 net/built-in.o
                0x000000008789bb2c                bootp_start
 .bss.dhcp_leasetime
                0x000000008789bb30        0x4 net/built-in.o
 .bss.net_nis_domain
                0x000000008789bb34       0x20 net/built-in.o
                0x000000008789bb34                net_nis_domain
 .bss.eth_current
                0x000000008789bb54        0x4 net/built-in.o
                0x000000008789bb54                eth_current
 .bss.index.8117
                0x000000008789bb58        0x4 net/built-in.o
 .bss.eth_devices
                0x000000008789bb5c        0x4 net/built-in.o
 .bss.act.9475  0x000000008789bb60        0x4 net/built-in.o
 .bss.first_failed.9470
                0x000000008789bb64        0x4 net/built-in.o
 .bss.env_changed_id.9476
                0x000000008789bb68        0x4 net/built-in.o
 .bss.net_ethaddr
                0x000000008789bb6c        0x6 net/built-in.o
                0x000000008789bb6c                net_ethaddr
 *fill*         0x000000008789bb72        0x2 
 .bss.net_dns_server
                0x000000008789bb74        0x4 net/built-in.o
                0x000000008789bb74                net_dns_server
 .bss.net_state
                0x000000008789bb78        0x4 net/built-in.o
                0x000000008789bb78                net_state
 .bss.net_server_ip
                0x000000008789bb7c        0x4 net/built-in.o
                0x000000008789bb7c                net_server_ip
 .bss.net_rx_packet
                0x000000008789bb80        0x4 net/built-in.o
                0x000000008789bb80                net_rx_packet
 .bss.net_boot_file_expected_size_in_blocks
                0x000000008789bb84        0x4 net/built-in.o
                0x000000008789bb84                net_boot_file_expected_size_in_blocks
 .bss.net_rx_packets
                0x000000008789bb88       0x10 net/built-in.o
                0x000000008789bb88                net_rx_packets
 .bss.time_start
                0x000000008789bb98        0x8 net/built-in.o
 .bss.net_gateway
                0x000000008789bba0        0x4 net/built-in.o
                0x000000008789bba0                net_gateway
 .bss.net_boot_file_name
                0x000000008789bba4      0x400 net/built-in.o
                0x000000008789bba4                net_boot_file_name
 .bss.udp_packet_handler
                0x000000008789bfa4        0x4 net/built-in.o
 .bss.net_dev_exists
                0x000000008789bfa8        0x4 net/built-in.o
 .bss.net_rx_packet_len
                0x000000008789bfac        0x4 net/built-in.o
                0x000000008789bfac                net_rx_packet_len
 .bss.net_server_ethaddr
                0x000000008789bfb0        0x6 net/built-in.o
                0x000000008789bfb0                net_server_ethaddr
 .bss.net_null_ethaddr
                0x000000008789bfb6        0x6 net/built-in.o
                0x000000008789bfb6                net_null_ethaddr
 .bss.net_ip_id
                0x000000008789bfbc        0x4 net/built-in.o
 .bss.net_restart_wrap
                0x000000008789bfc0        0x4 net/built-in.o
                0x000000008789bfc0                net_restart_wrap
 .bss.net_try_count
                0x000000008789bfc4        0x4 net/built-in.o
 .bss.net_restarted
                0x000000008789bfc8        0x4 net/built-in.o
 .bss.time_delta
                0x000000008789bfcc        0x4 net/built-in.o
 .bss.arp_packet_handler
                0x000000008789bfd0        0x4 net/built-in.o
 .bss.net_netmask
                0x000000008789bfd4        0x4 net/built-in.o
                0x000000008789bfd4                net_netmask
 .bss.net_pkt_buf
                0x000000008789bfd8     0x1e40 net/built-in.o
 .bss.net_ip    0x000000008789de18        0x4 net/built-in.o
                0x000000008789de18                net_ip
 .bss.net_tx_packet
                0x000000008789de1c        0x4 net/built-in.o
                0x000000008789de1c                net_tx_packet
 .bss.time_handler
                0x000000008789de20        0x4 net/built-in.o
 .bss.net_boot_file_size
                0x000000008789de24        0x4 net/built-in.o
                0x000000008789de24                net_boot_file_size
 .bss.nfs_server_mount_port
                0x000000008789de28        0x4 net/built-in.o
 .bss.nfs_server_ip
                0x000000008789de2c        0x4 net/built-in.o
 .bss.nfs_filename
                0x000000008789de30        0x4 net/built-in.o
 .bss.nfs_state
                0x000000008789de34        0x4 net/built-in.o
 .bss.dirfh     0x000000008789de38       0x20 net/built-in.o
 .bss.nfs_len   0x000000008789de58        0x4 net/built-in.o
 .bss.rpc_id    0x000000008789de5c        0x4 net/built-in.o
 .bss.fs_mounted
                0x000000008789de60        0x4 net/built-in.o
 .bss.default_filename
                0x000000008789de64       0x4d net/built-in.o
 *fill*         0x000000008789deb1        0x3 
 .bss.nfs_server_port
                0x000000008789deb4        0x4 net/built-in.o
 .bss.nfs_download_state
                0x000000008789deb8        0x4 net/built-in.o
 .bss.nfs_path  0x000000008789debc        0x4 net/built-in.o
 .bss.filefh    0x000000008789dec0       0x20 net/built-in.o
 .bss.nfs_path_buff
                0x000000008789dee0      0x800 net/built-in.o
 .bss.nfs_timeout_count
                0x000000008789e6e0        0x4 net/built-in.o
 .bss.nfs_our_port
                0x000000008789e6e4        0x4 net/built-in.o
 .bss.net_ping_ip
                0x000000008789e6e8        0x4 net/built-in.o
                0x000000008789e6e8                net_ping_ip
 .bss.ping_seq_number
                0x000000008789e6ec        0x2 net/built-in.o
 *fill*         0x000000008789e6ee        0x2 
 .bss.tftp_prev_block
                0x000000008789e6f0        0x4 net/built-in.o
 .bss.timeout_count
                0x000000008789e6f4        0x4 net/built-in.o
 .bss.tftp_block_wrap
                0x000000008789e6f8        0x4 net/built-in.o
 .bss.tftp_remote_port
                0x000000008789e6fc        0x4 net/built-in.o
 .bss.tftp_cur_block
                0x000000008789e700        0x4 net/built-in.o
 .bss.tftp_remote_ip
                0x000000008789e704        0x4 net/built-in.o
 .bss.tftp_our_port
                0x000000008789e708        0x4 net/built-in.o
 .bss.tftp_state
                0x000000008789e70c        0x4 net/built-in.o
 .bss.tftp_filename
                0x000000008789e710       0x80 net/built-in.o
 .bss.tftp_block_wrap_offset
                0x000000008789e790        0x4 net/built-in.o
                0x000000008789e794                . = ALIGN (0x4)
                0x000000008789e794                __bss_limit = .

.bss_end        0x000000008789e794        0x0
 *(.__bss_end)
 .__bss_end     0x000000008789e794        0x0 arch/arm/lib/built-in.o
                0x000000008789e794                __bss_end

.dynsym         0x000000008785c374       0x60
 *(.dynsym)
 .dynsym        0x000000008785c374       0x60 arch/arm/cpu/armv7/start.o

.dynbss         0x000000008785c3d4        0x0
 *(.dynbss)
 .dynbss        0x000000008785c3d4        0x0 arch/arm/cpu/armv7/start.o

.dynstr         0x000000008785c3d4       0x2a
 *(.dynstr*)
 .dynstr        0x000000008785c3d4       0x2a arch/arm/cpu/armv7/start.o

.dynamic        0x000000008785c400       0x88
 *(.dynamic*)
 .dynamic       0x000000008785c400       0x88 arch/arm/cpu/armv7/start.o
                0x000000008785c400                _DYNAMIC

.plt            0x000000008785c488        0x0
 *(.plt*)
 .plt           0x000000008785c488        0x0 arch/arm/cpu/armv7/start.o

.interp         0x000000008785c488       0x11
 *(.interp*)
 .interp        0x000000008785c488       0x11 arch/arm/cpu/armv7/start.o

.gnu.hash
 *(.gnu.hash)

.gnu            0x000000008785c49c        0x0
 *(.gnu*)
 .gnu.version_d
                0x000000008785c49c        0x0 arch/arm/cpu/armv7/start.o
 .gnu.version   0x000000008785c49c        0x0 arch/arm/cpu/armv7/start.o
 .gnu.version_r
                0x000000008785c49c        0x0 arch/arm/cpu/armv7/start.o

.ARM.exidx
 *(.ARM.exidx*)

.gnu.linkonce.armexidx
 *(.gnu.linkonce.armexidx.*)
LOAD arch/arm/cpu/armv7/start.o
START GROUP
LOAD arch/arm/cpu/built-in.o
LOAD arch/arm/cpu/armv7/built-in.o
LOAD arch/arm/imx-common/built-in.o
LOAD arch/arm/lib/built-in.o
LOAD board/freescale/common/built-in.o
LOAD board/freescale/mx6ullevk/built-in.o
LOAD cmd/built-in.o
LOAD common/built-in.o
LOAD disk/built-in.o
LOAD drivers/built-in.o
LOAD drivers/dma/built-in.o
LOAD drivers/gpio/built-in.o
LOAD drivers/i2c/built-in.o
LOAD drivers/mmc/built-in.o
LOAD drivers/mtd/built-in.o
LOAD drivers/mtd/onenand/built-in.o
LOAD drivers/mtd/spi/built-in.o
LOAD drivers/net/built-in.o
LOAD drivers/net/phy/built-in.o
LOAD drivers/pci/built-in.o
LOAD drivers/power/built-in.o
LOAD drivers/power/battery/built-in.o
LOAD drivers/power/fuel_gauge/built-in.o
LOAD drivers/power/mfd/built-in.o
LOAD drivers/power/pmic/built-in.o
LOAD drivers/power/regulator/built-in.o
LOAD drivers/serial/built-in.o
LOAD drivers/spi/built-in.o
LOAD drivers/usb/dwc3/built-in.o
LOAD drivers/usb/emul/built-in.o
LOAD drivers/usb/eth/built-in.o
LOAD drivers/usb/gadget/built-in.o
LOAD drivers/usb/gadget/udc/built-in.o
LOAD drivers/usb/host/built-in.o
LOAD drivers/usb/musb-new/built-in.o
LOAD drivers/usb/musb/built-in.o
LOAD drivers/usb/phy/built-in.o
LOAD drivers/usb/ulpi/built-in.o
LOAD fs/built-in.o
LOAD lib/built-in.o
LOAD net/built-in.o
LOAD test/built-in.o
LOAD test/dm/built-in.o
END GROUP
LOAD arch/arm/lib/eabi_compat.o
LOAD /usr/lib/gcc-cross/arm-linux-gnueabihf/5/libgcc.a
OUTPUT(u-boot elf32-littlearm)

.ARM.attributes
                0x0000000000000000       0x2b
 .ARM.attributes
                0x0000000000000000       0x1f arch/arm/cpu/armv7/start.o
 .ARM.attributes
                0x000000000000001f       0x2d arch/arm/cpu/armv7/built-in.o
 .ARM.attributes
                0x000000000000004c       0x2d arch/arm/imx-common/built-in.o
 .ARM.attributes
                0x0000000000000079       0x2b arch/arm/lib/built-in.o
 .ARM.attributes
                0x00000000000000a4       0x2d board/freescale/common/built-in.o
 .ARM.attributes
                0x00000000000000d1       0x2d board/freescale/mx6ullevk/built-in.o
 .ARM.attributes
                0x00000000000000fe       0x2d cmd/built-in.o
 .ARM.attributes
                0x000000000000012b       0x2d common/built-in.o
 .ARM.attributes
                0x0000000000000158       0x2d disk/built-in.o
 .ARM.attributes
                0x0000000000000185       0x2d drivers/built-in.o
 .ARM.attributes
                0x00000000000001b2       0x2d drivers/gpio/built-in.o
 .ARM.attributes
                0x00000000000001df       0x2d drivers/i2c/built-in.o
 .ARM.attributes
                0x000000000000020c       0x2d drivers/mmc/built-in.o
 .ARM.attributes
                0x0000000000000239       0x2d drivers/mtd/built-in.o
 .ARM.attributes
                0x0000000000000266       0x2d drivers/mtd/spi/built-in.o
 .ARM.attributes
                0x0000000000000293       0x2d drivers/net/built-in.o
 .ARM.attributes
                0x00000000000002c0       0x2d drivers/net/phy/built-in.o
 .ARM.attributes
                0x00000000000002ed       0x2d drivers/power/built-in.o
 .ARM.attributes
                0x000000000000031a       0x2d drivers/serial/built-in.o
 .ARM.attributes
                0x0000000000000347       0x2d drivers/spi/built-in.o
 .ARM.attributes
                0x0000000000000374       0x2d drivers/usb/eth/built-in.o
 .ARM.attributes
                0x00000000000003a1       0x2d drivers/usb/host/built-in.o
 .ARM.attributes
                0x00000000000003ce       0x2d fs/built-in.o
 .ARM.attributes
                0x00000000000003fb       0x2d lib/built-in.o
 .ARM.attributes
                0x0000000000000428       0x2d net/built-in.o
 .ARM.attributes
                0x0000000000000455       0x2d test/dm/built-in.o
 .ARM.attributes
                0x0000000000000482       0x2d arch/arm/lib/eabi_compat.o
 .ARM.attributes
                0x00000000000004af       0x21 /usr/lib/gcc-cross/arm-linux-gnueabihf/5/libgcc.a(_udivsi3.o)
 .ARM.attributes
                0x00000000000004d0       0x21 /usr/lib/gcc-cross/arm-linux-gnueabihf/5/libgcc.a(_divsi3.o)
 .ARM.attributes
                0x00000000000004f1       0x21 /usr/lib/gcc-cross/arm-linux-gnueabihf/5/libgcc.a(_lshrdi3.o)
 .ARM.attributes
                0x0000000000000512       0x21 /usr/lib/gcc-cross/arm-linux-gnueabihf/5/libgcc.a(_ashldi3.o)
 .ARM.attributes
                0x0000000000000533       0x21 /usr/lib/gcc-cross/arm-linux-gnueabihf/5/libgcc.a(_dvmd_lnx.o)

.comment        0x0000000000000000       0x3b
 .comment       0x0000000000000000       0x3b arch/arm/cpu/armv7/built-in.o
                                        0x168 (size before relaxing)
 .comment       0x000000000000003b      0x258 arch/arm/imx-common/built-in.o
 .comment       0x000000000000003b      0x1e0 arch/arm/lib/built-in.o
 .comment       0x000000000000003b       0x3c board/freescale/common/built-in.o
 .comment       0x000000000000003b       0x3c board/freescale/mx6ullevk/built-in.o
 .comment       0x000000000000003b      0x8ac cmd/built-in.o
 .comment       0x000000000000003b      0x8ac common/built-in.o
 .comment       0x000000000000003b       0x78 disk/built-in.o
 .comment       0x000000000000003b      0x474 drivers/built-in.o
 .comment       0x000000000000003b       0x3c drivers/gpio/built-in.o
 .comment       0x000000000000003b       0x78 drivers/i2c/built-in.o
 .comment       0x000000000000003b       0xb4 drivers/mmc/built-in.o
 .comment       0x000000000000003b       0x78 drivers/mtd/built-in.o
 .comment       0x000000000000003b       0xf0 drivers/mtd/spi/built-in.o
 .comment       0x000000000000003b       0x3c drivers/net/built-in.o
 .comment       0x000000000000003b       0x78 drivers/net/phy/built-in.o
 .comment       0x000000000000003b       0x78 drivers/power/built-in.o
 .comment       0x000000000000003b       0x78 drivers/serial/built-in.o
 .comment       0x000000000000003b       0x78 drivers/spi/built-in.o
 .comment       0x000000000000003b       0x78 drivers/usb/eth/built-in.o
 .comment       0x000000000000003b       0x78 drivers/usb/host/built-in.o
 .comment       0x000000000000003b      0x21c fs/built-in.o
 .comment       0x000000000000003b      0x8e8 lib/built-in.o
 .comment       0x000000000000003b      0x21c net/built-in.o
 .comment       0x000000000000003b       0x3c test/dm/built-in.o
 .comment       0x000000000000003b       0x3c arch/arm/lib/eabi_compat.o

.note.GNU-stack
                0x0000000000000000        0x0
 .note.GNU-stack
                0x0000000000000000        0x0 arch/arm/cpu/armv7/built-in.o
 .note.GNU-stack
                0x0000000000000000        0x0 arch/arm/imx-common/built-in.o
 .note.GNU-stack
                0x0000000000000000        0x0 arch/arm/lib/built-in.o
 .note.GNU-stack
                0x0000000000000000        0x0 board/freescale/common/built-in.o
 .note.GNU-stack
                0x0000000000000000        0x0 board/freescale/mx6ullevk/built-in.o
 .note.GNU-stack
                0x0000000000000000        0x0 cmd/built-in.o
 .note.GNU-stack
                0x0000000000000000        0x0 common/built-in.o
 .note.GNU-stack
                0x0000000000000000        0x0 disk/built-in.o
 .note.GNU-stack
                0x0000000000000000        0x0 drivers/built-in.o
 .note.GNU-stack
                0x0000000000000000        0x0 drivers/gpio/built-in.o
 .note.GNU-stack
                0x0000000000000000        0x0 drivers/i2c/built-in.o
 .note.GNU-stack
                0x0000000000000000        0x0 drivers/mmc/built-in.o
 .note.GNU-stack
                0x0000000000000000        0x0 drivers/mtd/built-in.o
 .note.GNU-stack
                0x0000000000000000        0x0 drivers/mtd/spi/built-in.o
 .note.GNU-stack
                0x0000000000000000        0x0 drivers/net/built-in.o
 .note.GNU-stack
                0x0000000000000000        0x0 drivers/net/phy/built-in.o
 .note.GNU-stack
                0x0000000000000000        0x0 drivers/power/built-in.o
 .note.GNU-stack
                0x0000000000000000        0x0 drivers/serial/built-in.o
 .note.GNU-stack
                0x0000000000000000        0x0 drivers/spi/built-in.o
 .note.GNU-stack
                0x0000000000000000        0x0 drivers/usb/eth/built-in.o
 .note.GNU-stack
                0x0000000000000000        0x0 drivers/usb/host/built-in.o
 .note.GNU-stack
                0x0000000000000000        0x0 fs/built-in.o
 .note.GNU-stack
                0x0000000000000000        0x0 lib/built-in.o
 .note.GNU-stack
                0x0000000000000000        0x0 net/built-in.o
 .note.GNU-stack
                0x0000000000000000        0x0 test/dm/built-in.o
 .note.GNU-stack
                0x0000000000000000        0x0 arch/arm/lib/eabi_compat.o
 .note.GNU-stack
                0x0000000000000000        0x0 /usr/lib/gcc-cross/arm-linux-gnueabihf/5/libgcc.a(_udivsi3.o)
 .note.GNU-stack
                0x0000000000000000        0x0 /usr/lib/gcc-cross/arm-linux-gnueabihf/5/libgcc.a(_divsi3.o)
 .note.GNU-stack
                0x0000000000000000        0x0 /usr/lib/gcc-cross/arm-linux-gnueabihf/5/libgcc.a(_lshrdi3.o)
 .note.GNU-stack
                0x0000000000000000        0x0 /usr/lib/gcc-cross/arm-linux-gnueabihf/5/libgcc.a(_ashldi3.o)
 .note.GNU-stack
                0x0000000000000000        0x0 /usr/lib/gcc-cross/arm-linux-gnueabihf/5/libgcc.a(_dvmd_lnx.o)

.debug_line     0x0000000000000000    0x206f1
 .debug_line    0x0000000000000000       0x87 arch/arm/cpu/armv7/start.o
 .debug_line    0x0000000000000087     0x11eb arch/arm/cpu/armv7/built-in.o
 .debug_line    0x0000000000001272      0xf1d arch/arm/imx-common/built-in.o
 .debug_line    0x000000000000218f      0xcd8 arch/arm/lib/built-in.o
 .debug_line    0x0000000000002e67      0x12e board/freescale/common/built-in.o
 .debug_line    0x0000000000002f95      0x497 board/freescale/mx6ullevk/built-in.o
 .debug_line    0x000000000000342c     0x4b46 cmd/built-in.o
 .debug_line    0x0000000000007f72     0x6e52 common/built-in.o
 .debug_line    0x000000000000edc4      0x55f disk/built-in.o
 .debug_line    0x000000000000f323     0x2bbf drivers/built-in.o
 .debug_line    0x0000000000011ee2      0x17b drivers/gpio/built-in.o
 .debug_line    0x000000000001205d      0x5f3 drivers/i2c/built-in.o
 .debug_line    0x0000000000012650      0xf58 drivers/mmc/built-in.o
 .debug_line    0x00000000000135a8      0x6bd drivers/mtd/built-in.o
 .debug_line    0x0000000000013c65      0x8ba drivers/mtd/spi/built-in.o
 .debug_line    0x000000000001451f      0x559 drivers/net/built-in.o
 .debug_line    0x0000000000014a78      0x78c drivers/net/phy/built-in.o
 .debug_line    0x0000000000015204      0x37c drivers/power/built-in.o
 .debug_line    0x0000000000015580      0x523 drivers/serial/built-in.o
 .debug_line    0x0000000000015aa3      0x3cc drivers/spi/built-in.o
 .debug_line    0x0000000000015e6f      0x562 drivers/usb/eth/built-in.o
 .debug_line    0x00000000000163d1      0x9a0 drivers/usb/host/built-in.o
 .debug_line    0x0000000000016d71     0x2f45 fs/built-in.o
 .debug_line    0x0000000000019cb6     0x4b5c lib/built-in.o
 .debug_line    0x000000000001e812     0x1cb6 net/built-in.o
 .debug_line    0x00000000000204c8      0x116 test/dm/built-in.o
 .debug_line    0x00000000000205de      0x113 arch/arm/lib/eabi_compat.o

.debug_info     0x0000000000000000    0xcb1ef
 .debug_info    0x0000000000000000       0x60 arch/arm/cpu/armv7/start.o
 .debug_info    0x0000000000000060     0x848f arch/arm/cpu/armv7/built-in.o
 .debug_info    0x00000000000084ef     0x5a1c arch/arm/imx-common/built-in.o
 .debug_info    0x000000000000df0b     0x4730 arch/arm/lib/built-in.o
 .debug_info    0x000000000001263b      0x52e board/freescale/common/built-in.o
 .debug_info    0x0000000000012b69     0x5448 board/freescale/mx6ullevk/built-in.o
 .debug_info    0x0000000000017fb1    0x20bc0 cmd/built-in.o
 .debug_info    0x0000000000038b71    0x2b42c common/built-in.o
 .debug_info    0x0000000000063f9d     0x20b5 disk/built-in.o
 .debug_info    0x0000000000066052    0x1202c drivers/built-in.o
 .debug_info    0x000000000007807e      0x70a drivers/gpio/built-in.o
 .debug_info    0x0000000000078788     0x315b drivers/i2c/built-in.o
 .debug_info    0x000000000007b8e3     0x56a3 drivers/mmc/built-in.o
 .debug_info    0x0000000000080f86     0x2076 drivers/mtd/built-in.o
 .debug_info    0x0000000000082ffc     0x3a30 drivers/mtd/spi/built-in.o
 .debug_info    0x0000000000086a2c     0x2fd2 drivers/net/built-in.o
 .debug_info    0x00000000000899fe     0x31c3 drivers/net/phy/built-in.o
 .debug_info    0x000000000008cbc1     0x18fc drivers/power/built-in.o
 .debug_info    0x000000000008e4bd     0x1c75 drivers/serial/built-in.o
 .debug_info    0x0000000000090132     0x1d3b drivers/spi/built-in.o
 .debug_info    0x0000000000091e6d     0x2af6 drivers/usb/eth/built-in.o
 .debug_info    0x0000000000094963     0x4691 drivers/usb/host/built-in.o
 .debug_info    0x0000000000098ff4    0x11fbc fs/built-in.o
 .debug_info    0x00000000000aafb0    0x148a3 lib/built-in.o
 .debug_info    0x00000000000bf853     0xae9a net/built-in.o
 .debug_info    0x00000000000ca6ed      0x671 test/dm/built-in.o
 .debug_info    0x00000000000cad5e      0x491 arch/arm/lib/eabi_compat.o

.debug_abbrev   0x0000000000000000    0x224ff
 .debug_abbrev  0x0000000000000000       0x14 arch/arm/cpu/armv7/start.o
 .debug_abbrev  0x0000000000000014     0x1128 arch/arm/cpu/armv7/built-in.o
 .debug_abbrev  0x000000000000113c     0x14fd arch/arm/imx-common/built-in.o
 .debug_abbrev  0x0000000000002639      0xff3 arch/arm/lib/built-in.o
 .debug_abbrev  0x000000000000362c      0x1ee board/freescale/common/built-in.o
 .debug_abbrev  0x000000000000381a      0x4cc board/freescale/mx6ullevk/built-in.o
 .debug_abbrev  0x0000000000003ce6     0x5db2 cmd/built-in.o
 .debug_abbrev  0x0000000000009a98     0x7186 common/built-in.o
 .debug_abbrev  0x0000000000010c1e      0x6d3 disk/built-in.o
 .debug_abbrev  0x00000000000112f1     0x3096 drivers/built-in.o
 .debug_abbrev  0x0000000000014387      0x21a drivers/gpio/built-in.o
 .debug_abbrev  0x00000000000145a1      0x85b drivers/i2c/built-in.o
 .debug_abbrev  0x0000000000014dfc      0xcef drivers/mmc/built-in.o
 .debug_abbrev  0x0000000000015aeb      0x5eb drivers/mtd/built-in.o
 .debug_abbrev  0x00000000000160d6      0xa4b drivers/mtd/spi/built-in.o
 .debug_abbrev  0x0000000000016b21      0x537 drivers/net/built-in.o
 .debug_abbrev  0x0000000000017058      0x6dc drivers/net/phy/built-in.o
 .debug_abbrev  0x0000000000017734      0x574 drivers/power/built-in.o
 .debug_abbrev  0x0000000000017ca8      0x650 drivers/serial/built-in.o
 .debug_abbrev  0x00000000000182f8      0x517 drivers/spi/built-in.o
 .debug_abbrev  0x000000000001880f      0x6ea drivers/usb/eth/built-in.o
 .debug_abbrev  0x0000000000018ef9      0x8c0 drivers/usb/host/built-in.o
 .debug_abbrev  0x00000000000197b9     0x1ecd fs/built-in.o
 .debug_abbrev  0x000000000001b686     0x4c3c lib/built-in.o
 .debug_abbrev  0x00000000000202c2     0x1ec0 net/built-in.o
 .debug_abbrev  0x0000000000022182      0x1e1 test/dm/built-in.o
 .debug_abbrev  0x0000000000022363      0x19c arch/arm/lib/eabi_compat.o

.debug_aranges  0x0000000000000000     0x45e0
 .debug_aranges
                0x0000000000000000       0x20 arch/arm/cpu/armv7/start.o
 .debug_aranges
                0x0000000000000020      0x288 arch/arm/cpu/armv7/built-in.o
 .debug_aranges
                0x00000000000002a8      0x200 arch/arm/imx-common/built-in.o
 .debug_aranges
                0x00000000000004a8      0x260 arch/arm/lib/built-in.o
 .debug_aranges
                0x0000000000000708       0x28 board/freescale/common/built-in.o
 .debug_aranges
                0x0000000000000730       0xa8 board/freescale/mx6ullevk/built-in.o
 .debug_aranges
                0x00000000000007d8      0x8e0 cmd/built-in.o
 .debug_aranges
                0x00000000000010b8      0xfd8 common/built-in.o
 .debug_aranges
                0x0000000000002090       0xa0 disk/built-in.o
 .debug_aranges
                0x0000000000002130      0x5d8 drivers/built-in.o
 .debug_aranges
                0x0000000000002708       0x48 drivers/gpio/built-in.o
 .debug_aranges
                0x0000000000002750      0x120 drivers/i2c/built-in.o
 .debug_aranges
                0x0000000000002870      0x1b0 drivers/mmc/built-in.o
 .debug_aranges
                0x0000000000002a20      0x130 drivers/mtd/built-in.o
 .debug_aranges
                0x0000000000002b50      0x100 drivers/mtd/spi/built-in.o
 .debug_aranges
                0x0000000000002c50       0x80 drivers/net/built-in.o
 .debug_aranges
                0x0000000000002cd0       0xf0 drivers/net/phy/built-in.o
 .debug_aranges
                0x0000000000002dc0       0x78 drivers/power/built-in.o
 .debug_aranges
                0x0000000000002e38      0x110 drivers/serial/built-in.o
 .debug_aranges
                0x0000000000002f48       0x78 drivers/spi/built-in.o
 .debug_aranges
                0x0000000000002fc0       0xc0 drivers/usb/eth/built-in.o
 .debug_aranges
                0x0000000000003080      0x120 drivers/usb/host/built-in.o
 .debug_aranges
                0x00000000000031a0      0x488 fs/built-in.o
 .debug_aranges
                0x0000000000003628      0xb50 lib/built-in.o
 .debug_aranges
                0x0000000000004178      0x3f8 net/built-in.o
 .debug_aranges
                0x0000000000004570       0x38 test/dm/built-in.o
 .debug_aranges
                0x00000000000045a8       0x38 arch/arm/lib/eabi_compat.o

.debug_frame    0x0000000000000000     0xc270
 .debug_frame   0x0000000000000000      0x62c arch/arm/cpu/armv7/built-in.o
 .debug_frame   0x000000000000062c      0x418 arch/arm/imx-common/built-in.o
 .debug_frame   0x0000000000000a44      0x400 arch/arm/lib/built-in.o
 .debug_frame   0x0000000000000e44       0x40 board/freescale/common/built-in.o
 .debug_frame   0x0000000000000e84      0x1e8 board/freescale/mx6ullevk/built-in.o
 .debug_frame   0x000000000000106c     0x17d8 cmd/built-in.o
 .debug_frame   0x0000000000002844     0x2ebc common/built-in.o
 .debug_frame   0x0000000000005700      0x208 disk/built-in.o
 .debug_frame   0x0000000000005908      0xefc drivers/built-in.o
 .debug_frame   0x0000000000006804       0x78 drivers/gpio/built-in.o
 .debug_frame   0x000000000000687c      0x330 drivers/i2c/built-in.o
 .debug_frame   0x0000000000006bac      0x5cc drivers/mmc/built-in.o
 .debug_frame   0x0000000000007178      0x44c drivers/mtd/built-in.o
 .debug_frame   0x00000000000075c4      0x2bc drivers/mtd/spi/built-in.o
 .debug_frame   0x0000000000007880      0x188 drivers/net/built-in.o
 .debug_frame   0x0000000000007a08      0x2bc drivers/net/phy/built-in.o
 .debug_frame   0x0000000000007cc4      0x124 drivers/power/built-in.o
 .debug_frame   0x0000000000007de8      0x294 drivers/serial/built-in.o
 .debug_frame   0x000000000000807c      0x110 drivers/spi/built-in.o
 .debug_frame   0x000000000000818c      0x25c drivers/usb/eth/built-in.o
 .debug_frame   0x00000000000083e8      0x328 drivers/usb/host/built-in.o
 .debug_frame   0x0000000000008710      0xfbc fs/built-in.o
 .debug_frame   0x00000000000096cc     0x1ed8 lib/built-in.o
 .debug_frame   0x000000000000b5a4      0xbe8 net/built-in.o
 .debug_frame   0x000000000000c18c       0x7c test/dm/built-in.o
 .debug_frame   0x000000000000c208       0x68 arch/arm/lib/eabi_compat.o

.debug_str      0x0000000000000000    0x1cc9d
 .debug_str     0x0000000000000000     0x1fc6 arch/arm/cpu/armv7/built-in.o
                                       0x48ec (size before relaxing)
 .debug_str     0x0000000000001fc6      0xe1f arch/arm/imx-common/built-in.o
                                       0x48b0 (size before relaxing)
 .debug_str     0x0000000000002de5     0x1184 arch/arm/lib/built-in.o
                                       0x3b0a (size before relaxing)
 .debug_str     0x0000000000003f69       0x8a board/freescale/common/built-in.o
                                        0x4b1 (size before relaxing)
 .debug_str     0x0000000000003ff3     0x81d4 board/freescale/mx6ullevk/built-in.o
                                       0x8ef7 (size before relaxing)
 .debug_str     0x000000000000c1c7     0x3162 cmd/built-in.o
                                      0x12440 (size before relaxing)
 .debug_str     0x000000000000f329     0x37d5 common/built-in.o
                                      0x19b12 (size before relaxing)
 .debug_str     0x0000000000012afe      0x265 disk/built-in.o
                                        0xf2f (size before relaxing)
 .debug_str     0x0000000000012d63     0x2be2 drivers/built-in.o
                                       0xd122 (size before relaxing)
 .debug_str     0x0000000000015945       0x87 drivers/gpio/built-in.o
                                        0x4fa (size before relaxing)
 .debug_str     0x00000000000159cc      0x255 drivers/i2c/built-in.o
                                       0x1714 (size before relaxing)
 .debug_str     0x0000000000015c21      0x581 drivers/mmc/built-in.o
                                       0x2137 (size before relaxing)
 .debug_str     0x00000000000161a2      0x462 drivers/mtd/built-in.o
                                        0xf0a (size before relaxing)
 .debug_str     0x0000000000016604      0x501 drivers/mtd/spi/built-in.o
                                       0x216b (size before relaxing)
 .debug_str     0x0000000000016b05      0x748 drivers/net/built-in.o
                                       0x115a (size before relaxing)
 .debug_str     0x000000000001724d      0x28f drivers/net/phy/built-in.o
                                       0x18d3 (size before relaxing)
 .debug_str     0x00000000000174dc      0x229 drivers/power/built-in.o
                                        0xceb (size before relaxing)
 .debug_str     0x0000000000017705      0x1ef drivers/serial/built-in.o
                                       0x14eb (size before relaxing)
 .debug_str     0x00000000000178f4      0x209 drivers/spi/built-in.o
                                        0xb95 (size before relaxing)
 .debug_str     0x0000000000017afd      0x34f drivers/usb/eth/built-in.o
                                       0x152e (size before relaxing)
 .debug_str     0x0000000000017e4c      0x78a drivers/usb/host/built-in.o
                                       0x22b7 (size before relaxing)
 .debug_str     0x00000000000185d6     0x1cae fs/built-in.o
                                       0x686e (size before relaxing)
 .debug_str     0x000000000001a284     0x169c lib/built-in.o
                                       0xba17 (size before relaxing)
 .debug_str     0x000000000001b920     0x12a7 net/built-in.o
                                       0x7596 (size before relaxing)
 .debug_str     0x000000000001cbc7       0x79 test/dm/built-in.o
                                        0x53c (size before relaxing)
 .debug_str     0x000000000001cc40       0x5d arch/arm/lib/eabi_compat.o
                                        0x47c (size before relaxing)

.debug_loc      0x0000000000000000    0x615a4
 .debug_loc     0x0000000000000000     0x2e1a arch/arm/cpu/armv7/built-in.o
 .debug_loc     0x0000000000002e1a      0xece arch/arm/imx-common/built-in.o
 .debug_loc     0x0000000000003ce8      0x998 arch/arm/lib/built-in.o
 .debug_loc     0x0000000000004680       0x31 board/freescale/common/built-in.o
 .debug_loc     0x00000000000046b1      0x396 board/freescale/mx6ullevk/built-in.o
 .debug_loc     0x0000000000004a47     0xe806 cmd/built-in.o
 .debug_loc     0x000000000001324d    0x1344b common/built-in.o
 .debug_loc     0x0000000000026698      0xf5d disk/built-in.o
 .debug_loc     0x00000000000275f5     0x6ee3 drivers/built-in.o
 .debug_loc     0x000000000002e4d8      0x50e drivers/gpio/built-in.o
 .debug_loc     0x000000000002e9e6     0x1272 drivers/i2c/built-in.o
 .debug_loc     0x000000000002fc58     0x2de6 drivers/mmc/built-in.o
 .debug_loc     0x0000000000032a3e     0x19c6 drivers/mtd/built-in.o
 .debug_loc     0x0000000000034404     0x26ea drivers/mtd/spi/built-in.o
 .debug_loc     0x0000000000036aee     0x14f7 drivers/net/built-in.o
 .debug_loc     0x0000000000037fe5     0x1ea6 drivers/net/phy/built-in.o
 .debug_loc     0x0000000000039e8b      0x6f6 drivers/power/built-in.o
 .debug_loc     0x000000000003a581      0x563 drivers/serial/built-in.o
 .debug_loc     0x000000000003aae4     0x1200 drivers/spi/built-in.o
 .debug_loc     0x000000000003bce4      0xc67 drivers/usb/eth/built-in.o
 .debug_loc     0x000000000003c94b     0x2273 drivers/usb/host/built-in.o
 .debug_loc     0x000000000003ebbe     0xde0c fs/built-in.o
 .debug_loc     0x000000000004c9ca     0xff13 lib/built-in.o
 .debug_loc     0x000000000005c8dd     0x4935 net/built-in.o
 .debug_loc     0x0000000000061212      0x28a test/dm/built-in.o
 .debug_loc     0x000000000006149c      0x108 arch/arm/lib/eabi_compat.o

.debug_ranges   0x0000000000000000     0x7bd8
 .debug_ranges  0x0000000000000000      0x3f8 arch/arm/cpu/armv7/built-in.o
 .debug_ranges  0x00000000000003f8      0x278 arch/arm/imx-common/built-in.o
 .debug_ranges  0x0000000000000670      0x220 arch/arm/lib/built-in.o
 .debug_ranges  0x0000000000000890       0x18 board/freescale/common/built-in.o
 .debug_ranges  0x00000000000008a8       0xc8 board/freescale/mx6ullevk/built-in.o
 .debug_ranges  0x0000000000000970      0xed0 cmd/built-in.o
 .debug_ranges  0x0000000000001840     0x19a0 common/built-in.o
 .debug_ranges  0x00000000000031e0       0xd0 disk/built-in.o
 .debug_ranges  0x00000000000032b0      0xad0 drivers/built-in.o
 .debug_ranges  0x0000000000003d80       0x50 drivers/gpio/built-in.o
 .debug_ranges  0x0000000000003dd0      0x268 drivers/i2c/built-in.o
 .debug_ranges  0x0000000000004038      0x420 drivers/mmc/built-in.o
 .debug_ranges  0x0000000000004458      0x128 drivers/mtd/built-in.o
 .debug_ranges  0x0000000000004580      0x228 drivers/mtd/spi/built-in.o
 .debug_ranges  0x00000000000047a8      0x3c0 drivers/net/built-in.o
 .debug_ranges  0x0000000000004b68      0x390 drivers/net/phy/built-in.o
 .debug_ranges  0x0000000000004ef8       0xb8 drivers/power/built-in.o
 .debug_ranges  0x0000000000004fb0      0x108 drivers/serial/built-in.o
 .debug_ranges  0x00000000000050b8      0x140 drivers/spi/built-in.o
 .debug_ranges  0x00000000000051f8      0x1d8 drivers/usb/eth/built-in.o
 .debug_ranges  0x00000000000053d0      0x270 drivers/usb/host/built-in.o
 .debug_ranges  0x0000000000005640      0xcc8 fs/built-in.o
 .debug_ranges  0x0000000000006308     0x10c0 lib/built-in.o
 .debug_ranges  0x00000000000073c8      0x7c0 net/built-in.o
 .debug_ranges  0x0000000000007b88       0x28 test/dm/built-in.o
 .debug_ranges  0x0000000000007bb0       0x28 arch/arm/lib/eabi_compat.o
